

Microchip MPLAB XC8 Assembler V2.50 build 20240725155939 
                                                                                               Tue Mar 24 12:27:33 2026

Microchip MPLAB XC8 C Compiler v2.50 (Free license) build 20240725155939 Og1 
     1                           	processor	18F4550
     2                           	fnconf	rparam,??,?,0
     3                           	pagewidth 120
     4                           	opt	flic
     5                           	psect	idataCOMRAM,global,class=CODE,space=0,delta=1,noexec
     6                           	psect	mediumconst,global,reloc=2,class=MEDIUMCONST,space=0,delta=1,noexec
     7                           	psect	cinit,global,reloc=2,class=CODE,space=0,delta=1
     8                           	psect	bssCOMRAM,global,class=COMRAM,space=1,delta=1,lowdata,noexec
     9                           	psect	dataCOMRAM,global,class=COMRAM,space=1,delta=1,lowdata,noexec
    10                           	psect	bssBIGRAM_1,global,class=BIGRAM,space=1,delta=1,noexec
    11                           	psect	cstackCOMRAM,global,class=COMRAM,space=1,delta=1,lowdata,noexec
    12                           	psect	text0,global,reloc=2,class=CODE,space=0,delta=1
    13                           	psect	text1,global,reloc=2,class=CODE,space=0,delta=1
    14                           	psect	text2,global,reloc=2,class=CODE,space=0,delta=1
    15                           	psect	text3,global,reloc=2,class=CODE,space=0,delta=1
    16                           	psect	text4,global,reloc=2,class=CODE,space=0,delta=1
    17                           	psect	text5,global,reloc=2,class=CODE,space=0,delta=1
    18                           	psect	text6,global,reloc=2,class=CODE,space=0,delta=1
    19                           	psect	text7,global,reloc=2,class=CODE,space=0,delta=1
    20                           	psect	text8,global,reloc=2,class=CODE,space=0,delta=1
    21                           	psect	text9,global,reloc=2,class=CODE,space=0,delta=1
    22                           	psect	text10,global,reloc=2,class=CODE,space=0,delta=1
    23                           	psect	text11,global,reloc=2,class=CODE,space=0,delta=1
    24                           	psect	text12,global,reloc=2,class=CODE,space=0,delta=1
    25                           	psect	text13,global,reloc=2,class=CODE,space=0,delta=1
    26                           	psect	text14,global,reloc=2,class=CODE,space=0,delta=1
    27                           	psect	text15,global,reloc=2,class=CODE,space=0,delta=1
    28                           	psect	text16,global,reloc=2,class=CODE,space=0,delta=1
    29                           	psect	text17,global,reloc=2,class=CODE,space=0,delta=1
    30                           	psect	text18,global,reloc=2,class=CODE,space=0,delta=1,group=1
    31                           	psect	text19,global,reloc=2,class=CODE,space=0,delta=1,group=1
    32                           	psect	text20,global,reloc=2,class=CODE,space=0,delta=1
    33                           	psect	text21,global,reloc=2,class=CODE,space=0,delta=1
    34                           	psect	text22,global,reloc=2,class=CODE,space=0,delta=1
    35                           	psect	text23,global,reloc=2,class=CODE,space=0,delta=1
    36                           	psect	text24,global,reloc=2,class=CODE,space=0,delta=1
    37                           	psect	text25,global,reloc=2,class=CODE,space=0,delta=1
    38                           	psect	intcode,global,reloc=2,class=CODE,space=0,delta=1
    39                           	psect	intcode_body,global,reloc=2,class=CODE,space=0,delta=1
    40                           	psect	intsave_regs,global,class=BIGRAM,space=1,delta=1,noexec
    41                           	psect	rparam,global,class=COMRAM,space=1,delta=1,noexec
    42                           	psect	temp,global,ovrld,common,class=COMRAM,space=1,delta=1,lowdata
    43                           	psect	config,global,abs,ovrld,class=CONFIG,space=4,delta=1,noexec
    44   000000                     
    45                           ; Generated 17/10/2023 GMT
    46                           ; 
    47                           ; Copyright © 2023, Microchip Technology Inc. and its subsidiaries ("Microchip")
    48                           ; All rights reserved.
    49                           ; 
    50                           ; This software is developed by Microchip Technology Inc. and its subsidiaries ("Microch
      +                          ip").
    51                           ; 
    52                           ; Redistribution and use in source and binary forms, with or without modification, are
    53                           ; permitted provided that the following conditions are met:
    54                           ; 
    55                           ;     1. Redistributions of source code must retain the above copyright notice, this lis
      +                          t of
    56                           ;        conditions and the following disclaimer.
    57                           ; 
    58                           ;     2. Redistributions in binary form must reproduce the above copyright notice, this 
      +                          list
    59                           ;        of conditions and the following disclaimer in the documentation and/or other
    60                           ;        materials provided with the distribution. Publication is not required when
    61                           ;        this file is used in an embedded application.
    62                           ; 
    63                           ;     3. Microchip's name may not be used to endorse or promote products derived from th
      +                          is
    64                           ;        software without specific prior written permission.
    65                           ; 
    66                           ; THIS SOFTWARE IS PROVIDED BY MICROCHIP "AS IS" AND ANY EXPRESS OR IMPLIED WARRANTIES,
    67                           ; INCLUDING, BUT NOT LIMITED TO, THE IMPLIED WARRANTIES OF MERCHANTABILITY AND FITNESS F
      +                          OR
    68                           ; PURPOSE ARE DISCLAIMED.  IN NO EVENT SHALL MICROCHIP BE LIABLE FOR ANY DIRECT, INDIREC
      +                          T,
    69                           ; INCIDENTAL, SPECIAL, EXEMPLARY, OR CONSEQUENTIAL DAMAGES (INCLUDING BUT NOT LIMITED TO
    70                           ; PROCUREMENT OF SUBSTITUTE GOODS OR SERVICES; LOSS OF USE, DATA OR PROFITS; OR BUSINESS
    71                           ; INTERRUPTION) HOWSOEVER CAUSED AND ON ANY THEORY OF LIABILITY, WHETHER IN CONTRACT, ST
      +                          RICT
    72                           ; LIABILITY, OR TORT (INCLUDING NEGLIGENCE OR OTHERWISE) ARISING IN ANY WAY OUT OF THE U
      +                          SE OF
    73                           ; THIS SOFTWARE, EVEN IF ADVISED OF THE POSSIBILITY OF SUCH DAMAGE.
    74                           ; 
    75                           ; 
    76                           ; Code-generator required, PIC18F4550 Definitions
    77                           ; 
    78                           ; SFR Addresses
    79   000FE0                     bsr             equ	4064
    80   000FE9                     fsr0            equ	4073
    81   000FEA                     fsr0h           equ	4074
    82   000FE9                     fsr0l           equ	4073
    83   000FE1                     fsr1            equ	4065
    84   000FE2                     fsr1h           equ	4066
    85   000FE1                     fsr1l           equ	4065
    86   000FD9                     fsr2            equ	4057
    87   000FDA                     fsr2h           equ	4058
    88   000FD9                     fsr2l           equ	4057
    89   000FEF                     indf0           equ	4079
    90   000FE7                     indf1           equ	4071
    91   000FDF                     indf2           equ	4063
    92   000FF2                     intcon          equ	4082
    93   000000                     nvmcon          equ	0
    94   000FF9                     pcl             equ	4089
    95   000FFA                     pclath          equ	4090
    96   000FFB                     pclatu          equ	4091
    97   000FEB                     plusw0          equ	4075
    98   000FE3                     plusw1          equ	4067
    99   000FDB                     plusw2          equ	4059
   100   000FED                     postdec0        equ	4077
   101   000FE5                     postdec1        equ	4069
   102   000FDD                     postdec2        equ	4061
   103   000FEE                     postinc0        equ	4078
   104   000FE6                     postinc1        equ	4070
   105   000FDE                     postinc2        equ	4062
   106   000FEC                     preinc0         equ	4076
   107   000FE4                     preinc1         equ	4068
   108   000FDC                     preinc2         equ	4060
   109   000FF3                     prod            equ	4083
   110   000FF4                     prodh           equ	4084
   111   000FF3                     prodl           equ	4083
   112   000FD8                     status          equ	4056
   113   000FF5                     tablat          equ	4085
   114   000FF6                     tblptr          equ	4086
   115   000FF7                     tblptrh         equ	4087
   116   000FF6                     tblptrl         equ	4086
   117   000FF8                     tblptru         equ	4088
   118   000FFD                     tosl            equ	4093
   119   000FE8                     wreg            equ	4072
   120   000F62                     SPPDATA         equ	3938	;# 
   121   000F63                     SPPCFG          equ	3939	;# 
   122   000F64                     SPPEPS          equ	3940	;# 
   123   000F65                     SPPCON          equ	3941	;# 
   124   000F66                     UFRM            equ	3942	;# 
   125   000F66                     UFRML           equ	3942	;# 
   126   000F67                     UFRMH           equ	3943	;# 
   127   000F68                     UIR             equ	3944	;# 
   128   000F69                     UIE             equ	3945	;# 
   129   000F6A                     UEIR            equ	3946	;# 
   130   000F6B                     UEIE            equ	3947	;# 
   131   000F6C                     USTAT           equ	3948	;# 
   132   000F6D                     UCON            equ	3949	;# 
   133   000F6E                     UADDR           equ	3950	;# 
   134   000F6F                     UCFG            equ	3951	;# 
   135   000F70                     UEP0            equ	3952	;# 
   136   000F71                     UEP1            equ	3953	;# 
   137   000F72                     UEP2            equ	3954	;# 
   138   000F73                     UEP3            equ	3955	;# 
   139   000F74                     UEP4            equ	3956	;# 
   140   000F75                     UEP5            equ	3957	;# 
   141   000F76                     UEP6            equ	3958	;# 
   142   000F77                     UEP7            equ	3959	;# 
   143   000F78                     UEP8            equ	3960	;# 
   144   000F79                     UEP9            equ	3961	;# 
   145   000F7A                     UEP10           equ	3962	;# 
   146   000F7B                     UEP11           equ	3963	;# 
   147   000F7C                     UEP12           equ	3964	;# 
   148   000F7D                     UEP13           equ	3965	;# 
   149   000F7E                     UEP14           equ	3966	;# 
   150   000F7F                     UEP15           equ	3967	;# 
   151   000F80                     PORTA           equ	3968	;# 
   152   000F81                     PORTB           equ	3969	;# 
   153   000F82                     PORTC           equ	3970	;# 
   154   000F83                     PORTD           equ	3971	;# 
   155   000F84                     PORTE           equ	3972	;# 
   156   000F89                     LATA            equ	3977	;# 
   157   000F8A                     LATB            equ	3978	;# 
   158   000F8B                     LATC            equ	3979	;# 
   159   000F8C                     LATD            equ	3980	;# 
   160   000F8D                     LATE            equ	3981	;# 
   161   000F92                     TRISA           equ	3986	;# 
   162   000F92                     DDRA            equ	3986	;# 
   163   000F93                     TRISB           equ	3987	;# 
   164   000F93                     DDRB            equ	3987	;# 
   165   000F94                     TRISC           equ	3988	;# 
   166   000F94                     DDRC            equ	3988	;# 
   167   000F95                     TRISD           equ	3989	;# 
   168   000F95                     DDRD            equ	3989	;# 
   169   000F96                     TRISE           equ	3990	;# 
   170   000F96                     DDRE            equ	3990	;# 
   171   000F9B                     OSCTUNE         equ	3995	;# 
   172   000F9D                     PIE1            equ	3997	;# 
   173   000F9E                     PIR1            equ	3998	;# 
   174   000F9F                     IPR1            equ	3999	;# 
   175   000FA0                     PIE2            equ	4000	;# 
   176   000FA1                     PIR2            equ	4001	;# 
   177   000FA2                     IPR2            equ	4002	;# 
   178   000FA6                     EECON1          equ	4006	;# 
   179   000FA7                     EECON2          equ	4007	;# 
   180   000FA8                     EEDATA          equ	4008	;# 
   181   000FA9                     EEADR           equ	4009	;# 
   182   000FAB                     RCSTA           equ	4011	;# 
   183   000FAB                     RCSTA1          equ	4011	;# 
   184   000FAC                     TXSTA           equ	4012	;# 
   185   000FAC                     TXSTA1          equ	4012	;# 
   186   000FAD                     TXREG           equ	4013	;# 
   187   000FAD                     TXREG1          equ	4013	;# 
   188   000FAE                     RCREG           equ	4014	;# 
   189   000FAE                     RCREG1          equ	4014	;# 
   190   000FAF                     SPBRG           equ	4015	;# 
   191   000FAF                     SPBRG1          equ	4015	;# 
   192   000FB0                     SPBRGH          equ	4016	;# 
   193   000FB1                     T3CON           equ	4017	;# 
   194   000FB2                     TMR3            equ	4018	;# 
   195   000FB2                     TMR3L           equ	4018	;# 
   196   000FB3                     TMR3H           equ	4019	;# 
   197   000FB4                     CMCON           equ	4020	;# 
   198   000FB5                     CVRCON          equ	4021	;# 
   199   000FB6                     ECCP1AS         equ	4022	;# 
   200   000FB6                     CCP1AS          equ	4022	;# 
   201   000FB7                     ECCP1DEL        equ	4023	;# 
   202   000FB7                     CCP1DEL         equ	4023	;# 
   203   000FB8                     BAUDCON         equ	4024	;# 
   204   000FB8                     BAUDCTL         equ	4024	;# 
   205   000FBA                     CCP2CON         equ	4026	;# 
   206   000FBB                     CCPR2           equ	4027	;# 
   207   000FBB                     CCPR2L          equ	4027	;# 
   208   000FBC                     CCPR2H          equ	4028	;# 
   209   000FBD                     CCP1CON         equ	4029	;# 
   210   000FBD                     ECCP1CON        equ	4029	;# 
   211   000FBE                     CCPR1           equ	4030	;# 
   212   000FBE                     CCPR1L          equ	4030	;# 
   213   000FBF                     CCPR1H          equ	4031	;# 
   214   000FC0                     ADCON2          equ	4032	;# 
   215   000FC1                     ADCON1          equ	4033	;# 
   216   000FC2                     ADCON0          equ	4034	;# 
   217   000FC3                     ADRES           equ	4035	;# 
   218   000FC3                     ADRESL          equ	4035	;# 
   219   000FC4                     ADRESH          equ	4036	;# 
   220   000FC5                     SSPCON2         equ	4037	;# 
   221   000FC6                     SSPCON1         equ	4038	;# 
   222   000FC7                     SSPSTAT         equ	4039	;# 
   223   000FC8                     SSPADD          equ	4040	;# 
   224   000FC9                     SSPBUF          equ	4041	;# 
   225   000FCA                     T2CON           equ	4042	;# 
   226   000FCB                     PR2             equ	4043	;# 
   227   000FCB                     MEMCON          equ	4043	;# 
   228   000FCC                     TMR2            equ	4044	;# 
   229   000FCD                     T1CON           equ	4045	;# 
   230   000FCE                     TMR1            equ	4046	;# 
   231   000FCE                     TMR1L           equ	4046	;# 
   232   000FCF                     TMR1H           equ	4047	;# 
   233   000FD0                     RCON            equ	4048	;# 
   234   000FD1                     WDTCON          equ	4049	;# 
   235   000FD2                     HLVDCON         equ	4050	;# 
   236   000FD2                     LVDCON          equ	4050	;# 
   237   000FD3                     OSCCON          equ	4051	;# 
   238   000FD5                     T0CON           equ	4053	;# 
   239   000FD6                     TMR0            equ	4054	;# 
   240   000FD6                     TMR0L           equ	4054	;# 
   241   000FD7                     TMR0H           equ	4055	;# 
   242   000FD8                     STATUS          equ	4056	;# 
   243   000FD9                     FSR2            equ	4057	;# 
   244   000FD9                     FSR2L           equ	4057	;# 
   245   000FDA                     FSR2H           equ	4058	;# 
   246   000FDB                     PLUSW2          equ	4059	;# 
   247   000FDC                     PREINC2         equ	4060	;# 
   248   000FDD                     POSTDEC2        equ	4061	;# 
   249   000FDE                     POSTINC2        equ	4062	;# 
   250   000FDF                     INDF2           equ	4063	;# 
   251   000FE0                     BSR             equ	4064	;# 
   252   000FE1                     FSR1            equ	4065	;# 
   253   000FE1                     FSR1L           equ	4065	;# 
   254   000FE2                     FSR1H           equ	4066	;# 
   255   000FE3                     PLUSW1          equ	4067	;# 
   256   000FE4                     PREINC1         equ	4068	;# 
   257   000FE5                     POSTDEC1        equ	4069	;# 
   258   000FE6                     POSTINC1        equ	4070	;# 
   259   000FE7                     INDF1           equ	4071	;# 
   260   000FE8                     WREG            equ	4072	;# 
   261   000FE9                     FSR0            equ	4073	;# 
   262   000FE9                     FSR0L           equ	4073	;# 
   263   000FEA                     FSR0H           equ	4074	;# 
   264   000FEB                     PLUSW0          equ	4075	;# 
   265   000FEC                     PREINC0         equ	4076	;# 
   266   000FED                     POSTDEC0        equ	4077	;# 
   267   000FEE                     POSTINC0        equ	4078	;# 
   268   000FEF                     INDF0           equ	4079	;# 
   269   000FF0                     INTCON3         equ	4080	;# 
   270   000FF1                     INTCON2         equ	4081	;# 
   271   000FF2                     INTCON          equ	4082	;# 
   272   000FF3                     PROD            equ	4083	;# 
   273   000FF3                     PRODL           equ	4083	;# 
   274   000FF4                     PRODH           equ	4084	;# 
   275   000FF5                     TABLAT          equ	4085	;# 
   276   000FF6                     TBLPTR          equ	4086	;# 
   277   000FF6                     TBLPTRL         equ	4086	;# 
   278   000FF7                     TBLPTRH         equ	4087	;# 
   279   000FF8                     TBLPTRU         equ	4088	;# 
   280   000FF9                     PCLAT           equ	4089	;# 
   281   000FF9                     PC              equ	4089	;# 
   282   000FF9                     PCL             equ	4089	;# 
   283   000FFA                     PCLATH          equ	4090	;# 
   284   000FFB                     PCLATU          equ	4091	;# 
   285   000FFC                     STKPTR          equ	4092	;# 
   286   000FFD                     TOS             equ	4093	;# 
   287   000FFD                     TOSL            equ	4093	;# 
   288   000FFE                     TOSH            equ	4094	;# 
   289   000FFF                     TOSU            equ	4095	;# 
   290   000F62                     SPPDATA         equ	3938	;# 
   291   000F63                     SPPCFG          equ	3939	;# 
   292   000F64                     SPPEPS          equ	3940	;# 
   293   000F65                     SPPCON          equ	3941	;# 
   294   000F66                     UFRM            equ	3942	;# 
   295   000F66                     UFRML           equ	3942	;# 
   296   000F67                     UFRMH           equ	3943	;# 
   297   000F68                     UIR             equ	3944	;# 
   298   000F69                     UIE             equ	3945	;# 
   299   000F6A                     UEIR            equ	3946	;# 
   300   000F6B                     UEIE            equ	3947	;# 
   301   000F6C                     USTAT           equ	3948	;# 
   302   000F6D                     UCON            equ	3949	;# 
   303   000F6E                     UADDR           equ	3950	;# 
   304   000F6F                     UCFG            equ	3951	;# 
   305   000F70                     UEP0            equ	3952	;# 
   306   000F71                     UEP1            equ	3953	;# 
   307   000F72                     UEP2            equ	3954	;# 
   308   000F73                     UEP3            equ	3955	;# 
   309   000F74                     UEP4            equ	3956	;# 
   310   000F75                     UEP5            equ	3957	;# 
   311   000F76                     UEP6            equ	3958	;# 
   312   000F77                     UEP7            equ	3959	;# 
   313   000F78                     UEP8            equ	3960	;# 
   314   000F79                     UEP9            equ	3961	;# 
   315   000F7A                     UEP10           equ	3962	;# 
   316   000F7B                     UEP11           equ	3963	;# 
   317   000F7C                     UEP12           equ	3964	;# 
   318   000F7D                     UEP13           equ	3965	;# 
   319   000F7E                     UEP14           equ	3966	;# 
   320   000F7F                     UEP15           equ	3967	;# 
   321   000F80                     PORTA           equ	3968	;# 
   322   000F81                     PORTB           equ	3969	;# 
   323   000F82                     PORTC           equ	3970	;# 
   324   000F83                     PORTD           equ	3971	;# 
   325   000F84                     PORTE           equ	3972	;# 
   326   000F89                     LATA            equ	3977	;# 
   327   000F8A                     LATB            equ	3978	;# 
   328   000F8B                     LATC            equ	3979	;# 
   329   000F8C                     LATD            equ	3980	;# 
   330   000F8D                     LATE            equ	3981	;# 
   331   000F92                     TRISA           equ	3986	;# 
   332   000F92                     DDRA            equ	3986	;# 
   333   000F93                     TRISB           equ	3987	;# 
   334   000F93                     DDRB            equ	3987	;# 
   335   000F94                     TRISC           equ	3988	;# 
   336   000F94                     DDRC            equ	3988	;# 
   337   000F95                     TRISD           equ	3989	;# 
   338   000F95                     DDRD            equ	3989	;# 
   339   000F96                     TRISE           equ	3990	;# 
   340   000F96                     DDRE            equ	3990	;# 
   341   000F9B                     OSCTUNE         equ	3995	;# 
   342   000F9D                     PIE1            equ	3997	;# 
   343   000F9E                     PIR1            equ	3998	;# 
   344   000F9F                     IPR1            equ	3999	;# 
   345   000FA0                     PIE2            equ	4000	;# 
   346   000FA1                     PIR2            equ	4001	;# 
   347   000FA2                     IPR2            equ	4002	;# 
   348   000FA6                     EECON1          equ	4006	;# 
   349   000FA7                     EECON2          equ	4007	;# 
   350   000FA8                     EEDATA          equ	4008	;# 
   351   000FA9                     EEADR           equ	4009	;# 
   352   000FAB                     RCSTA           equ	4011	;# 
   353   000FAB                     RCSTA1          equ	4011	;# 
   354   000FAC                     TXSTA           equ	4012	;# 
   355   000FAC                     TXSTA1          equ	4012	;# 
   356   000FAD                     TXREG           equ	4013	;# 
   357   000FAD                     TXREG1          equ	4013	;# 
   358   000FAE                     RCREG           equ	4014	;# 
   359   000FAE                     RCREG1          equ	4014	;# 
   360   000FAF                     SPBRG           equ	4015	;# 
   361   000FAF                     SPBRG1          equ	4015	;# 
   362   000FB0                     SPBRGH          equ	4016	;# 
   363   000FB1                     T3CON           equ	4017	;# 
   364   000FB2                     TMR3            equ	4018	;# 
   365   000FB2                     TMR3L           equ	4018	;# 
   366   000FB3                     TMR3H           equ	4019	;# 
   367   000FB4                     CMCON           equ	4020	;# 
   368   000FB5                     CVRCON          equ	4021	;# 
   369   000FB6                     ECCP1AS         equ	4022	;# 
   370   000FB6                     CCP1AS          equ	4022	;# 
   371   000FB7                     ECCP1DEL        equ	4023	;# 
   372   000FB7                     CCP1DEL         equ	4023	;# 
   373   000FB8                     BAUDCON         equ	4024	;# 
   374   000FB8                     BAUDCTL         equ	4024	;# 
   375   000FBA                     CCP2CON         equ	4026	;# 
   376   000FBB                     CCPR2           equ	4027	;# 
   377   000FBB                     CCPR2L          equ	4027	;# 
   378   000FBC                     CCPR2H          equ	4028	;# 
   379   000FBD                     CCP1CON         equ	4029	;# 
   380   000FBD                     ECCP1CON        equ	4029	;# 
   381   000FBE                     CCPR1           equ	4030	;# 
   382   000FBE                     CCPR1L          equ	4030	;# 
   383   000FBF                     CCPR1H          equ	4031	;# 
   384   000FC0                     ADCON2          equ	4032	;# 
   385   000FC1                     ADCON1          equ	4033	;# 
   386   000FC2                     ADCON0          equ	4034	;# 
   387   000FC3                     ADRES           equ	4035	;# 
   388   000FC3                     ADRESL          equ	4035	;# 
   389   000FC4                     ADRESH          equ	4036	;# 
   390   000FC5                     SSPCON2         equ	4037	;# 
   391   000FC6                     SSPCON1         equ	4038	;# 
   392   000FC7                     SSPSTAT         equ	4039	;# 
   393   000FC8                     SSPADD          equ	4040	;# 
   394   000FC9                     SSPBUF          equ	4041	;# 
   395   000FCA                     T2CON           equ	4042	;# 
   396   000FCB                     PR2             equ	4043	;# 
   397   000FCB                     MEMCON          equ	4043	;# 
   398   000FCC                     TMR2            equ	4044	;# 
   399   000FCD                     T1CON           equ	4045	;# 
   400   000FCE                     TMR1            equ	4046	;# 
   401   000FCE                     TMR1L           equ	4046	;# 
   402   000FCF                     TMR1H           equ	4047	;# 
   403   000FD0                     RCON            equ	4048	;# 
   404   000FD1                     WDTCON          equ	4049	;# 
   405   000FD2                     HLVDCON         equ	4050	;# 
   406   000FD2                     LVDCON          equ	4050	;# 
   407   000FD3                     OSCCON          equ	4051	;# 
   408   000FD5                     T0CON           equ	4053	;# 
   409   000FD6                     TMR0            equ	4054	;# 
   410   000FD6                     TMR0L           equ	4054	;# 
   411   000FD7                     TMR0H           equ	4055	;# 
   412   000FD8                     STATUS          equ	4056	;# 
   413   000FD9                     FSR2            equ	4057	;# 
   414   000FD9                     FSR2L           equ	4057	;# 
   415   000FDA                     FSR2H           equ	4058	;# 
   416   000FDB                     PLUSW2          equ	4059	;# 
   417   000FDC                     PREINC2         equ	4060	;# 
   418   000FDD                     POSTDEC2        equ	4061	;# 
   419   000FDE                     POSTINC2        equ	4062	;# 
   420   000FDF                     INDF2           equ	4063	;# 
   421   000FE0                     BSR             equ	4064	;# 
   422   000FE1                     FSR1            equ	4065	;# 
   423   000FE1                     FSR1L           equ	4065	;# 
   424   000FE2                     FSR1H           equ	4066	;# 
   425   000FE3                     PLUSW1          equ	4067	;# 
   426   000FE4                     PREINC1         equ	4068	;# 
   427   000FE5                     POSTDEC1        equ	4069	;# 
   428   000FE6                     POSTINC1        equ	4070	;# 
   429   000FE7                     INDF1           equ	4071	;# 
   430   000FE8                     WREG            equ	4072	;# 
   431   000FE9                     FSR0            equ	4073	;# 
   432   000FE9                     FSR0L           equ	4073	;# 
   433   000FEA                     FSR0H           equ	4074	;# 
   434   000FEB                     PLUSW0          equ	4075	;# 
   435   000FEC                     PREINC0         equ	4076	;# 
   436   000FED                     POSTDEC0        equ	4077	;# 
   437   000FEE                     POSTINC0        equ	4078	;# 
   438   000FEF                     INDF0           equ	4079	;# 
   439   000FF0                     INTCON3         equ	4080	;# 
   440   000FF1                     INTCON2         equ	4081	;# 
   441   000FF2                     INTCON          equ	4082	;# 
   442   000FF3                     PROD            equ	4083	;# 
   443   000FF3                     PRODL           equ	4083	;# 
   444   000FF4                     PRODH           equ	4084	;# 
   445   000FF5                     TABLAT          equ	4085	;# 
   446   000FF6                     TBLPTR          equ	4086	;# 
   447   000FF6                     TBLPTRL         equ	4086	;# 
   448   000FF7                     TBLPTRH         equ	4087	;# 
   449   000FF8                     TBLPTRU         equ	4088	;# 
   450   000FF9                     PCLAT           equ	4089	;# 
   451   000FF9                     PC              equ	4089	;# 
   452   000FF9                     PCL             equ	4089	;# 
   453   000FFA                     PCLATH          equ	4090	;# 
   454   000FFB                     PCLATU          equ	4091	;# 
   455   000FFC                     STKPTR          equ	4092	;# 
   456   000FFD                     TOS             equ	4093	;# 
   457   000FFD                     TOSL            equ	4093	;# 
   458   000FFE                     TOSH            equ	4094	;# 
   459   000FFF                     TOSU            equ	4095	;# 
   460   000F62                     SPPDATA         equ	3938	;# 
   461   000F63                     SPPCFG          equ	3939	;# 
   462   000F64                     SPPEPS          equ	3940	;# 
   463   000F65                     SPPCON          equ	3941	;# 
   464   000F66                     UFRM            equ	3942	;# 
   465   000F66                     UFRML           equ	3942	;# 
   466   000F67                     UFRMH           equ	3943	;# 
   467   000F68                     UIR             equ	3944	;# 
   468   000F69                     UIE             equ	3945	;# 
   469   000F6A                     UEIR            equ	3946	;# 
   470   000F6B                     UEIE            equ	3947	;# 
   471   000F6C                     USTAT           equ	3948	;# 
   472   000F6D                     UCON            equ	3949	;# 
   473   000F6E                     UADDR           equ	3950	;# 
   474   000F6F                     UCFG            equ	3951	;# 
   475   000F70                     UEP0            equ	3952	;# 
   476   000F71                     UEP1            equ	3953	;# 
   477   000F72                     UEP2            equ	3954	;# 
   478   000F73                     UEP3            equ	3955	;# 
   479   000F74                     UEP4            equ	3956	;# 
   480   000F75                     UEP5            equ	3957	;# 
   481   000F76                     UEP6            equ	3958	;# 
   482   000F77                     UEP7            equ	3959	;# 
   483   000F78                     UEP8            equ	3960	;# 
   484   000F79                     UEP9            equ	3961	;# 
   485   000F7A                     UEP10           equ	3962	;# 
   486   000F7B                     UEP11           equ	3963	;# 
   487   000F7C                     UEP12           equ	3964	;# 
   488   000F7D                     UEP13           equ	3965	;# 
   489   000F7E                     UEP14           equ	3966	;# 
   490   000F7F                     UEP15           equ	3967	;# 
   491   000F80                     PORTA           equ	3968	;# 
   492   000F81                     PORTB           equ	3969	;# 
   493   000F82                     PORTC           equ	3970	;# 
   494   000F83                     PORTD           equ	3971	;# 
   495   000F84                     PORTE           equ	3972	;# 
   496   000F89                     LATA            equ	3977	;# 
   497   000F8A                     LATB            equ	3978	;# 
   498   000F8B                     LATC            equ	3979	;# 
   499   000F8C                     LATD            equ	3980	;# 
   500   000F8D                     LATE            equ	3981	;# 
   501   000F92                     TRISA           equ	3986	;# 
   502   000F92                     DDRA            equ	3986	;# 
   503   000F93                     TRISB           equ	3987	;# 
   504   000F93                     DDRB            equ	3987	;# 
   505   000F94                     TRISC           equ	3988	;# 
   506   000F94                     DDRC            equ	3988	;# 
   507   000F95                     TRISD           equ	3989	;# 
   508   000F95                     DDRD            equ	3989	;# 
   509   000F96                     TRISE           equ	3990	;# 
   510   000F96                     DDRE            equ	3990	;# 
   511   000F9B                     OSCTUNE         equ	3995	;# 
   512   000F9D                     PIE1            equ	3997	;# 
   513   000F9E                     PIR1            equ	3998	;# 
   514   000F9F                     IPR1            equ	3999	;# 
   515   000FA0                     PIE2            equ	4000	;# 
   516   000FA1                     PIR2            equ	4001	;# 
   517   000FA2                     IPR2            equ	4002	;# 
   518   000FA6                     EECON1          equ	4006	;# 
   519   000FA7                     EECON2          equ	4007	;# 
   520   000FA8                     EEDATA          equ	4008	;# 
   521   000FA9                     EEADR           equ	4009	;# 
   522   000FAB                     RCSTA           equ	4011	;# 
   523   000FAB                     RCSTA1          equ	4011	;# 
   524   000FAC                     TXSTA           equ	4012	;# 
   525   000FAC                     TXSTA1          equ	4012	;# 
   526   000FAD                     TXREG           equ	4013	;# 
   527   000FAD                     TXREG1          equ	4013	;# 
   528   000FAE                     RCREG           equ	4014	;# 
   529   000FAE                     RCREG1          equ	4014	;# 
   530   000FAF                     SPBRG           equ	4015	;# 
   531   000FAF                     SPBRG1          equ	4015	;# 
   532   000FB0                     SPBRGH          equ	4016	;# 
   533   000FB1                     T3CON           equ	4017	;# 
   534   000FB2                     TMR3            equ	4018	;# 
   535   000FB2                     TMR3L           equ	4018	;# 
   536   000FB3                     TMR3H           equ	4019	;# 
   537   000FB4                     CMCON           equ	4020	;# 
   538   000FB5                     CVRCON          equ	4021	;# 
   539   000FB6                     ECCP1AS         equ	4022	;# 
   540   000FB6                     CCP1AS          equ	4022	;# 
   541   000FB7                     ECCP1DEL        equ	4023	;# 
   542   000FB7                     CCP1DEL         equ	4023	;# 
   543   000FB8                     BAUDCON         equ	4024	;# 
   544   000FB8                     BAUDCTL         equ	4024	;# 
   545   000FBA                     CCP2CON         equ	4026	;# 
   546   000FBB                     CCPR2           equ	4027	;# 
   547   000FBB                     CCPR2L          equ	4027	;# 
   548   000FBC                     CCPR2H          equ	4028	;# 
   549   000FBD                     CCP1CON         equ	4029	;# 
   550   000FBD                     ECCP1CON        equ	4029	;# 
   551   000FBE                     CCPR1           equ	4030	;# 
   552   000FBE                     CCPR1L          equ	4030	;# 
   553   000FBF                     CCPR1H          equ	4031	;# 
   554   000FC0                     ADCON2          equ	4032	;# 
   555   000FC1                     ADCON1          equ	4033	;# 
   556   000FC2                     ADCON0          equ	4034	;# 
   557   000FC3                     ADRES           equ	4035	;# 
   558   000FC3                     ADRESL          equ	4035	;# 
   559   000FC4                     ADRESH          equ	4036	;# 
   560   000FC5                     SSPCON2         equ	4037	;# 
   561   000FC6                     SSPCON1         equ	4038	;# 
   562   000FC7                     SSPSTAT         equ	4039	;# 
   563   000FC8                     SSPADD          equ	4040	;# 
   564   000FC9                     SSPBUF          equ	4041	;# 
   565   000FCA                     T2CON           equ	4042	;# 
   566   000FCB                     PR2             equ	4043	;# 
   567   000FCB                     MEMCON          equ	4043	;# 
   568   000FCC                     TMR2            equ	4044	;# 
   569   000FCD                     T1CON           equ	4045	;# 
   570   000FCE                     TMR1            equ	4046	;# 
   571   000FCE                     TMR1L           equ	4046	;# 
   572   000FCF                     TMR1H           equ	4047	;# 
   573   000FD0                     RCON            equ	4048	;# 
   574   000FD1                     WDTCON          equ	4049	;# 
   575   000FD2                     HLVDCON         equ	4050	;# 
   576   000FD2                     LVDCON          equ	4050	;# 
   577   000FD3                     OSCCON          equ	4051	;# 
   578   000FD5                     T0CON           equ	4053	;# 
   579   000FD6                     TMR0            equ	4054	;# 
   580   000FD6                     TMR0L           equ	4054	;# 
   581   000FD7                     TMR0H           equ	4055	;# 
   582   000FD8                     STATUS          equ	4056	;# 
   583   000FD9                     FSR2            equ	4057	;# 
   584   000FD9                     FSR2L           equ	4057	;# 
   585   000FDA                     FSR2H           equ	4058	;# 
   586   000FDB                     PLUSW2          equ	4059	;# 
   587   000FDC                     PREINC2         equ	4060	;# 
   588   000FDD                     POSTDEC2        equ	4061	;# 
   589   000FDE                     POSTINC2        equ	4062	;# 
   590   000FDF                     INDF2           equ	4063	;# 
   591   000FE0                     BSR             equ	4064	;# 
   592   000FE1                     FSR1            equ	4065	;# 
   593   000FE1                     FSR1L           equ	4065	;# 
   594   000FE2                     FSR1H           equ	4066	;# 
   595   000FE3                     PLUSW1          equ	4067	;# 
   596   000FE4                     PREINC1         equ	4068	;# 
   597   000FE5                     POSTDEC1        equ	4069	;# 
   598   000FE6                     POSTINC1        equ	4070	;# 
   599   000FE7                     INDF1           equ	4071	;# 
   600   000FE8                     WREG            equ	4072	;# 
   601   000FE9                     FSR0            equ	4073	;# 
   602   000FE9                     FSR0L           equ	4073	;# 
   603   000FEA                     FSR0H           equ	4074	;# 
   604   000FEB                     PLUSW0          equ	4075	;# 
   605   000FEC                     PREINC0         equ	4076	;# 
   606   000FED                     POSTDEC0        equ	4077	;# 
   607   000FEE                     POSTINC0        equ	4078	;# 
   608   000FEF                     INDF0           equ	4079	;# 
   609   000FF0                     INTCON3         equ	4080	;# 
   610   000FF1                     INTCON2         equ	4081	;# 
   611   000FF2                     INTCON          equ	4082	;# 
   612   000FF3                     PROD            equ	4083	;# 
   613   000FF3                     PRODL           equ	4083	;# 
   614   000FF4                     PRODH           equ	4084	;# 
   615   000FF5                     TABLAT          equ	4085	;# 
   616   000FF6                     TBLPTR          equ	4086	;# 
   617   000FF6                     TBLPTRL         equ	4086	;# 
   618   000FF7                     TBLPTRH         equ	4087	;# 
   619   000FF8                     TBLPTRU         equ	4088	;# 
   620   000FF9                     PCLAT           equ	4089	;# 
   621   000FF9                     PC              equ	4089	;# 
   622   000FF9                     PCL             equ	4089	;# 
   623   000FFA                     PCLATH          equ	4090	;# 
   624   000FFB                     PCLATU          equ	4091	;# 
   625   000FFC                     STKPTR          equ	4092	;# 
   626   000FFD                     TOS             equ	4093	;# 
   627   000FFD                     TOSL            equ	4093	;# 
   628   000FFE                     TOSH            equ	4094	;# 
   629   000FFF                     TOSU            equ	4095	;# 
   630                           
   631                           	psect	idataCOMRAM
   632   000A34                     __pidataCOMRAM:
   633                           	callstack 0
   634                           
   635                           ;initializer for _DispCtrStr
   636   000A34  61                 	db	97
   637   000A35  73                 	db	115
   638   000A36  64                 	db	100
   639   000A37  64                 	db	100
   640   000A38  00                 	db	0
   641                           
   642                           	psect	mediumconst
   643   007B72                     __pmediumconst:
   644                           	callstack 0
   645   007B72  00                 	db	0
   646   007B73                     _font5x7:
   647                           	callstack 0
   648   007B73  00                 	db	0
   649   007B74  00                 	db	0
   650   007B75  00                 	db	0
   651   007B76  00                 	db	0
   652   007B77  00                 	db	0
   653   007B78  00                 	db	0
   654   007B79  00                 	db	0
   655   007B7A  2F                 	db	47
   656   007B7B  00                 	db	0
   657   007B7C  00                 	db	0
   658   007B7D  00                 	db	0
   659   007B7E  07                 	db	7
   660   007B7F  00                 	db	0
   661   007B80  07                 	db	7
   662   007B81  00                 	db	0
   663   007B82  14                 	db	20
   664   007B83  7F                 	db	127
   665   007B84  14                 	db	20
   666   007B85  7F                 	db	127
   667   007B86  14                 	db	20
   668   007B87  24                 	db	36
   669   007B88  2A                 	db	42
   670   007B89  7F                 	db	127
   671   007B8A  2A                 	db	42
   672   007B8B  12                 	db	18
   673   007B8C  62                 	db	98
   674   007B8D  64                 	db	100
   675   007B8E  08                 	db	8
   676   007B8F  13                 	db	19
   677   007B90  23                 	db	35
   678   007B91  36                 	db	54
   679   007B92  49                 	db	73
   680   007B93  55                 	db	85
   681   007B94  22                 	db	34
   682   007B95  50                 	db	80
   683   007B96  00                 	db	0
   684   007B97  05                 	db	5
   685   007B98  03                 	db	3
   686   007B99  00                 	db	0
   687   007B9A  00                 	db	0
   688   007B9B  00                 	db	0
   689   007B9C  1C                 	db	28
   690   007B9D  22                 	db	34
   691   007B9E  41                 	db	65
   692   007B9F  00                 	db	0
   693   007BA0  00                 	db	0
   694   007BA1  41                 	db	65
   695   007BA2  22                 	db	34
   696   007BA3  1C                 	db	28
   697   007BA4  00                 	db	0
   698   007BA5  14                 	db	20
   699   007BA6  08                 	db	8
   700   007BA7  3E                 	db	62
   701   007BA8  08                 	db	8
   702   007BA9  14                 	db	20
   703   007BAA  08                 	db	8
   704   007BAB  08                 	db	8
   705   007BAC  3E                 	db	62
   706   007BAD  08                 	db	8
   707   007BAE  08                 	db	8
   708   007BAF  00                 	db	0
   709   007BB0  00                 	db	0
   710   007BB1  A0                 	db	160
   711   007BB2  60                 	db	96
   712   007BB3  00                 	db	0
   713   007BB4  08                 	db	8
   714   007BB5  08                 	db	8
   715   007BB6  08                 	db	8
   716   007BB7  08                 	db	8
   717   007BB8  08                 	db	8
   718   007BB9  00                 	db	0
   719   007BBA  60                 	db	96
   720   007BBB  60                 	db	96
   721   007BBC  00                 	db	0
   722   007BBD  00                 	db	0
   723   007BBE  20                 	db	32
   724   007BBF  10                 	db	16
   725   007BC0  08                 	db	8
   726   007BC1  04                 	db	4
   727   007BC2  02                 	db	2
   728   007BC3  3E                 	db	62
   729   007BC4  51                 	db	81
   730   007BC5  49                 	db	73
   731   007BC6  45                 	db	69
   732   007BC7  3E                 	db	62
   733   007BC8  00                 	db	0
   734   007BC9  42                 	db	66
   735   007BCA  7F                 	db	127
   736   007BCB  40                 	db	64
   737   007BCC  00                 	db	0
   738   007BCD  42                 	db	66
   739   007BCE  61                 	db	97
   740   007BCF  51                 	db	81
   741   007BD0  49                 	db	73
   742   007BD1  46                 	db	70
   743   007BD2  21                 	db	33
   744   007BD3  41                 	db	65
   745   007BD4  45                 	db	69
   746   007BD5  4B                 	db	75
   747   007BD6  31                 	db	49
   748   007BD7  18                 	db	24
   749   007BD8  14                 	db	20
   750   007BD9  12                 	db	18
   751   007BDA  7F                 	db	127
   752   007BDB  10                 	db	16
   753   007BDC  27                 	db	39
   754   007BDD  45                 	db	69
   755   007BDE  45                 	db	69
   756   007BDF  45                 	db	69
   757   007BE0  39                 	db	57
   758   007BE1  3C                 	db	60
   759   007BE2  4A                 	db	74
   760   007BE3  49                 	db	73
   761   007BE4  49                 	db	73
   762   007BE5  30                 	db	48
   763   007BE6  01                 	db	1
   764   007BE7  71                 	db	113
   765   007BE8  09                 	db	9
   766   007BE9  05                 	db	5
   767   007BEA  03                 	db	3
   768   007BEB  36                 	db	54
   769   007BEC  49                 	db	73
   770   007BED  49                 	db	73
   771   007BEE  49                 	db	73
   772   007BEF  36                 	db	54
   773   007BF0  06                 	db	6
   774   007BF1  49                 	db	73
   775   007BF2  49                 	db	73
   776   007BF3  29                 	db	41
   777   007BF4  1E                 	db	30
   778   007BF5  00                 	db	0
   779   007BF6  36                 	db	54
   780   007BF7  36                 	db	54
   781   007BF8  00                 	db	0
   782   007BF9  00                 	db	0
   783   007BFA  00                 	db	0
   784   007BFB  56                 	db	86
   785   007BFC  36                 	db	54
   786   007BFD  00                 	db	0
   787   007BFE  00                 	db	0
   788   007BFF  08                 	db	8
   789   007C00  14                 	db	20
   790   007C01  22                 	db	34
   791   007C02  41                 	db	65
   792   007C03  00                 	db	0
   793   007C04  14                 	db	20
   794   007C05  14                 	db	20
   795   007C06  14                 	db	20
   796   007C07  14                 	db	20
   797   007C08  14                 	db	20
   798   007C09  00                 	db	0
   799   007C0A  41                 	db	65
   800   007C0B  22                 	db	34
   801   007C0C  14                 	db	20
   802   007C0D  08                 	db	8
   803   007C0E  02                 	db	2
   804   007C0F  01                 	db	1
   805   007C10  51                 	db	81
   806   007C11  09                 	db	9
   807   007C12  06                 	db	6
   808   007C13  32                 	db	50
   809   007C14  49                 	db	73
   810   007C15  59                 	db	89
   811   007C16  51                 	db	81
   812   007C17  3E                 	db	62
   813   007C18  7C                 	db	124
   814   007C19  12                 	db	18
   815   007C1A  11                 	db	17
   816   007C1B  12                 	db	18
   817   007C1C  7C                 	db	124
   818   007C1D  7F                 	db	127
   819   007C1E  49                 	db	73
   820   007C1F  49                 	db	73
   821   007C20  49                 	db	73
   822   007C21  36                 	db	54
   823   007C22  3E                 	db	62
   824   007C23  41                 	db	65
   825   007C24  41                 	db	65
   826   007C25  41                 	db	65
   827   007C26  22                 	db	34
   828   007C27  7F                 	db	127
   829   007C28  41                 	db	65
   830   007C29  41                 	db	65
   831   007C2A  22                 	db	34
   832   007C2B  1C                 	db	28
   833   007C2C  7F                 	db	127
   834   007C2D  49                 	db	73
   835   007C2E  49                 	db	73
   836   007C2F  49                 	db	73
   837   007C30  41                 	db	65
   838   007C31  7F                 	db	127
   839   007C32  09                 	db	9
   840   007C33  09                 	db	9
   841   007C34  09                 	db	9
   842   007C35  01                 	db	1
   843   007C36  3E                 	db	62
   844   007C37  41                 	db	65
   845   007C38  49                 	db	73
   846   007C39  49                 	db	73
   847   007C3A  7A                 	db	122
   848   007C3B  7F                 	db	127
   849   007C3C  08                 	db	8
   850   007C3D  08                 	db	8
   851   007C3E  08                 	db	8
   852   007C3F  7F                 	db	127
   853   007C40  00                 	db	0
   854   007C41  41                 	db	65
   855   007C42  7F                 	db	127
   856   007C43  41                 	db	65
   857   007C44  00                 	db	0
   858   007C45  20                 	db	32
   859   007C46  40                 	db	64
   860   007C47  41                 	db	65
   861   007C48  3F                 	db	63
   862   007C49  01                 	db	1
   863   007C4A  7F                 	db	127
   864   007C4B  08                 	db	8
   865   007C4C  14                 	db	20
   866   007C4D  22                 	db	34
   867   007C4E  41                 	db	65
   868   007C4F  7F                 	db	127
   869   007C50  40                 	db	64
   870   007C51  40                 	db	64
   871   007C52  40                 	db	64
   872   007C53  40                 	db	64
   873   007C54  7F                 	db	127
   874   007C55  02                 	db	2
   875   007C56  0C                 	db	12
   876   007C57  02                 	db	2
   877   007C58  7F                 	db	127
   878   007C59  7F                 	db	127
   879   007C5A  04                 	db	4
   880   007C5B  08                 	db	8
   881   007C5C  10                 	db	16
   882   007C5D  7F                 	db	127
   883   007C5E  3E                 	db	62
   884   007C5F  41                 	db	65
   885   007C60  41                 	db	65
   886   007C61  41                 	db	65
   887   007C62  3E                 	db	62
   888   007C63  7F                 	db	127
   889   007C64  09                 	db	9
   890   007C65  09                 	db	9
   891   007C66  09                 	db	9
   892   007C67  06                 	db	6
   893   007C68  3E                 	db	62
   894   007C69  41                 	db	65
   895   007C6A  51                 	db	81
   896   007C6B  21                 	db	33
   897   007C6C  5E                 	db	94
   898   007C6D  7F                 	db	127
   899   007C6E  09                 	db	9
   900   007C6F  19                 	db	25
   901   007C70  29                 	db	41
   902   007C71  46                 	db	70
   903   007C72  46                 	db	70
   904   007C73  49                 	db	73
   905   007C74  49                 	db	73
   906   007C75  49                 	db	73
   907   007C76  31                 	db	49
   908   007C77  01                 	db	1
   909   007C78  01                 	db	1
   910   007C79  7F                 	db	127
   911   007C7A  01                 	db	1
   912   007C7B  01                 	db	1
   913   007C7C  3F                 	db	63
   914   007C7D  40                 	db	64
   915   007C7E  40                 	db	64
   916   007C7F  40                 	db	64
   917   007C80  3F                 	db	63
   918   007C81  1F                 	db	31
   919   007C82  20                 	db	32
   920   007C83  40                 	db	64
   921   007C84  20                 	db	32
   922   007C85  1F                 	db	31
   923   007C86  3F                 	db	63
   924   007C87  40                 	db	64
   925   007C88  38                 	db	56
   926   007C89  40                 	db	64
   927   007C8A  3F                 	db	63
   928   007C8B  63                 	db	99
   929   007C8C  14                 	db	20
   930   007C8D  08                 	db	8
   931   007C8E  14                 	db	20
   932   007C8F  63                 	db	99
   933   007C90  07                 	db	7
   934   007C91  08                 	db	8
   935   007C92  70                 	db	112
   936   007C93  08                 	db	8
   937   007C94  07                 	db	7
   938   007C95  61                 	db	97
   939   007C96  51                 	db	81
   940   007C97  49                 	db	73
   941   007C98  45                 	db	69
   942   007C99  43                 	db	67
   943   007C9A  00                 	db	0
   944   007C9B  7F                 	db	127
   945   007C9C  41                 	db	65
   946   007C9D  41                 	db	65
   947   007C9E  00                 	db	0
   948   007C9F  55                 	db	85
   949   007CA0  2A                 	db	42
   950   007CA1  55                 	db	85
   951   007CA2  2A                 	db	42
   952   007CA3  55                 	db	85
   953   007CA4  00                 	db	0
   954   007CA5  41                 	db	65
   955   007CA6  41                 	db	65
   956   007CA7  7F                 	db	127
   957   007CA8  00                 	db	0
   958   007CA9  04                 	db	4
   959   007CAA  02                 	db	2
   960   007CAB  01                 	db	1
   961   007CAC  02                 	db	2
   962   007CAD  04                 	db	4
   963   007CAE  40                 	db	64
   964   007CAF  40                 	db	64
   965   007CB0  40                 	db	64
   966   007CB1  40                 	db	64
   967   007CB2  40                 	db	64
   968   007CB3  00                 	db	0
   969   007CB4  01                 	db	1
   970   007CB5  02                 	db	2
   971   007CB6  04                 	db	4
   972   007CB7  00                 	db	0
   973   007CB8  20                 	db	32
   974   007CB9  54                 	db	84
   975   007CBA  54                 	db	84
   976   007CBB  54                 	db	84
   977   007CBC  78                 	db	120
   978   007CBD  7F                 	db	127
   979   007CBE  48                 	db	72
   980   007CBF  44                 	db	68
   981   007CC0  44                 	db	68
   982   007CC1  38                 	db	56
   983   007CC2  38                 	db	56
   984   007CC3  44                 	db	68
   985   007CC4  44                 	db	68
   986   007CC5  44                 	db	68
   987   007CC6  20                 	db	32
   988   007CC7  38                 	db	56
   989   007CC8  44                 	db	68
   990   007CC9  44                 	db	68
   991   007CCA  48                 	db	72
   992   007CCB  7F                 	db	127
   993   007CCC  38                 	db	56
   994   007CCD  54                 	db	84
   995   007CCE  54                 	db	84
   996   007CCF  54                 	db	84
   997   007CD0  18                 	db	24
   998   007CD1  08                 	db	8
   999   007CD2  7E                 	db	126
  1000   007CD3  09                 	db	9
  1001   007CD4  01                 	db	1
  1002   007CD5  02                 	db	2
  1003   007CD6  18                 	db	24
  1004   007CD7  A4                 	db	164
  1005   007CD8  A4                 	db	164
  1006   007CD9  A4                 	db	164
  1007   007CDA  7C                 	db	124
  1008   007CDB  7F                 	db	127
  1009   007CDC  08                 	db	8
  1010   007CDD  04                 	db	4
  1011   007CDE  04                 	db	4
  1012   007CDF  78                 	db	120
  1013   007CE0  00                 	db	0
  1014   007CE1  44                 	db	68
  1015   007CE2  7D                 	db	125
  1016   007CE3  40                 	db	64
  1017   007CE4  00                 	db	0
  1018   007CE5  40                 	db	64
  1019   007CE6  80                 	db	128
  1020   007CE7  84                 	db	132
  1021   007CE8  7D                 	db	125
  1022   007CE9  00                 	db	0
  1023   007CEA  7F                 	db	127
  1024   007CEB  10                 	db	16
  1025   007CEC  28                 	db	40
  1026   007CED  44                 	db	68
  1027   007CEE  00                 	db	0
  1028   007CEF  00                 	db	0
  1029   007CF0  41                 	db	65
  1030   007CF1  7F                 	db	127
  1031   007CF2  40                 	db	64
  1032   007CF3  00                 	db	0
  1033   007CF4  7C                 	db	124
  1034   007CF5  04                 	db	4
  1035   007CF6  18                 	db	24
  1036   007CF7  04                 	db	4
  1037   007CF8  78                 	db	120
  1038   007CF9  7C                 	db	124
  1039   007CFA  08                 	db	8
  1040   007CFB  04                 	db	4
  1041   007CFC  04                 	db	4
  1042   007CFD  78                 	db	120
  1043   007CFE  38                 	db	56
  1044   007CFF  44                 	db	68
  1045   007D00  44                 	db	68
  1046   007D01  44                 	db	68
  1047   007D02  38                 	db	56
  1048   007D03  FC                 	db	252
  1049   007D04  24                 	db	36
  1050   007D05  24                 	db	36
  1051   007D06  24                 	db	36
  1052   007D07  18                 	db	24
  1053   007D08  18                 	db	24
  1054   007D09  24                 	db	36
  1055   007D0A  24                 	db	36
  1056   007D0B  18                 	db	24
  1057   007D0C  FC                 	db	252
  1058   007D0D  7C                 	db	124
  1059   007D0E  08                 	db	8
  1060   007D0F  04                 	db	4
  1061   007D10  04                 	db	4
  1062   007D11  08                 	db	8
  1063   007D12  48                 	db	72
  1064   007D13  54                 	db	84
  1065   007D14  54                 	db	84
  1066   007D15  54                 	db	84
  1067   007D16  20                 	db	32
  1068   007D17  04                 	db	4
  1069   007D18  3F                 	db	63
  1070   007D19  44                 	db	68
  1071   007D1A  40                 	db	64
  1072   007D1B  20                 	db	32
  1073   007D1C  3C                 	db	60
  1074   007D1D  40                 	db	64
  1075   007D1E  40                 	db	64
  1076   007D1F  20                 	db	32
  1077   007D20  7C                 	db	124
  1078   007D21  1C                 	db	28
  1079   007D22  20                 	db	32
  1080   007D23  40                 	db	64
  1081   007D24  20                 	db	32
  1082   007D25  1C                 	db	28
  1083   007D26  3C                 	db	60
  1084   007D27  40                 	db	64
  1085   007D28  30                 	db	48
  1086   007D29  40                 	db	64
  1087   007D2A  3C                 	db	60
  1088   007D2B  44                 	db	68
  1089   007D2C  28                 	db	40
  1090   007D2D  10                 	db	16
  1091   007D2E  28                 	db	40
  1092   007D2F  44                 	db	68
  1093   007D30  1C                 	db	28
  1094   007D31  A0                 	db	160
  1095   007D32  A0                 	db	160
  1096   007D33  A0                 	db	160
  1097   007D34  7C                 	db	124
  1098   007D35  44                 	db	68
  1099   007D36  64                 	db	100
  1100   007D37  54                 	db	84
  1101   007D38  4C                 	db	76
  1102   007D39  44                 	db	68
  1103   007D3A  7F                 	db	127
  1104   007D3B  41                 	db	65
  1105   007D3C  41                 	db	65
  1106   007D3D  41                 	db	65
  1107   007D3E  7F                 	db	127
  1108   007D3F                     __end_of_font5x7:
  1109                           	callstack 0
  1110   007CE9                     _TMR2IE         set	31977
  1111   007CF1                     _TMR2IF         set	31985
  1112   007F95                     _TMR0IE         set	32661
  1113   007F92                     _TMR0IF         set	32658
  1114   000F8C                     _LATD           set	3980
  1115   000F8B                     _LATC           set	3979
  1116   000F89                     _LATA           set	3977
  1117   000F96                     _TRISE          set	3990
  1118   000F95                     _TRISD          set	3989
  1119   000F94                     _TRISC          set	3988
  1120   000F93                     _TRISB          set	3987
  1121   000F92                     _TRISA          set	3986
  1122   000F81                     _PORTBbits      set	3969
  1123   000FC9                     _SSPBUF         set	4041
  1124   000FC6                     _SSPCON1bits    set	4038
  1125   000FC6                     _SSPCON1        set	4038
  1126   000FC7                     _SSPSTAT        set	4039
  1127   000F9D                     _PIE1bits       set	3997
  1128   000F9E                     _PIR1bits       set	3998
  1129   000FCB                     _PR2            set	4043
  1130   000FCA                     _T2CON          set	4042
  1131   000FD6                     _TMR0           set	4054
  1132   000FD5                     _T0CON          set	4053
  1133   000FF2                     _INTCONbits     set	4082
  1134   007D3F  00                 	db	0	; dummy byte at the end
  1135   000002                     __activetblptr  equ	2
  1136                           
  1137                           ; #config settings
  1138                           
  1139                           	psect	cinit
  1140   000814                     __pcinit:
  1141                           	callstack 0
  1142   000814                     start_initialization:
  1143                           	callstack 0
  1144   000814                     __initialization:
  1145                           	callstack 0
  1146                           
  1147                           ; Initialize objects allocated to COMRAM (5 bytes)
  1148                           ; load TBLPTR registers with __pidataCOMRAM
  1149   000814  0E34               	movlw	low __pidataCOMRAM
  1150   000816  6EF6               	movwf	tblptrl,c
  1151   000818  0E0A               	movlw	high __pidataCOMRAM
  1152   00081A  6EF7               	movwf	tblptrh,c
  1153   00081C  0E00               	movlw	low (__pidataCOMRAM shr (0+16))
  1154   00081E  6EF8               	movwf	tblptru,c
  1155   000820  EE00  F028         	lfsr	0,__pdataCOMRAM
  1156   000824  EE10 F005          	lfsr	1,5
  1157   000828                     copy_data0:
  1158   000828  0009               	tblrd		*+
  1159   00082A  CFF5 FFEE          	movff	tablat,postinc0
  1160   00082E  50E5               	movf	postdec1,w,c
  1161   000830  50E1               	movf	fsr1l,w,c
  1162   000832  E1FA               	bnz	copy_data0
  1163                           
  1164                           ; Clear objects allocated to BIGRAM_1 (1024 bytes)
  1165   000834  EE04  F000         	lfsr	0,__pbssBIGRAM_1
  1166   000838  EE14 F000          	lfsr	1,1024
  1167   00083C                     clear_0:
  1168   00083C  6AEE               	clrf	postinc0,c
  1169   00083E  50E5               	movf	postdec1,w,c
  1170   000840  50E1               	movf	fsr1l,w,c
  1171   000842  E1FC               	bnz	clear_0
  1172   000844  50E2               	movf	fsr1h,w,c
  1173   000846  E1FA               	bnz	clear_0
  1174                           
  1175                           ; Clear objects allocated to COMRAM (7 bytes)
  1176   000848  EE00  F021         	lfsr	0,__pbssCOMRAM
  1177   00084C  0E07               	movlw	7
  1178   00084E                     clear_1:
  1179   00084E  6AEE               	clrf	postinc0,c
  1180   000850  06E8               	decf	wreg,f,c
  1181   000852  E1FD               	bnz	clear_1
  1182   000854                     end_of_initialization:
  1183                           	callstack 0
  1184   000854                     __end_of__initialization:
  1185                           	callstack 0
  1186   000854  902D               	bcf	int$flags,0,c	;clear compiler interrupt flag (level 1)
  1187   000856  922D               	bcf	int$flags,1,c	;clear compiler interrupt flag (level 2)
  1188   000858  0E00               	movlw	low (__Lmediumconst shr (0+16))
  1189   00085A  6EF8               	movwf	tblptru,c
  1190   00085C  0100               	movlb	0
  1191   00085E  EF0F  F003         	goto	_main	;jump to C main() function
  1192                           
  1193                           	psect	bssCOMRAM
  1194   000021                     __pbssCOMRAM:
  1195                           	callstack 0
  1196   000021                     _millis:
  1197                           	callstack 0
  1198   000021                     	ds	4
  1199   000025                     _cnt:
  1200                           	callstack 0
  1201   000025                     	ds	2
  1202   000027                     _switches:
  1203                           	callstack 0
  1204   000027                     	ds	1
  1205                           
  1206                           	psect	dataCOMRAM
  1207   000028                     __pdataCOMRAM:
  1208                           	callstack 0
  1209   000028                     _DispCtrStr:
  1210                           	callstack 0
  1211   000028                     	ds	5
  1212                           
  1213                           	psect	bssBIGRAM_1
  1214   000400                     __pbssBIGRAM_1:
  1215                           	callstack 0
  1216   000400                     _displayBuffer:
  1217                           	callstack 0
  1218   000400                     	ds	1024
  1219                           
  1220                           	psect	cstackCOMRAM
  1221   000001                     __pcstackCOMRAM:
  1222                           	callstack 0
  1223   000001                     ?___lldiv:
  1224                           	callstack 0
  1225   000001                     ?___llmod:
  1226                           	callstack 0
  1227   000001                     sendByteSpi@dat:
  1228                           	callstack 0
  1229   000001                     drawText@column:
  1230                           	callstack 0
  1231   000001                     drawPixel@y:
  1232                           	callstack 0
  1233   000001                     ___lldiv@dividend:
  1234                           	callstack 0
  1235   000001                     ___llmod@dividend:
  1236                           	callstack 0
  1237   000001                     ??_clearBuffer:
  1238   000001                     
  1239                           ; 1 bytes @ 0x0
  1240   000001                     	ds	1
  1241   000002                     sendCommandToDisplay@comm:
  1242                           	callstack 0
  1243   000002                     sendDataToDisplay@dat:
  1244                           	callstack 0
  1245   000002                     drawText@txt:
  1246                           	callstack 0
  1247   000002                     drawPixel@color:
  1248                           	callstack 0
  1249   000002                     
  1250                           ; 1 bytes @ 0x1
  1251   000002                     	ds	1
  1252   000003                     setColumnAddress@col:
  1253                           	callstack 0
  1254   000003                     setPageAddress@page:
  1255                           	callstack 0
  1256   000003                     clearBuffer@pg:
  1257                           	callstack 0
  1258   000003                     ??_drawText:
  1259   000003                     ??_drawPixel:
  1260                           
  1261                           ; 1 bytes @ 0x2
  1262   000003                     	ds	1
  1263   000004                     setColumnAddress@column:
  1264                           	callstack 0
  1265   000004                     clearBuffer@col:
  1266                           	callstack 0
  1267                           
  1268                           ; 1 bytes @ 0x3
  1269   000004                     	ds	1
  1270   000005                     clearPageDisplay@page:
  1271                           	callstack 0
  1272   000005                     drawText@d:
  1273                           	callstack 0
  1274   000005                     ___lldiv@divisor:
  1275                           	callstack 0
  1276   000005                     ___llmod@divisor:
  1277                           	callstack 0
  1278   000005                     ??_updateDisplay:
  1279   000005                     
  1280                           ; 1 bytes @ 0x4
  1281   000005                     	ds	1
  1282   000006                     drawText@x:
  1283                           	callstack 0
  1284   000006                     clearPageDisplay@cl:
  1285                           	callstack 0
  1286                           
  1287                           ; 2 bytes @ 0x5
  1288   000006                     	ds	1
  1289   000007                     drawText@c:
  1290                           	callstack 0
  1291   000007                     updateDisplay@col:
  1292                           	callstack 0
  1293                           
  1294                           ; 1 bytes @ 0x6
  1295   000007                     	ds	1
  1296   000008                     clearAllDisplay@pg:
  1297                           	callstack 0
  1298   000008                     drawText@page:
  1299                           	callstack 0
  1300   000008                     updateDisplay@pg:
  1301                           	callstack 0
  1302   000008                     drawPixel@page:
  1303                           	callstack 0
  1304   000008                     
  1305                           ; 1 bytes @ 0x7
  1306   000008                     	ds	1
  1307   000009                     drawText@i:
  1308                           	callstack 0
  1309   000009                     drawPixel@bit:
  1310                           	callstack 0
  1311   000009                     ___llmod@counter:
  1312                           	callstack 0
  1313   000009                     ___lldiv@quotient:
  1314                           	callstack 0
  1315   000009                     
  1316                           ; 1 bytes @ 0x8
  1317   000009                     	ds	1
  1318   00000A                     drawText@col:
  1319                           	callstack 0
  1320   00000A                     drawPixel@x:
  1321                           	callstack 0
  1322                           
  1323                           ; 1 bytes @ 0x9
  1324   00000A                     	ds	1
  1325   00000B                     drawRect@y:
  1326                           	callstack 0
  1327   00000B                     fillRect@y:
  1328                           	callstack 0
  1329                           
  1330                           ; 1 bytes @ 0xA
  1331   00000B                     	ds	1
  1332   00000C                     drawRect@w:
  1333                           	callstack 0
  1334   00000C                     fillRect@w:
  1335                           	callstack 0
  1336                           
  1337                           ; 1 bytes @ 0xB
  1338   00000C                     	ds	1
  1339   00000D                     drawRect@h:
  1340                           	callstack 0
  1341   00000D                     fillRect@h:
  1342                           	callstack 0
  1343   00000D                     ___lldiv@counter:
  1344                           	callstack 0
  1345                           
  1346                           ; 1 bytes @ 0xC
  1347   00000D                     	ds	1
  1348   00000E                     fillRect@color:
  1349                           	callstack 0
  1350   00000E                     utoa32@value:
  1351                           	callstack 0
  1352   00000E                     ??_drawRect:
  1353                           
  1354                           ; 1 bytes @ 0xD
  1355   00000E                     	ds	1
  1356   00000F                     drawRect@i:
  1357                           	callstack 0
  1358   00000F                     fillRect@x:
  1359                           	callstack 0
  1360   00000F                     
  1361                           ; 1 bytes @ 0xE
  1362   00000F                     	ds	1
  1363   000010                     drawRect@i_516:
  1364                           	callstack 0
  1365   000010                     fillRect@i:
  1366                           	callstack 0
  1367                           
  1368                           ; 1 bytes @ 0xF
  1369   000010                     	ds	1
  1370   000011                     drawRect@x:
  1371                           	callstack 0
  1372   000011                     fillRect@j:
  1373                           	callstack 0
  1374                           
  1375                           ; 1 bytes @ 0x10
  1376   000011                     	ds	1
  1377   000012                     utoa32@buffer:
  1378                           	callstack 0
  1379                           
  1380                           ; 1 bytes @ 0x11
  1381   000012                     	ds	1
  1382   000013                     utoa32@temp:
  1383                           	callstack 0
  1384   000013                     
  1385                           ; 1 bytes @ 0x12
  1386   000013                     	ds	10
  1387   00001D                     utoa32@j:
  1388                           	callstack 0
  1389                           
  1390                           ; 2 bytes @ 0x1C
  1391   00001D                     	ds	2
  1392   00001F                     utoa32@i:
  1393                           	callstack 0
  1394                           
  1395                           ; 2 bytes @ 0x1E
  1396   00001F                     	ds	2
  1397   000021                     
  1398                           ; 1 bytes @ 0x20
  1399 ;;
  1400 ;;Main: autosize = 0, tempsize = 0, incstack = 0, save=0
  1401 ;;
  1402 ;; *************** function _main *****************
  1403 ;; Defined at:
  1404 ;;		line 92 in file "main.c"
  1405 ;; Parameters:    Size  Location     Type
  1406 ;;		None
  1407 ;; Auto vars:     Size  Location     Type
  1408 ;;		None
  1409 ;; Return value:  Size  Location     Type
  1410 ;;                  1    wreg      void 
  1411 ;; Registers used:
  1412 ;;		wreg, fsr1l, fsr1h, fsr2l, fsr2h, status,2, status,0, tblptrl, tblptrh, tblptru, prodl, prodh, cstack
  1413 ;; Tracked objects:
  1414 ;;		On entry : 0/0
  1415 ;;		On exit  : 0/0
  1416 ;;		Unchanged: 0/0
  1417 ;; Data sizes:     COMRAM   BANK0   BANK1   BANK2   BANK3   BANK4   BANK5   BANK6   BANK7
  1418 ;;      Params:         0       0       0       0       0       0       0       0       0
  1419 ;;      Locals:         0       0       0       0       0       0       0       0       0
  1420 ;;      Temps:          0       0       0       0       0       0       0       0       0
  1421 ;;      Totals:         0       0       0       0       0       0       0       0       0
  1422 ;;Total ram usage:        0 bytes
  1423 ;; Hardware stack levels required when called: 7
  1424 ;; This function calls:
  1425 ;;		___llmod
  1426 ;;		_clearBuffer
  1427 ;;		_clearLeds
  1428 ;;		_drawUi
  1429 ;;		_handleSwitches
  1430 ;;		_initDisplay
  1431 ;;		_setInterrupt
  1432 ;;		_setPinout
  1433 ;;		_setTimer0
  1434 ;;		_setTimer2
  1435 ;;		_updateDisplay
  1436 ;; This function is called by:
  1437 ;;		Startup code after reset
  1438 ;; This function uses a non-reentrant model
  1439 ;;
  1440                           
  1441                           	psect	text0
  1442   00061E                     __ptext0:
  1443                           	callstack 0
  1444   00061E                     _main:
  1445                           	callstack 24
  1446   00061E                     
  1447                           ;main.c: 94:     setPinout();
  1448   00061E  EC03  F005         	call	_setPinout	;wreg free
  1449   000622                     
  1450                           ;main.c: 95:     clearLeds();
  1451   000622  EC11  F005         	call	_clearLeds	;wreg free
  1452   000626                     
  1453                           ;main.c: 96:     setTimer0();
  1454   000626  ECF3  F004         	call	_setTimer0	;wreg free
  1455   00062A                     
  1456                           ;main.c: 97:     setTimer2();
  1457   00062A  ECFC  F004         	call	_setTimer2	;wreg free
  1458   00062E                     
  1459                           ;main.c: 99:     initDisplay();
  1460   00062E  EC80  F003         	call	_initDisplay	;wreg free
  1461   000632                     
  1462                           ;main.c: 100:     setInterrupt();
  1463   000632  EC17  F005         	call	_setInterrupt	;wreg free
  1464   000636                     
  1465                           ;main.c: 103:     clearBuffer();
  1466   000636  EC58  F004         	call	_clearBuffer	;wreg free
  1467   00063A                     l1670:
  1468                           
  1469                           ;main.c: 125:     {;main.c: 126:         if ( (uint32_t) millis%2 == 0){
  1470   00063A  B021               	btfsc	_millis^0,0,c	;volatile
  1471   00063C  EF22  F003         	goto	u891
  1472   000640  EF24  F003         	goto	u890
  1473   000644                     u891:
  1474   000644  EF26  F003         	goto	l1674
  1475   000648                     u890:
  1476   000648                     
  1477                           ;main.c: 127:             handleSwitches();
  1478   000648  ECB1  F003         	call	_handleSwitches	;wreg free
  1479   00064C                     l1674:
  1480                           
  1481                           ;main.c: 129:         if ( (uint32_t) millis%50 == 0){
  1482   00064C  C021  F001         	movff	_millis,___llmod@dividend	;volatile
  1483   000650  C022  F002         	movff	_millis+1,___llmod@dividend+1	;volatile
  1484   000654  C023  F003         	movff	_millis+2,___llmod@dividend+2	;volatile
  1485   000658  C024  F004         	movff	_millis+3,___llmod@dividend+3	;volatile
  1486   00065C  0E32               	movlw	50
  1487   00065E  6E05               	movwf	___llmod@divisor^0,c
  1488   000660  0E00               	movlw	0
  1489   000662  6E06               	movwf	(___llmod@divisor+1)^0,c
  1490   000664  0E00               	movlw	0
  1491   000666  6E07               	movwf	(___llmod@divisor+2)^0,c
  1492   000668  0E00               	movlw	0
  1493   00066A  6E08               	movwf	(___llmod@divisor+3)^0,c
  1494   00066C  EC89  F002         	call	___llmod	;wreg free
  1495   000670  5001               	movf	?___llmod^0,w,c
  1496   000672  1002               	iorwf	(?___llmod+1)^0,w,c
  1497   000674  1003               	iorwf	(?___llmod+2)^0,w,c
  1498   000676  1004               	iorwf	(?___llmod+3)^0,w,c
  1499   000678  A4D8               	btfss	status,2,c
  1500   00067A  EF41  F003         	goto	u901
  1501   00067E  EF43  F003         	goto	u900
  1502   000682                     u901:
  1503   000682  EF1D  F003         	goto	l1670
  1504   000686                     u900:
  1505   000686                     
  1506                           ;main.c: 130:             drawUi();
  1507   000686  EC09  F000         	call	_drawUi	;wreg free
  1508   00068A                     
  1509                           ;main.c: 131:             updateDisplay();
  1510   00068A  ECDE  F003         	call	_updateDisplay	;wreg free
  1511   00068E  EF1D  F003         	goto	l1670
  1512   000692  EF07  F000         	goto	start
  1513   000696                     __end_of_main:
  1514                           	callstack 0
  1515                           
  1516 ;; *************** function _updateDisplay *****************
  1517 ;; Defined at:
  1518 ;;		line 193 in file "moduleDogm128.c"
  1519 ;; Parameters:    Size  Location     Type
  1520 ;;		None
  1521 ;; Auto vars:     Size  Location     Type
  1522 ;;  col             1    6[COMRAM] unsigned char 
  1523 ;;  pg              1    7[COMRAM] unsigned char 
  1524 ;; Return value:  Size  Location     Type
  1525 ;;                  1    wreg      void 
  1526 ;; Registers used:
  1527 ;;		wreg, fsr2l, fsr2h, status,2, status,0, prodl, prodh, cstack
  1528 ;; Tracked objects:
  1529 ;;		On entry : 0/0
  1530 ;;		On exit  : 0/0
  1531 ;;		Unchanged: 0/0
  1532 ;; Data sizes:     COMRAM   BANK0   BANK1   BANK2   BANK3   BANK4   BANK5   BANK6   BANK7
  1533 ;;      Params:         0       0       0       0       0       0       0       0       0
  1534 ;;      Locals:         2       0       0       0       0       0       0       0       0
  1535 ;;      Temps:          2       0       0       0       0       0       0       0       0
  1536 ;;      Totals:         4       0       0       0       0       0       0       0       0
  1537 ;;Total ram usage:        4 bytes
  1538 ;; Hardware stack levels used: 1
  1539 ;; Hardware stack levels required when called: 4
  1540 ;; This function calls:
  1541 ;;		_sendDataToDisplay
  1542 ;;		_setColumnAddress
  1543 ;;		_setPageAddress
  1544 ;; This function is called by:
  1545 ;;		_main
  1546 ;; This function uses a non-reentrant model
  1547 ;;
  1548                           
  1549                           	psect	text1
  1550   0007BC                     __ptext1:
  1551                           	callstack 0
  1552   0007BC                     _updateDisplay:
  1553                           	callstack 26
  1554   0007BC                     
  1555                           ;moduleDogm128.c: 195:     for (uint8_t pg = 0; pg < 8; pg++)
  1556   0007BC  6A08               	clrf	updateDisplay@pg^0,c
  1557   0007BE                     l1338:
  1558                           
  1559                           ;moduleDogm128.c: 196:     {;moduleDogm128.c: 197:         setColumnAddress(0);
  1560   0007BE  0E00               	movlw	0
  1561   0007C0  EC9B  F004         	call	_setColumnAddress
  1562                           
  1563                           ;moduleDogm128.c: 198:         setPageAddress(pg);
  1564   0007C4  5008               	movf	updateDisplay@pg^0,w,c
  1565   0007C6  ECB4  F004         	call	_setPageAddress
  1566   0007CA                     
  1567                           ;moduleDogm128.c: 200:         for (uint8_t col = 0; col < 128; col++)
  1568   0007CA  6A07               	clrf	updateDisplay@col^0,c
  1569   0007CC                     l1346:
  1570                           
  1571                           ;moduleDogm128.c: 201:         {;moduleDogm128.c: 202:             sendDataToDisplay(dis
      +                          playBuffer[pg][col]);
  1572   0007CC  5008               	movf	updateDisplay@pg^0,w,c
  1573   0007CE  0D80               	mullw	128
  1574   0007D0  0E00               	movlw	low _displayBuffer
  1575   0007D2  24F3               	addwf	243,w,c
  1576   0007D4  6E05               	movwf	??_updateDisplay^0,c
  1577   0007D6  0E04               	movlw	high _displayBuffer
  1578   0007D8  20F4               	addwfc	prodh,w,c
  1579   0007DA  6E06               	movwf	(??_updateDisplay+1)^0,c
  1580   0007DC  5007               	movf	updateDisplay@col^0,w,c
  1581   0007DE  2405               	addwf	??_updateDisplay^0,w,c
  1582   0007E0  6ED9               	movwf	fsr2l,c
  1583   0007E2  0E00               	movlw	0
  1584   0007E4  2006               	addwfc	(??_updateDisplay+1)^0,w,c
  1585   0007E6  6EDA               	movwf	fsr2h,c
  1586   0007E8  50DF               	movf	indf2,w,c
  1587   0007EA  ECE9  F004         	call	_sendDataToDisplay
  1588   0007EE                     
  1589                           ;moduleDogm128.c: 203:         }
  1590   0007EE  2A07               	incf	updateDisplay@col^0,f,c
  1591   0007F0  0E7F               	movlw	127
  1592   0007F2  6407               	cpfsgt	updateDisplay@col^0,c
  1593   0007F4  EFFE  F003         	goto	u411
  1594   0007F8  EF00  F004         	goto	u410
  1595   0007FC                     u411:
  1596   0007FC  EFE6  F003         	goto	l1346
  1597   000800                     u410:
  1598   000800                     
  1599                           ;moduleDogm128.c: 204:     }
  1600   000800  2A08               	incf	updateDisplay@pg^0,f,c
  1601   000802  0E07               	movlw	7
  1602   000804  6408               	cpfsgt	updateDisplay@pg^0,c
  1603   000806  EF07  F004         	goto	u421
  1604   00080A  EF09  F004         	goto	u420
  1605   00080E                     u421:
  1606   00080E  EFDF  F003         	goto	l1338
  1607   000812                     u420:
  1608   000812  0012               	return		;funcret
  1609   000814                     __end_of_updateDisplay:
  1610                           	callstack 0
  1611                           
  1612 ;; *************** function _setTimer2 *****************
  1613 ;; Defined at:
  1614 ;;		line 207 in file "main.c"
  1615 ;; Parameters:    Size  Location     Type
  1616 ;;		None
  1617 ;; Auto vars:     Size  Location     Type
  1618 ;;		None
  1619 ;; Return value:  Size  Location     Type
  1620 ;;                  1    wreg      void 
  1621 ;; Registers used:
  1622 ;;		wreg, status,2
  1623 ;; Tracked objects:
  1624 ;;		On entry : 0/0
  1625 ;;		On exit  : 0/0
  1626 ;;		Unchanged: 0/0
  1627 ;; Data sizes:     COMRAM   BANK0   BANK1   BANK2   BANK3   BANK4   BANK5   BANK6   BANK7
  1628 ;;      Params:         0       0       0       0       0       0       0       0       0
  1629 ;;      Locals:         0       0       0       0       0       0       0       0       0
  1630 ;;      Temps:          0       0       0       0       0       0       0       0       0
  1631 ;;      Totals:         0       0       0       0       0       0       0       0       0
  1632 ;;Total ram usage:        0 bytes
  1633 ;; Hardware stack levels used: 1
  1634 ;; Hardware stack levels required when called: 1
  1635 ;; This function calls:
  1636 ;;		Nothing
  1637 ;; This function is called by:
  1638 ;;		_main
  1639 ;; This function uses a non-reentrant model
  1640 ;;
  1641                           
  1642                           	psect	text2
  1643   0009F8                     __ptext2:
  1644                           	callstack 0
  1645   0009F8                     _setTimer2:
  1646                           	callstack 29
  1647   0009F8                     
  1648                           ;main.c: 209:     T2CON = 0x1F;
  1649   0009F8  0E1F               	movlw	31
  1650   0009FA  6ECA               	movwf	202,c	;volatile
  1651                           
  1652                           ;main.c: 210:     PR2 = 187;
  1653   0009FC  0EBB               	movlw	187
  1654   0009FE  6ECB               	movwf	203,c	;volatile
  1655   000A00                     
  1656                           ;main.c: 211:     PIR1bits.TMR2IF = 0;
  1657   000A00  929E               	bcf	158,1,c	;volatile
  1658   000A02                     
  1659                           ;main.c: 212:     PIE1bits.TMR2IE = 1;
  1660   000A02  829D               	bsf	157,1,c	;volatile
  1661   000A04  0012               	return		;funcret
  1662   000A06                     __end_of_setTimer2:
  1663                           	callstack 0
  1664                           
  1665 ;; *************** function _setTimer0 *****************
  1666 ;; Defined at:
  1667 ;;		line 197 in file "main.c"
  1668 ;; Parameters:    Size  Location     Type
  1669 ;;		None
  1670 ;; Auto vars:     Size  Location     Type
  1671 ;;		None
  1672 ;; Return value:  Size  Location     Type
  1673 ;;                  1    wreg      void 
  1674 ;; Registers used:
  1675 ;;		wreg, status,2
  1676 ;; Tracked objects:
  1677 ;;		On entry : 0/0
  1678 ;;		On exit  : 0/0
  1679 ;;		Unchanged: 0/0
  1680 ;; Data sizes:     COMRAM   BANK0   BANK1   BANK2   BANK3   BANK4   BANK5   BANK6   BANK7
  1681 ;;      Params:         0       0       0       0       0       0       0       0       0
  1682 ;;      Locals:         0       0       0       0       0       0       0       0       0
  1683 ;;      Temps:          0       0       0       0       0       0       0       0       0
  1684 ;;      Totals:         0       0       0       0       0       0       0       0       0
  1685 ;;Total ram usage:        0 bytes
  1686 ;; Hardware stack levels used: 1
  1687 ;; Hardware stack levels required when called: 1
  1688 ;; This function calls:
  1689 ;;		Nothing
  1690 ;; This function is called by:
  1691 ;;		_main
  1692 ;; This function uses a non-reentrant model
  1693 ;;
  1694                           
  1695                           	psect	text3
  1696   0009E6                     __ptext3:
  1697                           	callstack 0
  1698   0009E6                     _setTimer0:
  1699                           	callstack 29
  1700   0009E6                     
  1701                           ;main.c: 199:     T0CON = 0xC3;
  1702   0009E6  0EC3               	movlw	195
  1703   0009E8  6ED5               	movwf	213,c	;volatile
  1704                           
  1705                           ;main.c: 200:     TMR0 = 0;
  1706   0009EA  0E00               	movlw	0
  1707   0009EC  6ED7               	movwf	215,c	;volatile
  1708   0009EE  0E00               	movlw	0
  1709   0009F0  6ED6               	movwf	214,c	;volatile
  1710   0009F2                     
  1711                           ;main.c: 201:     INTCONbits.TMR0IF = 0;
  1712   0009F2  94F2               	bcf	242,2,c	;volatile
  1713   0009F4                     
  1714                           ;main.c: 202:     INTCONbits.TMR0IE = 1;
  1715   0009F4  8AF2               	bsf	242,5,c	;volatile
  1716   0009F6  0012               	return		;funcret
  1717   0009F8                     __end_of_setTimer0:
  1718                           	callstack 0
  1719                           
  1720 ;; *************** function _setPinout *****************
  1721 ;; Defined at:
  1722 ;;		line 175 in file "main.c"
  1723 ;; Parameters:    Size  Location     Type
  1724 ;;		None
  1725 ;; Auto vars:     Size  Location     Type
  1726 ;;		None
  1727 ;; Return value:  Size  Location     Type
  1728 ;;                  1    wreg      void 
  1729 ;; Registers used:
  1730 ;;		wreg, status,2
  1731 ;; Tracked objects:
  1732 ;;		On entry : 0/0
  1733 ;;		On exit  : 0/0
  1734 ;;		Unchanged: 0/0
  1735 ;; Data sizes:     COMRAM   BANK0   BANK1   BANK2   BANK3   BANK4   BANK5   BANK6   BANK7
  1736 ;;      Params:         0       0       0       0       0       0       0       0       0
  1737 ;;      Locals:         0       0       0       0       0       0       0       0       0
  1738 ;;      Temps:          0       0       0       0       0       0       0       0       0
  1739 ;;      Totals:         0       0       0       0       0       0       0       0       0
  1740 ;;Total ram usage:        0 bytes
  1741 ;; Hardware stack levels used: 1
  1742 ;; Hardware stack levels required when called: 1
  1743 ;; This function calls:
  1744 ;;		Nothing
  1745 ;; This function is called by:
  1746 ;;		_main
  1747 ;; This function uses a non-reentrant model
  1748 ;;
  1749                           
  1750                           	psect	text4
  1751   000A06                     __ptext4:
  1752                           	callstack 0
  1753   000A06                     _setPinout:
  1754                           	callstack 29
  1755   000A06                     
  1756                           ;main.c: 177:     TRISA = 0;
  1757   000A06  6A92               	clrf	146,c	;volatile
  1758   000A08                     
  1759                           ;main.c: 178:     TRISB = 0x3D;
  1760   000A08  0E3D               	movlw	61
  1761   000A0A  6E93               	movwf	147,c	;volatile
  1762   000A0C                     
  1763                           ;main.c: 179:     TRISC = 0;
  1764   000A0C  6A94               	clrf	148,c	;volatile
  1765   000A0E                     
  1766                           ;main.c: 180:     TRISD = 0;
  1767   000A0E  6A95               	clrf	149,c	;volatile
  1768   000A10                     
  1769                           ;main.c: 181:     TRISE = 0;
  1770   000A10  6A96               	clrf	150,c	;volatile
  1771   000A12  0012               	return		;funcret
  1772   000A14                     __end_of_setPinout:
  1773                           	callstack 0
  1774                           
  1775 ;; *************** function _setInterrupt *****************
  1776 ;; Defined at:
  1777 ;;		line 167 in file "main.c"
  1778 ;; Parameters:    Size  Location     Type
  1779 ;;		None
  1780 ;; Auto vars:     Size  Location     Type
  1781 ;;		None
  1782 ;; Return value:  Size  Location     Type
  1783 ;;                  1    wreg      void 
  1784 ;; Registers used:
  1785 ;;		None
  1786 ;; Tracked objects:
  1787 ;;		On entry : 0/0
  1788 ;;		On exit  : 0/0
  1789 ;;		Unchanged: 0/0
  1790 ;; Data sizes:     COMRAM   BANK0   BANK1   BANK2   BANK3   BANK4   BANK5   BANK6   BANK7
  1791 ;;      Params:         0       0       0       0       0       0       0       0       0
  1792 ;;      Locals:         0       0       0       0       0       0       0       0       0
  1793 ;;      Temps:          0       0       0       0       0       0       0       0       0
  1794 ;;      Totals:         0       0       0       0       0       0       0       0       0
  1795 ;;Total ram usage:        0 bytes
  1796 ;; Hardware stack levels used: 1
  1797 ;; Hardware stack levels required when called: 1
  1798 ;; This function calls:
  1799 ;;		Nothing
  1800 ;; This function is called by:
  1801 ;;		_main
  1802 ;; This function uses a non-reentrant model
  1803 ;;
  1804                           
  1805                           	psect	text5
  1806   000A2E                     __ptext5:
  1807                           	callstack 0
  1808   000A2E                     _setInterrupt:
  1809                           	callstack 29
  1810   000A2E                     
  1811                           ;main.c: 169:     INTCONbits.PEIE = 1;
  1812   000A2E  8CF2               	bsf	242,6,c	;volatile
  1813                           
  1814                           ;main.c: 170:     INTCONbits.GIE = 1;
  1815   000A30  8EF2               	bsf	242,7,c	;volatile
  1816   000A32  0012               	return		;funcret
  1817   000A34                     __end_of_setInterrupt:
  1818                           	callstack 0
  1819                           
  1820 ;; *************** function _initDisplay *****************
  1821 ;; Defined at:
  1822 ;;		line 24 in file "moduleDogm128.c"
  1823 ;; Parameters:    Size  Location     Type
  1824 ;;		None
  1825 ;; Auto vars:     Size  Location     Type
  1826 ;;		None
  1827 ;; Return value:  Size  Location     Type
  1828 ;;                  1    wreg      void 
  1829 ;; Registers used:
  1830 ;;		wreg, status,2, status,0, cstack
  1831 ;; Tracked objects:
  1832 ;;		On entry : 0/0
  1833 ;;		On exit  : 0/0
  1834 ;;		Unchanged: 0/0
  1835 ;; Data sizes:     COMRAM   BANK0   BANK1   BANK2   BANK3   BANK4   BANK5   BANK6   BANK7
  1836 ;;      Params:         0       0       0       0       0       0       0       0       0
  1837 ;;      Locals:         0       0       0       0       0       0       0       0       0
  1838 ;;      Temps:          0       0       0       0       0       0       0       0       0
  1839 ;;      Totals:         0       0       0       0       0       0       0       0       0
  1840 ;;Total ram usage:        0 bytes
  1841 ;; Hardware stack levels used: 1
  1842 ;; Hardware stack levels required when called: 6
  1843 ;; This function calls:
  1844 ;;		_clearAllDisplay
  1845 ;;		_initSpi
  1846 ;;		_sendCommandToDisplay
  1847 ;; This function is called by:
  1848 ;;		_main
  1849 ;; This function uses a non-reentrant model
  1850 ;;
  1851                           
  1852                           	psect	text6
  1853   000700                     __ptext6:
  1854                           	callstack 0
  1855   000700                     _initDisplay:
  1856                           	callstack 24
  1857   000700                     
  1858                           ;moduleDogm128.c: 26:     initSpi();
  1859   000700  EC0A  F005         	call	_initSpi	;wreg free
  1860   000704                     
  1861                           ;moduleDogm128.c: 27:     (LATC |= (1<<2));
  1862   000704  848B               	bsf	139,2,c	;volatile
  1863   000706                     
  1864                           ;moduleDogm128.c: 28:     (LATC |= (1<<1));
  1865   000706  828B               	bsf	139,1,c	;volatile
  1866   000708                     
  1867                           ;moduleDogm128.c: 31:     sendCommandToDisplay(0x40);
  1868   000708  0E40               	movlw	64
  1869   00070A  ECDF  F004         	call	_sendCommandToDisplay
  1870   00070E                     
  1871                           ;moduleDogm128.c: 32:     sendCommandToDisplay(0xA1);
  1872   00070E  0EA1               	movlw	161
  1873   000710  ECDF  F004         	call	_sendCommandToDisplay
  1874   000714                     
  1875                           ;moduleDogm128.c: 33:     sendCommandToDisplay(0xC0);
  1876   000714  0EC0               	movlw	192
  1877   000716  ECDF  F004         	call	_sendCommandToDisplay
  1878   00071A                     
  1879                           ;moduleDogm128.c: 34:     sendCommandToDisplay(0xA6);
  1880   00071A  0EA6               	movlw	166
  1881   00071C  ECDF  F004         	call	_sendCommandToDisplay
  1882   000720                     
  1883                           ;moduleDogm128.c: 35:     sendCommandToDisplay(0xA2);
  1884   000720  0EA2               	movlw	162
  1885   000722  ECDF  F004         	call	_sendCommandToDisplay
  1886   000726                     
  1887                           ;moduleDogm128.c: 36:     sendCommandToDisplay(0x2F);
  1888   000726  0E2F               	movlw	47
  1889   000728  ECDF  F004         	call	_sendCommandToDisplay
  1890   00072C                     
  1891                           ;moduleDogm128.c: 37:     sendCommandToDisplay(0xF8);
  1892   00072C  0EF8               	movlw	248
  1893   00072E  ECDF  F004         	call	_sendCommandToDisplay
  1894   000732                     
  1895                           ;moduleDogm128.c: 38:     sendCommandToDisplay(0x00);
  1896   000732  0E00               	movlw	0
  1897   000734  ECDF  F004         	call	_sendCommandToDisplay
  1898   000738                     
  1899                           ;moduleDogm128.c: 39:     sendCommandToDisplay(0x27);
  1900   000738  0E27               	movlw	39
  1901   00073A  ECDF  F004         	call	_sendCommandToDisplay
  1902   00073E                     
  1903                           ;moduleDogm128.c: 40:     sendCommandToDisplay(0x81);
  1904   00073E  0E81               	movlw	129
  1905   000740  ECDF  F004         	call	_sendCommandToDisplay
  1906   000744                     
  1907                           ;moduleDogm128.c: 41:     sendCommandToDisplay(0x16);
  1908   000744  0E16               	movlw	22
  1909   000746  ECDF  F004         	call	_sendCommandToDisplay
  1910   00074A                     
  1911                           ;moduleDogm128.c: 42:     sendCommandToDisplay(0xAC);
  1912   00074A  0EAC               	movlw	172
  1913   00074C  ECDF  F004         	call	_sendCommandToDisplay
  1914   000750                     
  1915                           ;moduleDogm128.c: 43:     sendCommandToDisplay(0x00);
  1916   000750  0E00               	movlw	0
  1917   000752  ECDF  F004         	call	_sendCommandToDisplay
  1918   000756                     
  1919                           ;moduleDogm128.c: 44:     sendCommandToDisplay(0xAF);
  1920   000756  0EAF               	movlw	175
  1921   000758  ECDF  F004         	call	_sendCommandToDisplay
  1922   00075C                     
  1923                           ;moduleDogm128.c: 46:     clearAllDisplay();
  1924   00075C  ECC4  F004         	call	_clearAllDisplay	;wreg free
  1925   000760  0012               	return		;funcret
  1926   000762                     __end_of_initDisplay:
  1927                           	callstack 0
  1928                           
  1929 ;; *************** function _initSpi *****************
  1930 ;; Defined at:
  1931 ;;		line 13 in file "spi.c"
  1932 ;; Parameters:    Size  Location     Type
  1933 ;;		None
  1934 ;; Auto vars:     Size  Location     Type
  1935 ;;		None
  1936 ;; Return value:  Size  Location     Type
  1937 ;;                  1    wreg      void 
  1938 ;; Registers used:
  1939 ;;		wreg, status,2
  1940 ;; Tracked objects:
  1941 ;;		On entry : 0/0
  1942 ;;		On exit  : 0/0
  1943 ;;		Unchanged: 0/0
  1944 ;; Data sizes:     COMRAM   BANK0   BANK1   BANK2   BANK3   BANK4   BANK5   BANK6   BANK7
  1945 ;;      Params:         0       0       0       0       0       0       0       0       0
  1946 ;;      Locals:         0       0       0       0       0       0       0       0       0
  1947 ;;      Temps:          0       0       0       0       0       0       0       0       0
  1948 ;;      Totals:         0       0       0       0       0       0       0       0       0
  1949 ;;Total ram usage:        0 bytes
  1950 ;; Hardware stack levels used: 1
  1951 ;; Hardware stack levels required when called: 1
  1952 ;; This function calls:
  1953 ;;		Nothing
  1954 ;; This function is called by:
  1955 ;;		_initDisplay
  1956 ;; This function uses a non-reentrant model
  1957 ;;
  1958                           
  1959                           	psect	text7
  1960   000A14                     __ptext7:
  1961                           	callstack 0
  1962   000A14                     _initSpi:
  1963                           	callstack 28
  1964   000A14                     
  1965                           ;spi.c: 15:     SSPSTAT = 0x00;
  1966   000A14  6AC7               	clrf	199,c	;volatile
  1967   000A16                     
  1968                           ;spi.c: 16:     SSPCON1 = 0x10;
  1969   000A16  0E10               	movlw	16
  1970   000A18  6EC6               	movwf	198,c	;volatile
  1971   000A1A                     
  1972                           ;spi.c: 17:     SSPCON1bits.SSPEN = 1;
  1973   000A1A  8AC6               	bsf	198,5,c	;volatile
  1974   000A1C                     
  1975                           ;spi.c: 18:     PIR1bits.SSPIF = 0;
  1976   000A1C  969E               	bcf	158,3,c	;volatile
  1977   000A1E                     
  1978                           ;spi.c: 19:     PIE1bits.SSPIE = 0;
  1979   000A1E  969D               	bcf	157,3,c	;volatile
  1980   000A20  0012               	return		;funcret
  1981   000A22                     __end_of_initSpi:
  1982                           	callstack 0
  1983                           
  1984 ;; *************** function _clearAllDisplay *****************
  1985 ;; Defined at:
  1986 ;;		line 51 in file "moduleDogm128.c"
  1987 ;; Parameters:    Size  Location     Type
  1988 ;;		None
  1989 ;; Auto vars:     Size  Location     Type
  1990 ;;  pg              1    7[COMRAM] unsigned char 
  1991 ;; Return value:  Size  Location     Type
  1992 ;;                  1    wreg      void 
  1993 ;; Registers used:
  1994 ;;		wreg, status,2, status,0, cstack
  1995 ;; Tracked objects:
  1996 ;;		On entry : 0/0
  1997 ;;		On exit  : 0/0
  1998 ;;		Unchanged: 0/0
  1999 ;; Data sizes:     COMRAM   BANK0   BANK1   BANK2   BANK3   BANK4   BANK5   BANK6   BANK7
  2000 ;;      Params:         0       0       0       0       0       0       0       0       0
  2001 ;;      Locals:         1       0       0       0       0       0       0       0       0
  2002 ;;      Temps:          0       0       0       0       0       0       0       0       0
  2003 ;;      Totals:         1       0       0       0       0       0       0       0       0
  2004 ;;Total ram usage:        1 bytes
  2005 ;; Hardware stack levels used: 1
  2006 ;; Hardware stack levels required when called: 5
  2007 ;; This function calls:
  2008 ;;		_clearPageDisplay
  2009 ;; This function is called by:
  2010 ;;		_initDisplay
  2011 ;; This function uses a non-reentrant model
  2012 ;;
  2013                           
  2014                           	psect	text8
  2015   000988                     __ptext8:
  2016                           	callstack 0
  2017   000988                     _clearAllDisplay:
  2018                           	callstack 24
  2019   000988                     
  2020                           ;moduleDogm128.c: 53:     unsigned char pg;;moduleDogm128.c: 54:     for(pg=0; pg<8; pg+
      +                          +)
  2021   000988  6A08               	clrf	clearAllDisplay@pg^0,c
  2022   00098A                     l1192:
  2023                           
  2024                           ;moduleDogm128.c: 55:     {;moduleDogm128.c: 56:         clearPageDisplay(pg);
  2025   00098A  5008               	movf	clearAllDisplay@pg^0,w,c
  2026   00098C  EC7C  F004         	call	_clearPageDisplay
  2027   000990                     
  2028                           ;moduleDogm128.c: 57:     }
  2029   000990  2A08               	incf	clearAllDisplay@pg^0,f,c
  2030   000992  0E07               	movlw	7
  2031   000994  6408               	cpfsgt	clearAllDisplay@pg^0,c
  2032   000996  EFCF  F004         	goto	u301
  2033   00099A  EFD1  F004         	goto	u300
  2034   00099E                     u301:
  2035   00099E  EFC5  F004         	goto	l1192
  2036   0009A2                     u300:
  2037   0009A2  0012               	return		;funcret
  2038   0009A4                     __end_of_clearAllDisplay:
  2039                           	callstack 0
  2040                           
  2041 ;; *************** function _clearPageDisplay *****************
  2042 ;; Defined at:
  2043 ;;		line 62 in file "moduleDogm128.c"
  2044 ;; Parameters:    Size  Location     Type
  2045 ;;  page            1    wreg     unsigned char 
  2046 ;; Auto vars:     Size  Location     Type
  2047 ;;  page            1    4[COMRAM] unsigned char 
  2048 ;;  cl              2    5[COMRAM] int 
  2049 ;; Return value:  Size  Location     Type
  2050 ;;                  1    wreg      void 
  2051 ;; Registers used:
  2052 ;;		wreg, status,2, status,0, cstack
  2053 ;; Tracked objects:
  2054 ;;		On entry : 0/0
  2055 ;;		On exit  : 0/0
  2056 ;;		Unchanged: 0/0
  2057 ;; Data sizes:     COMRAM   BANK0   BANK1   BANK2   BANK3   BANK4   BANK5   BANK6   BANK7
  2058 ;;      Params:         0       0       0       0       0       0       0       0       0
  2059 ;;      Locals:         3       0       0       0       0       0       0       0       0
  2060 ;;      Temps:          0       0       0       0       0       0       0       0       0
  2061 ;;      Totals:         3       0       0       0       0       0       0       0       0
  2062 ;;Total ram usage:        3 bytes
  2063 ;; Hardware stack levels used: 1
  2064 ;; Hardware stack levels required when called: 4
  2065 ;; This function calls:
  2066 ;;		_sendDataToDisplay
  2067 ;;		_setColumnAddress
  2068 ;;		_setPageAddress
  2069 ;; This function is called by:
  2070 ;;		_clearAllDisplay
  2071 ;; This function uses a non-reentrant model
  2072 ;;
  2073                           
  2074                           	psect	text9
  2075   0008F8                     __ptext9:
  2076                           	callstack 0
  2077   0008F8                     _clearPageDisplay:
  2078                           	callstack 24
  2079                           
  2080                           ;incstack = 0
  2081                           ;clearPageDisplay@page stored from wreg
  2082   0008F8  6E05               	movwf	clearPageDisplay@page^0,c
  2083   0008FA                     
  2084                           ;moduleDogm128.c: 62: void clearPageDisplay(unsigned char page);moduleDogm128.c: 63: {;m
      +                          oduleDogm128.c: 64:     int cl;;moduleDogm128.c: 65:     setColumnAddress(0);
  2085   0008FA  0E00               	movlw	0
  2086   0008FC  EC9B  F004         	call	_setColumnAddress
  2087                           
  2088                           ;moduleDogm128.c: 66:     setPageAddress(page);
  2089   000900  5005               	movf	clearPageDisplay@page^0,w,c
  2090   000902  ECB4  F004         	call	_setPageAddress
  2091   000906                     
  2092                           ;moduleDogm128.c: 67:     for(cl=0; cl<128;cl++)
  2093   000906  0E00               	movlw	0
  2094   000908  6E07               	movwf	(clearPageDisplay@cl+1)^0,c
  2095   00090A  0E00               	movlw	0
  2096   00090C  6E06               	movwf	clearPageDisplay@cl^0,c
  2097   00090E                     l1024:
  2098                           
  2099                           ;moduleDogm128.c: 68:     {;moduleDogm128.c: 69:         sendDataToDisplay(0x00);
  2100   00090E  0E00               	movlw	0
  2101   000910  ECE9  F004         	call	_sendDataToDisplay
  2102   000914                     
  2103                           ;moduleDogm128.c: 70:     }
  2104   000914  4A06               	infsnz	clearPageDisplay@cl^0,f,c
  2105   000916  2A07               	incf	(clearPageDisplay@cl+1)^0,f,c
  2106   000918  BE07               	btfsc	(clearPageDisplay@cl+1)^0,7,c
  2107   00091A  EF98  F004         	goto	u41
  2108   00091E  5007               	movf	(clearPageDisplay@cl+1)^0,w,c
  2109   000920  E109               	bnz	u40
  2110   000922  0E80               	movlw	128
  2111   000924  5C06               	subwf	clearPageDisplay@cl^0,w,c
  2112   000926  A0D8               	btfss	status,0,c
  2113   000928  EF98  F004         	goto	u41
  2114   00092C  EF9A  F004         	goto	u40
  2115   000930                     u41:
  2116   000930  EF87  F004         	goto	l1024
  2117   000934                     u40:
  2118   000934  0012               	return		;funcret
  2119   000936                     __end_of_clearPageDisplay:
  2120                           	callstack 0
  2121                           
  2122 ;; *************** function _setPageAddress *****************
  2123 ;; Defined at:
  2124 ;;		line 159 in file "moduleDogm128.c"
  2125 ;; Parameters:    Size  Location     Type
  2126 ;;  page            1    wreg     unsigned char 
  2127 ;; Auto vars:     Size  Location     Type
  2128 ;;  page            1    2[COMRAM] unsigned char 
  2129 ;; Return value:  Size  Location     Type
  2130 ;;                  1    wreg      void 
  2131 ;; Registers used:
  2132 ;;		wreg, status,2, status,0, cstack
  2133 ;; Tracked objects:
  2134 ;;		On entry : 0/0
  2135 ;;		On exit  : 0/0
  2136 ;;		Unchanged: 0/0
  2137 ;; Data sizes:     COMRAM   BANK0   BANK1   BANK2   BANK3   BANK4   BANK5   BANK6   BANK7
  2138 ;;      Params:         0       0       0       0       0       0       0       0       0
  2139 ;;      Locals:         1       0       0       0       0       0       0       0       0
  2140 ;;      Temps:          0       0       0       0       0       0       0       0       0
  2141 ;;      Totals:         1       0       0       0       0       0       0       0       0
  2142 ;;Total ram usage:        1 bytes
  2143 ;; Hardware stack levels used: 1
  2144 ;; Hardware stack levels required when called: 3
  2145 ;; This function calls:
  2146 ;;		_sendCommandToDisplay
  2147 ;; This function is called by:
  2148 ;;		_clearPageDisplay
  2149 ;;		_updateDisplay
  2150 ;;		_fillChessBoardDisplay
  2151 ;;		_writeTextToDisplay
  2152 ;; This function uses a non-reentrant model
  2153 ;;
  2154                           
  2155                           	psect	text10
  2156   000968                     __ptext10:
  2157                           	callstack 0
  2158   000968                     _setPageAddress:
  2159                           	callstack 26
  2160                           
  2161                           ;incstack = 0
  2162                           ;setPageAddress@page stored from wreg
  2163   000968  6E03               	movwf	setPageAddress@page^0,c
  2164   00096A                     
  2165                           ;moduleDogm128.c: 159: void setPageAddress(unsigned char page);moduleDogm128.c: 160: {;m
      +                          oduleDogm128.c: 161:     if(page > 7)
  2166   00096A  0E07               	movlw	7
  2167   00096C  6403               	cpfsgt	setPageAddress@page^0,c
  2168   00096E  EFBB  F004         	goto	u31
  2169   000972  EFBD  F004         	goto	u30
  2170   000976                     u31:
  2171   000976  EFBF  F004         	goto	l1004
  2172   00097A                     u30:
  2173   00097A                     
  2174                           ;moduleDogm128.c: 162:     {;moduleDogm128.c: 163:         page = 7;
  2175   00097A  0E07               	movlw	7
  2176   00097C  6E03               	movwf	setPageAddress@page^0,c
  2177   00097E                     l1004:
  2178                           
  2179                           ;moduleDogm128.c: 165:     sendCommandToDisplay(0xB0 | page);
  2180   00097E  5003               	movf	setPageAddress@page^0,w,c
  2181   000980  09B0               	iorlw	176
  2182   000982  ECDF  F004         	call	_sendCommandToDisplay
  2183   000986  0012               	return		;funcret
  2184   000988                     __end_of_setPageAddress:
  2185                           	callstack 0
  2186                           
  2187 ;; *************** function _setColumnAddress *****************
  2188 ;; Defined at:
  2189 ;;		line 144 in file "moduleDogm128.c"
  2190 ;; Parameters:    Size  Location     Type
  2191 ;;  column          1    wreg     unsigned char 
  2192 ;; Auto vars:     Size  Location     Type
  2193 ;;  column          1    3[COMRAM] unsigned char 
  2194 ;;  col             1    2[COMRAM] unsigned char 
  2195 ;; Return value:  Size  Location     Type
  2196 ;;                  1    wreg      void 
  2197 ;; Registers used:
  2198 ;;		wreg, status,2, status,0, cstack
  2199 ;; Tracked objects:
  2200 ;;		On entry : 0/0
  2201 ;;		On exit  : 0/0
  2202 ;;		Unchanged: 0/0
  2203 ;; Data sizes:     COMRAM   BANK0   BANK1   BANK2   BANK3   BANK4   BANK5   BANK6   BANK7
  2204 ;;      Params:         0       0       0       0       0       0       0       0       0
  2205 ;;      Locals:         2       0       0       0       0       0       0       0       0
  2206 ;;      Temps:          0       0       0       0       0       0       0       0       0
  2207 ;;      Totals:         2       0       0       0       0       0       0       0       0
  2208 ;;Total ram usage:        2 bytes
  2209 ;; Hardware stack levels used: 1
  2210 ;; Hardware stack levels required when called: 3
  2211 ;; This function calls:
  2212 ;;		_sendCommandToDisplay
  2213 ;; This function is called by:
  2214 ;;		_clearPageDisplay
  2215 ;;		_updateDisplay
  2216 ;;		_fillChessBoardDisplay
  2217 ;;		_writeTextToDisplay
  2218 ;; This function uses a non-reentrant model
  2219 ;;
  2220                           
  2221                           	psect	text11
  2222   000936                     __ptext11:
  2223                           	callstack 0
  2224   000936                     _setColumnAddress:
  2225                           	callstack 26
  2226                           
  2227                           ;incstack = 0
  2228                           ;setColumnAddress@column stored from wreg
  2229   000936  6E04               	movwf	setColumnAddress@column^0,c
  2230   000938                     
  2231                           ;moduleDogm128.c: 144: void setColumnAddress(unsigned char column);moduleDogm128.c: 145:
      +                           {;moduleDogm128.c: 146:     unsigned char col;;moduleDogm128.c: 147:     if(column > 12
      +                          7)
  2232   000938  0E7F               	movlw	127
  2233   00093A  6404               	cpfsgt	setColumnAddress@column^0,c
  2234   00093C  EFA2  F004         	goto	u21
  2235   000940  EFA4  F004         	goto	u20
  2236   000944                     u21:
  2237   000944  EFA6  F004         	goto	l992
  2238   000948                     u20:
  2239   000948                     
  2240                           ;moduleDogm128.c: 148:     {;moduleDogm128.c: 149:         column = 127;
  2241   000948  0E7F               	movlw	127
  2242   00094A  6E04               	movwf	setColumnAddress@column^0,c
  2243   00094C                     l992:
  2244                           
  2245                           ;moduleDogm128.c: 151:     col = (column & 0x0F) | 0x00;
  2246   00094C  5004               	movf	setColumnAddress@column^0,w,c
  2247   00094E  0B0F               	andlw	15
  2248   000950  6E03               	movwf	setColumnAddress@col^0,c
  2249   000952                     
  2250                           ;moduleDogm128.c: 152:     sendCommandToDisplay(col);
  2251   000952  5003               	movf	setColumnAddress@col^0,w,c
  2252   000954  ECDF  F004         	call	_sendCommandToDisplay
  2253   000958                     
  2254                           ;moduleDogm128.c: 153:     col = (column >> 4) | 0x10;
  2255   000958  3804               	swapf	setColumnAddress@column^0,w,c
  2256   00095A  0B0F               	andlw	15
  2257   00095C  0910               	iorlw	16
  2258   00095E  6E03               	movwf	setColumnAddress@col^0,c
  2259   000960                     
  2260                           ;moduleDogm128.c: 154:     sendCommandToDisplay(col);
  2261   000960  5003               	movf	setColumnAddress@col^0,w,c
  2262   000962  ECDF  F004         	call	_sendCommandToDisplay
  2263   000966  0012               	return		;funcret
  2264   000968                     __end_of_setColumnAddress:
  2265                           	callstack 0
  2266                           
  2267 ;; *************** function _sendCommandToDisplay *****************
  2268 ;; Defined at:
  2269 ;;		line 120 in file "moduleDogm128.c"
  2270 ;; Parameters:    Size  Location     Type
  2271 ;;  comm            1    wreg     unsigned char 
  2272 ;; Auto vars:     Size  Location     Type
  2273 ;;  comm            1    1[COMRAM] unsigned char 
  2274 ;; Return value:  Size  Location     Type
  2275 ;;                  1    wreg      void 
  2276 ;; Registers used:
  2277 ;;		wreg, status,2, status,0, cstack
  2278 ;; Tracked objects:
  2279 ;;		On entry : 0/0
  2280 ;;		On exit  : 0/0
  2281 ;;		Unchanged: 0/0
  2282 ;; Data sizes:     COMRAM   BANK0   BANK1   BANK2   BANK3   BANK4   BANK5   BANK6   BANK7
  2283 ;;      Params:         0       0       0       0       0       0       0       0       0
  2284 ;;      Locals:         1       0       0       0       0       0       0       0       0
  2285 ;;      Temps:          0       0       0       0       0       0       0       0       0
  2286 ;;      Totals:         1       0       0       0       0       0       0       0       0
  2287 ;;Total ram usage:        1 bytes
  2288 ;; Hardware stack levels used: 1
  2289 ;; Hardware stack levels required when called: 2
  2290 ;; This function calls:
  2291 ;;		_sendByteSpi
  2292 ;; This function is called by:
  2293 ;;		_initDisplay
  2294 ;;		_setColumnAddress
  2295 ;;		_setPageAddress
  2296 ;; This function uses a non-reentrant model
  2297 ;;
  2298                           
  2299                           	psect	text12
  2300   0009BE                     __ptext12:
  2301                           	callstack 0
  2302   0009BE                     _sendCommandToDisplay:
  2303                           	callstack 26
  2304                           
  2305                           ;incstack = 0
  2306                           ;sendCommandToDisplay@comm stored from wreg
  2307   0009BE  6E02               	movwf	sendCommandToDisplay@comm^0,c
  2308   0009C0                     
  2309                           ;moduleDogm128.c: 120: void sendCommandToDisplay(unsigned char comm);moduleDogm128.c: 12
      +                          1: {;moduleDogm128.c: 122:     (LATD &= ~(1<<0));
  2310   0009C0  908C               	bcf	140,0,c	;volatile
  2311                           
  2312                           ;moduleDogm128.c: 123:     (LATC &= ~(1<<0));
  2313   0009C2  908B               	bcf	139,0,c	;volatile
  2314   0009C4                     
  2315                           ;moduleDogm128.c: 124:     __nop();
  2316   0009C4  0000               	nop	
  2317   0009C6                     
  2318                           ;moduleDogm128.c: 125:     sendByteSpi(comm);
  2319   0009C6  5002               	movf	sendCommandToDisplay@comm^0,w,c
  2320   0009C8  ECD2  F004         	call	_sendByteSpi
  2321   0009CC                     
  2322                           ;moduleDogm128.c: 126:     __nop();
  2323   0009CC  0000               	nop	
  2324   0009CE                     
  2325                           ;moduleDogm128.c: 127:     (LATC |= (1<<0));
  2326   0009CE  808B               	bsf	139,0,c	;volatile
  2327   0009D0  0012               	return		;funcret
  2328   0009D2                     __end_of_sendCommandToDisplay:
  2329                           	callstack 0
  2330                           
  2331 ;; *************** function _sendDataToDisplay *****************
  2332 ;; Defined at:
  2333 ;;		line 132 in file "moduleDogm128.c"
  2334 ;; Parameters:    Size  Location     Type
  2335 ;;  dat             1    wreg     unsigned char 
  2336 ;; Auto vars:     Size  Location     Type
  2337 ;;  dat             1    1[COMRAM] unsigned char 
  2338 ;; Return value:  Size  Location     Type
  2339 ;;                  1    wreg      void 
  2340 ;; Registers used:
  2341 ;;		wreg, status,2, status,0, cstack
  2342 ;; Tracked objects:
  2343 ;;		On entry : 0/0
  2344 ;;		On exit  : 0/0
  2345 ;;		Unchanged: 0/0
  2346 ;; Data sizes:     COMRAM   BANK0   BANK1   BANK2   BANK3   BANK4   BANK5   BANK6   BANK7
  2347 ;;      Params:         0       0       0       0       0       0       0       0       0
  2348 ;;      Locals:         1       0       0       0       0       0       0       0       0
  2349 ;;      Temps:          0       0       0       0       0       0       0       0       0
  2350 ;;      Totals:         1       0       0       0       0       0       0       0       0
  2351 ;;Total ram usage:        1 bytes
  2352 ;; Hardware stack levels used: 1
  2353 ;; Hardware stack levels required when called: 2
  2354 ;; This function calls:
  2355 ;;		_sendByteSpi
  2356 ;; This function is called by:
  2357 ;;		_clearPageDisplay
  2358 ;;		_updateDisplay
  2359 ;;		_fillChessBoardDisplay
  2360 ;;		_writeTextToDisplay
  2361 ;; This function uses a non-reentrant model
  2362 ;;
  2363                           
  2364                           	psect	text13
  2365   0009D2                     __ptext13:
  2366                           	callstack 0
  2367   0009D2                     _sendDataToDisplay:
  2368                           	callstack 27
  2369                           
  2370                           ;incstack = 0
  2371                           ;sendDataToDisplay@dat stored from wreg
  2372   0009D2  6E02               	movwf	sendDataToDisplay@dat^0,c
  2373   0009D4                     
  2374                           ;moduleDogm128.c: 132: void sendDataToDisplay(unsigned char dat);moduleDogm128.c: 133: {
      +                          ;moduleDogm128.c: 134:     (LATD |= (1<<0));
  2375   0009D4  808C               	bsf	140,0,c	;volatile
  2376                           
  2377                           ;moduleDogm128.c: 135:     (LATC &= ~(1<<0));
  2378   0009D6  908B               	bcf	139,0,c	;volatile
  2379   0009D8                     
  2380                           ;moduleDogm128.c: 136:     __nop();
  2381   0009D8  0000               	nop	
  2382   0009DA                     
  2383                           ;moduleDogm128.c: 137:     sendByteSpi(dat);
  2384   0009DA  5002               	movf	sendDataToDisplay@dat^0,w,c
  2385   0009DC  ECD2  F004         	call	_sendByteSpi
  2386   0009E0                     
  2387                           ;moduleDogm128.c: 138:     __nop();
  2388   0009E0  0000               	nop	
  2389   0009E2                     
  2390                           ;moduleDogm128.c: 139:     (LATC |= (1<<0));
  2391   0009E2  808B               	bsf	139,0,c	;volatile
  2392   0009E4  0012               	return		;funcret
  2393   0009E6                     __end_of_sendDataToDisplay:
  2394                           	callstack 0
  2395                           
  2396 ;; *************** function _sendByteSpi *****************
  2397 ;; Defined at:
  2398 ;;		line 22 in file "spi.c"
  2399 ;; Parameters:    Size  Location     Type
  2400 ;;  dat             1    wreg     unsigned char 
  2401 ;; Auto vars:     Size  Location     Type
  2402 ;;  dat             1    0[COMRAM] unsigned char 
  2403 ;; Return value:  Size  Location     Type
  2404 ;;                  1    wreg      unsigned char 
  2405 ;; Registers used:
  2406 ;;		wreg
  2407 ;; Tracked objects:
  2408 ;;		On entry : 0/0
  2409 ;;		On exit  : 0/0
  2410 ;;		Unchanged: 0/0
  2411 ;; Data sizes:     COMRAM   BANK0   BANK1   BANK2   BANK3   BANK4   BANK5   BANK6   BANK7
  2412 ;;      Params:         0       0       0       0       0       0       0       0       0
  2413 ;;      Locals:         1       0       0       0       0       0       0       0       0
  2414 ;;      Temps:          0       0       0       0       0       0       0       0       0
  2415 ;;      Totals:         1       0       0       0       0       0       0       0       0
  2416 ;;Total ram usage:        1 bytes
  2417 ;; Hardware stack levels used: 1
  2418 ;; Hardware stack levels required when called: 1
  2419 ;; This function calls:
  2420 ;;		Nothing
  2421 ;; This function is called by:
  2422 ;;		_sendCommandToDisplay
  2423 ;;		_sendDataToDisplay
  2424 ;; This function uses a non-reentrant model
  2425 ;;
  2426                           
  2427                           	psect	text14
  2428   0009A4                     __ptext14:
  2429                           	callstack 0
  2430   0009A4                     _sendByteSpi:
  2431                           	callstack 26
  2432                           
  2433                           ;incstack = 0
  2434                           ;sendByteSpi@dat stored from wreg
  2435   0009A4  6E01               	movwf	sendByteSpi@dat^0,c
  2436   0009A6                     
  2437                           ;spi.c: 22: unsigned char sendByteSpi(unsigned char dat);spi.c: 23: {;spi.c: 24:     SSP
      +                          BUF = dat;
  2438   0009A6  C001  FFC9         	movff	sendByteSpi@dat,4041	;volatile
  2439   0009AA                     l150:
  2440   0009AA  A69E               	btfss	158,3,c	;volatile
  2441   0009AC  EFDA  F004         	goto	u11
  2442   0009B0  EFDC  F004         	goto	u10
  2443   0009B4                     u11:
  2444   0009B4  EFD5  F004         	goto	l150
  2445   0009B8                     u10:
  2446   0009B8                     
  2447                           ;spi.c: 26:     PIR1bits.SSPIF = 0;
  2448   0009B8  969E               	bcf	158,3,c	;volatile
  2449                           
  2450                           ;spi.c: 27:     return SSPBUF;;	Return value of _sendByteSpi is never used
  2451   0009BA  50C9               	movf	201,w,c	;volatile
  2452   0009BC  0012               	return		;funcret
  2453   0009BE                     __end_of_sendByteSpi:
  2454                           	callstack 0
  2455                           
  2456 ;; *************** function _handleSwitches *****************
  2457 ;; Defined at:
  2458 ;;		line 32 in file "main.c"
  2459 ;; Parameters:    Size  Location     Type
  2460 ;;		None
  2461 ;; Auto vars:     Size  Location     Type
  2462 ;;		None
  2463 ;; Return value:  Size  Location     Type
  2464 ;;                  1    wreg      void 
  2465 ;; Registers used:
  2466 ;;		status,2, status,0
  2467 ;; Tracked objects:
  2468 ;;		On entry : 0/0
  2469 ;;		On exit  : 0/0
  2470 ;;		Unchanged: 0/0
  2471 ;; Data sizes:     COMRAM   BANK0   BANK1   BANK2   BANK3   BANK4   BANK5   BANK6   BANK7
  2472 ;;      Params:         0       0       0       0       0       0       0       0       0
  2473 ;;      Locals:         0       0       0       0       0       0       0       0       0
  2474 ;;      Temps:          0       0       0       0       0       0       0       0       0
  2475 ;;      Totals:         0       0       0       0       0       0       0       0       0
  2476 ;;Total ram usage:        0 bytes
  2477 ;; Hardware stack levels used: 1
  2478 ;; Hardware stack levels required when called: 1
  2479 ;; This function calls:
  2480 ;;		Nothing
  2481 ;; This function is called by:
  2482 ;;		_main
  2483 ;; This function uses a non-reentrant model
  2484 ;;
  2485                           
  2486                           	psect	text15
  2487   000762                     __ptext15:
  2488                           	callstack 0
  2489   000762                     _handleSwitches:
  2490                           	callstack 29
  2491   000762                     
  2492                           ;main.c: 33:     if (!PORTBbits.RB5){
  2493   000762  BA81               	btfsc	129,5,c	;volatile
  2494   000764  EFB6  F003         	goto	u311
  2495   000768  EFB8  F003         	goto	u310
  2496   00076C                     u311:
  2497   00076C  EFBB  F003         	goto	l1202
  2498   000770                     u310:
  2499   000770                     
  2500                           ;main.c: 34:         switches |= (1 << 0);
  2501   000770  8027               	bsf	_switches^0,0,c
  2502                           
  2503                           ;main.c: 35:     } else {
  2504   000772  EFBC  F003         	goto	l1204
  2505   000776                     l1202:
  2506                           
  2507                           ;main.c: 36:         switches &= ~(1 << 0);
  2508   000776  9027               	bcf	_switches^0,0,c
  2509   000778                     l1204:
  2510                           
  2511                           ;main.c: 38:     if (!PORTBbits.RB4){
  2512   000778  B881               	btfsc	129,4,c	;volatile
  2513   00077A  EFC1  F003         	goto	u321
  2514   00077E  EFC3  F003         	goto	u320
  2515   000782                     u321:
  2516   000782  EFC6  F003         	goto	l1208
  2517   000786                     u320:
  2518   000786                     
  2519                           ;main.c: 39:         switches |= (1 << 1);
  2520   000786  8227               	bsf	_switches^0,1,c
  2521                           
  2522                           ;main.c: 40:     } else {
  2523   000788  EFC7  F003         	goto	l1210
  2524   00078C                     l1208:
  2525                           
  2526                           ;main.c: 41:         switches &= ~(1 << 1);
  2527   00078C  9227               	bcf	_switches^0,1,c
  2528   00078E                     l1210:
  2529                           
  2530                           ;main.c: 43:     if (!PORTBbits.RB3){
  2531   00078E  B681               	btfsc	129,3,c	;volatile
  2532   000790  EFCC  F003         	goto	u331
  2533   000794  EFCE  F003         	goto	u330
  2534   000798                     u331:
  2535   000798  EFD1  F003         	goto	l1214
  2536   00079C                     u330:
  2537   00079C                     
  2538                           ;main.c: 44:         switches |= (1 << 2);
  2539   00079C  8427               	bsf	_switches^0,2,c
  2540                           
  2541                           ;main.c: 45:     } else {
  2542   00079E  EFD2  F003         	goto	l1216
  2543   0007A2                     l1214:
  2544                           
  2545                           ;main.c: 46:         switches &= ~(1 << 2);
  2546   0007A2  9427               	bcf	_switches^0,2,c
  2547   0007A4                     l1216:
  2548                           
  2549                           ;main.c: 48:     if (!PORTBbits.RB0){
  2550   0007A4  B081               	btfsc	129,0,c	;volatile
  2551   0007A6  EFD7  F003         	goto	u341
  2552   0007AA  EFD9  F003         	goto	u340
  2553   0007AE                     u341:
  2554   0007AE  EFDC  F003         	goto	l1220
  2555   0007B2                     u340:
  2556   0007B2                     
  2557                           ;main.c: 49:         switches |= (1 << 3);
  2558   0007B2  8627               	bsf	_switches^0,3,c
  2559                           
  2560                           ;main.c: 50:     } else {
  2561   0007B4  EFDD  F003         	goto	l79
  2562   0007B8                     l1220:
  2563                           
  2564                           ;main.c: 51:         switches &= ~(1 << 3);
  2565   0007B8  9627               	bcf	_switches^0,3,c
  2566   0007BA                     l79:
  2567   0007BA  0012               	return		;funcret
  2568   0007BC                     __end_of_handleSwitches:
  2569                           	callstack 0
  2570                           
  2571 ;; *************** function _drawUi *****************
  2572 ;; Defined at:
  2573 ;;		line 55 in file "main.c"
  2574 ;; Parameters:    Size  Location     Type
  2575 ;;		None
  2576 ;; Auto vars:     Size  Location     Type
  2577 ;;		None
  2578 ;; Return value:  Size  Location     Type
  2579 ;;                  1    wreg      void 
  2580 ;; Registers used:
  2581 ;;		wreg, fsr1l, fsr1h, fsr2l, fsr2h, status,2, status,0, tblptrl, tblptrh, tblptru, prodl, prodh, cstack
  2582 ;; Tracked objects:
  2583 ;;		On entry : 0/0
  2584 ;;		On exit  : 0/0
  2585 ;;		Unchanged: 0/0
  2586 ;; Data sizes:     COMRAM   BANK0   BANK1   BANK2   BANK3   BANK4   BANK5   BANK6   BANK7
  2587 ;;      Params:         0       0       0       0       0       0       0       0       0
  2588 ;;      Locals:         0       0       0       0       0       0       0       0       0
  2589 ;;      Temps:          0       0       0       0       0       0       0       0       0
  2590 ;;      Totals:         0       0       0       0       0       0       0       0       0
  2591 ;;Total ram usage:        0 bytes
  2592 ;; Hardware stack levels used: 1
  2593 ;; Hardware stack levels required when called: 3
  2594 ;; This function calls:
  2595 ;;		_drawRect
  2596 ;;		_drawText
  2597 ;;		_fillRect
  2598 ;;		_utoa32
  2599 ;; This function is called by:
  2600 ;;		_main
  2601 ;; This function uses a non-reentrant model
  2602 ;;
  2603                           
  2604                           	psect	text16
  2605   000012                     __ptext16:
  2606                           	callstack 0
  2607   000012                     _drawUi:
  2608                           	callstack 27
  2609   000012                     
  2610                           ;main.c: 56:     if (switches & 0x01){
  2611   000012  A027               	btfss	_switches^0,0,c
  2612   000014  EF0E  F000         	goto	u851
  2613   000018  EF10  F000         	goto	u850
  2614   00001C                     u851:
  2615   00001C  EF26  F000         	goto	l1632
  2616   000020                     u850:
  2617   000020                     
  2618                           ;main.c: 57:         drawRect(2, 60, 28, 4);
  2619   000020  0E3C               	movlw	60
  2620   000022  6E0B               	movwf	drawRect@y^0,c
  2621   000024  0E1C               	movlw	28
  2622   000026  6E0C               	movwf	drawRect@w^0,c
  2623   000028  0E04               	movlw	4
  2624   00002A  6E0D               	movwf	drawRect@h^0,c
  2625   00002C  0E02               	movlw	2
  2626   00002E  ECCD  F002         	call	_drawRect
  2627                           
  2628                           ;main.c: 58:         fillRect(3, 61, 26, 2, 1);
  2629   000032  0E3D               	movlw	61
  2630   000034  6E0B               	movwf	fillRect@y^0,c
  2631   000036  0E1A               	movlw	26
  2632   000038  6E0C               	movwf	fillRect@w^0,c
  2633   00003A  0E02               	movlw	2
  2634   00003C  6E0D               	movwf	fillRect@h^0,c
  2635   00003E  0E01               	movlw	1
  2636   000040  6E0E               	movwf	fillRect@color^0,c
  2637   000042  0E03               	movlw	3
  2638   000044  EC4B  F003         	call	_fillRect
  2639                           
  2640                           ;main.c: 59:     } else {
  2641   000048  EF3A  F000         	goto	l1634
  2642   00004C                     l1632:
  2643                           
  2644                           ;main.c: 60:         drawRect(2, 60, 28, 4);
  2645   00004C  0E3C               	movlw	60
  2646   00004E  6E0B               	movwf	drawRect@y^0,c
  2647   000050  0E1C               	movlw	28
  2648   000052  6E0C               	movwf	drawRect@w^0,c
  2649   000054  0E04               	movlw	4
  2650   000056  6E0D               	movwf	drawRect@h^0,c
  2651   000058  0E02               	movlw	2
  2652   00005A  ECCD  F002         	call	_drawRect
  2653                           
  2654                           ;main.c: 61:         fillRect(3, 61, 26, 2, 0);
  2655   00005E  0E3D               	movlw	61
  2656   000060  6E0B               	movwf	fillRect@y^0,c
  2657   000062  0E1A               	movlw	26
  2658   000064  6E0C               	movwf	fillRect@w^0,c
  2659   000066  0E02               	movlw	2
  2660   000068  6E0D               	movwf	fillRect@h^0,c
  2661   00006A  0E00               	movlw	0
  2662   00006C  6E0E               	movwf	fillRect@color^0,c
  2663   00006E  0E03               	movlw	3
  2664   000070  EC4B  F003         	call	_fillRect
  2665   000074                     l1634:
  2666                           
  2667                           ;main.c: 64:     if (switches & 0x02){
  2668   000074  A227               	btfss	_switches^0,1,c
  2669   000076  EF3F  F000         	goto	u861
  2670   00007A  EF41  F000         	goto	u860
  2671   00007E                     u861:
  2672   00007E  EF57  F000         	goto	l1638
  2673   000082                     u860:
  2674   000082                     
  2675                           ;main.c: 65:         drawRect(34, 60, 28, 4);
  2676   000082  0E3C               	movlw	60
  2677   000084  6E0B               	movwf	drawRect@y^0,c
  2678   000086  0E1C               	movlw	28
  2679   000088  6E0C               	movwf	drawRect@w^0,c
  2680   00008A  0E04               	movlw	4
  2681   00008C  6E0D               	movwf	drawRect@h^0,c
  2682   00008E  0E22               	movlw	34
  2683   000090  ECCD  F002         	call	_drawRect
  2684                           
  2685                           ;main.c: 66:         fillRect(35, 61, 26, 2, 1);
  2686   000094  0E3D               	movlw	61
  2687   000096  6E0B               	movwf	fillRect@y^0,c
  2688   000098  0E1A               	movlw	26
  2689   00009A  6E0C               	movwf	fillRect@w^0,c
  2690   00009C  0E02               	movlw	2
  2691   00009E  6E0D               	movwf	fillRect@h^0,c
  2692   0000A0  0E01               	movlw	1
  2693   0000A2  6E0E               	movwf	fillRect@color^0,c
  2694   0000A4  0E23               	movlw	35
  2695   0000A6  EC4B  F003         	call	_fillRect
  2696                           
  2697                           ;main.c: 67:     } else {
  2698   0000AA  EF6B  F000         	goto	l1640
  2699   0000AE                     l1638:
  2700                           
  2701                           ;main.c: 68:         drawRect(34, 60, 28, 4);
  2702   0000AE  0E3C               	movlw	60
  2703   0000B0  6E0B               	movwf	drawRect@y^0,c
  2704   0000B2  0E1C               	movlw	28
  2705   0000B4  6E0C               	movwf	drawRect@w^0,c
  2706   0000B6  0E04               	movlw	4
  2707   0000B8  6E0D               	movwf	drawRect@h^0,c
  2708   0000BA  0E22               	movlw	34
  2709   0000BC  ECCD  F002         	call	_drawRect
  2710                           
  2711                           ;main.c: 69:         fillRect(35, 61, 26, 2, 0);
  2712   0000C0  0E3D               	movlw	61
  2713   0000C2  6E0B               	movwf	fillRect@y^0,c
  2714   0000C4  0E1A               	movlw	26
  2715   0000C6  6E0C               	movwf	fillRect@w^0,c
  2716   0000C8  0E02               	movlw	2
  2717   0000CA  6E0D               	movwf	fillRect@h^0,c
  2718   0000CC  0E00               	movlw	0
  2719   0000CE  6E0E               	movwf	fillRect@color^0,c
  2720   0000D0  0E23               	movlw	35
  2721   0000D2  EC4B  F003         	call	_fillRect
  2722   0000D6                     l1640:
  2723                           
  2724                           ;main.c: 72:     if (switches & 0x04){
  2725   0000D6  A427               	btfss	_switches^0,2,c
  2726   0000D8  EF70  F000         	goto	u871
  2727   0000DC  EF72  F000         	goto	u870
  2728   0000E0                     u871:
  2729   0000E0  EF88  F000         	goto	l1644
  2730   0000E4                     u870:
  2731   0000E4                     
  2732                           ;main.c: 73:         drawRect(66, 60, 28, 4);
  2733   0000E4  0E3C               	movlw	60
  2734   0000E6  6E0B               	movwf	drawRect@y^0,c
  2735   0000E8  0E1C               	movlw	28
  2736   0000EA  6E0C               	movwf	drawRect@w^0,c
  2737   0000EC  0E04               	movlw	4
  2738   0000EE  6E0D               	movwf	drawRect@h^0,c
  2739   0000F0  0E42               	movlw	66
  2740   0000F2  ECCD  F002         	call	_drawRect
  2741                           
  2742                           ;main.c: 74:         fillRect(67, 61, 26, 2, 1);
  2743   0000F6  0E3D               	movlw	61
  2744   0000F8  6E0B               	movwf	fillRect@y^0,c
  2745   0000FA  0E1A               	movlw	26
  2746   0000FC  6E0C               	movwf	fillRect@w^0,c
  2747   0000FE  0E02               	movlw	2
  2748   000100  6E0D               	movwf	fillRect@h^0,c
  2749   000102  0E01               	movlw	1
  2750   000104  6E0E               	movwf	fillRect@color^0,c
  2751   000106  0E43               	movlw	67
  2752   000108  EC4B  F003         	call	_fillRect
  2753                           
  2754                           ;main.c: 75:     } else {
  2755   00010C  EF9C  F000         	goto	l1646
  2756   000110                     l1644:
  2757                           
  2758                           ;main.c: 76:         drawRect(66, 60, 28, 4);
  2759   000110  0E3C               	movlw	60
  2760   000112  6E0B               	movwf	drawRect@y^0,c
  2761   000114  0E1C               	movlw	28
  2762   000116  6E0C               	movwf	drawRect@w^0,c
  2763   000118  0E04               	movlw	4
  2764   00011A  6E0D               	movwf	drawRect@h^0,c
  2765   00011C  0E42               	movlw	66
  2766   00011E  ECCD  F002         	call	_drawRect
  2767                           
  2768                           ;main.c: 77:         fillRect(67, 61, 26, 2, 0);
  2769   000122  0E3D               	movlw	61
  2770   000124  6E0B               	movwf	fillRect@y^0,c
  2771   000126  0E1A               	movlw	26
  2772   000128  6E0C               	movwf	fillRect@w^0,c
  2773   00012A  0E02               	movlw	2
  2774   00012C  6E0D               	movwf	fillRect@h^0,c
  2775   00012E  0E00               	movlw	0
  2776   000130  6E0E               	movwf	fillRect@color^0,c
  2777   000132  0E43               	movlw	67
  2778   000134  EC4B  F003         	call	_fillRect
  2779   000138                     l1646:
  2780                           
  2781                           ;main.c: 80:     if (switches & 0x08){
  2782   000138  A627               	btfss	_switches^0,3,c
  2783   00013A  EFA1  F000         	goto	u881
  2784   00013E  EFA3  F000         	goto	u880
  2785   000142                     u881:
  2786   000142  EFB9  F000         	goto	l1650
  2787   000146                     u880:
  2788   000146                     
  2789                           ;main.c: 81:         drawRect(98, 60, 28, 4);
  2790   000146  0E3C               	movlw	60
  2791   000148  6E0B               	movwf	drawRect@y^0,c
  2792   00014A  0E1C               	movlw	28
  2793   00014C  6E0C               	movwf	drawRect@w^0,c
  2794   00014E  0E04               	movlw	4
  2795   000150  6E0D               	movwf	drawRect@h^0,c
  2796   000152  0E62               	movlw	98
  2797   000154  ECCD  F002         	call	_drawRect
  2798                           
  2799                           ;main.c: 82:         fillRect(99, 61, 26, 2, 1);
  2800   000158  0E3D               	movlw	61
  2801   00015A  6E0B               	movwf	fillRect@y^0,c
  2802   00015C  0E1A               	movlw	26
  2803   00015E  6E0C               	movwf	fillRect@w^0,c
  2804   000160  0E02               	movlw	2
  2805   000162  6E0D               	movwf	fillRect@h^0,c
  2806   000164  0E01               	movlw	1
  2807   000166  6E0E               	movwf	fillRect@color^0,c
  2808   000168  0E63               	movlw	99
  2809   00016A  EC4B  F003         	call	_fillRect
  2810                           
  2811                           ;main.c: 83:     } else {
  2812   00016E  EFCD  F000         	goto	l1652
  2813   000172                     l1650:
  2814                           
  2815                           ;main.c: 84:         drawRect(98, 60, 28, 4);
  2816   000172  0E3C               	movlw	60
  2817   000174  6E0B               	movwf	drawRect@y^0,c
  2818   000176  0E1C               	movlw	28
  2819   000178  6E0C               	movwf	drawRect@w^0,c
  2820   00017A  0E04               	movlw	4
  2821   00017C  6E0D               	movwf	drawRect@h^0,c
  2822   00017E  0E62               	movlw	98
  2823   000180  ECCD  F002         	call	_drawRect
  2824                           
  2825                           ;main.c: 85:         fillRect(99, 61, 26, 2, 0);
  2826   000184  0E3D               	movlw	61
  2827   000186  6E0B               	movwf	fillRect@y^0,c
  2828   000188  0E1A               	movlw	26
  2829   00018A  6E0C               	movwf	fillRect@w^0,c
  2830   00018C  0E02               	movlw	2
  2831   00018E  6E0D               	movwf	fillRect@h^0,c
  2832   000190  0E00               	movlw	0
  2833   000192  6E0E               	movwf	fillRect@color^0,c
  2834   000194  0E63               	movlw	99
  2835   000196  EC4B  F003         	call	_fillRect
  2836   00019A                     l1652:
  2837                           
  2838                           ;main.c: 87:     utoa32(switches, DispCtrStr);
  2839   00019A  5027               	movf	_switches^0,w,c
  2840   00019C  6E0E               	movwf	utoa32@value^0,c
  2841   00019E  6A0F               	clrf	(utoa32@value+1)^0,c
  2842   0001A0  6A10               	clrf	(utoa32@value+2)^0,c
  2843   0001A2  6A11               	clrf	(utoa32@value+3)^0,c
  2844   0001A4  0E28               	movlw	low _DispCtrStr
  2845   0001A6  6E12               	movwf	utoa32@buffer^0,c
  2846   0001A8  ECDE  F000         	call	_utoa32	;wreg free
  2847   0001AC                     
  2848                           ;main.c: 88:     drawText(0,0, DispCtrStr);
  2849   0001AC  0E00               	movlw	0
  2850   0001AE  6E01               	movwf	drawText@column^0,c
  2851   0001B0  0E28               	movlw	low _DispCtrStr
  2852   0001B2  6E02               	movwf	drawText@txt^0,c
  2853   0001B4  0E00               	movlw	0
  2854   0001B6  EC62  F001         	call	_drawText
  2855   0001BA  0012               	return		;funcret
  2856   0001BC                     __end_of_drawUi:
  2857                           	callstack 0
  2858                           
  2859 ;; *************** function _utoa32 *****************
  2860 ;; Defined at:
  2861 ;;		line 215 in file "main.c"
  2862 ;; Parameters:    Size  Location     Type
  2863 ;;  value           4   13[COMRAM] unsigned long 
  2864 ;;  buffer          1   17[COMRAM] PTR unsigned char 
  2865 ;;		 -> DispCtrStr(5), 
  2866 ;; Auto vars:     Size  Location     Type
  2867 ;;  temp           10   18[COMRAM] unsigned char [10]
  2868 ;;  i               2   30[COMRAM] int 
  2869 ;;  j               2   28[COMRAM] int 
  2870 ;; Return value:  Size  Location     Type
  2871 ;;                  1   13[COMRAM] PTR unsigned char 
  2872 ;; Registers used:
  2873 ;;		wreg, fsr1l, fsr1h, fsr2l, fsr2h, status,2, status,0, cstack
  2874 ;; Tracked objects:
  2875 ;;		On entry : 0/0
  2876 ;;		On exit  : 0/0
  2877 ;;		Unchanged: 0/0
  2878 ;; Data sizes:     COMRAM   BANK0   BANK1   BANK2   BANK3   BANK4   BANK5   BANK6   BANK7
  2879 ;;      Params:         5       0       0       0       0       0       0       0       0
  2880 ;;      Locals:        14       0       0       0       0       0       0       0       0
  2881 ;;      Temps:          0       0       0       0       0       0       0       0       0
  2882 ;;      Totals:        19       0       0       0       0       0       0       0       0
  2883 ;;Total ram usage:       19 bytes
  2884 ;; Hardware stack levels used: 1
  2885 ;; Hardware stack levels required when called: 2
  2886 ;; This function calls:
  2887 ;;		___lldiv
  2888 ;;		___llmod
  2889 ;; This function is called by:
  2890 ;;		_drawUi
  2891 ;; This function uses a non-reentrant model
  2892 ;;
  2893                           
  2894                           	psect	text17
  2895   0001BC                     __ptext17:
  2896                           	callstack 0
  2897   0001BC                     _utoa32:
  2898                           	callstack 27
  2899   0001BC                     
  2900                           ;main.c: 215: char* utoa32(uint32_t value, char* buffer);main.c: 216: {;main.c: 217:    
      +                           char temp[10];;main.c: 218:     int i = 0;
  2901   0001BC  0E00               	movlw	0
  2902   0001BE  6E20               	movwf	(utoa32@i+1)^0,c
  2903   0001C0  0E00               	movlw	0
  2904   0001C2  6E1F               	movwf	utoa32@i^0,c
  2905   0001C4                     
  2906                           ;main.c: 221:     if (value == 0)
  2907   0001C4  500E               	movf	utoa32@value^0,w,c
  2908   0001C6  100F               	iorwf	(utoa32@value+1)^0,w,c
  2909   0001C8  1010               	iorwf	(utoa32@value+2)^0,w,c
  2910   0001CA  1011               	iorwf	(utoa32@value+3)^0,w,c
  2911   0001CC  A4D8               	btfss	status,2,c
  2912   0001CE  EFEB  F000         	goto	u771
  2913   0001D2  EFED  F000         	goto	u770
  2914   0001D6                     u771:
  2915   0001D6  EF2F  F001         	goto	l1578
  2916   0001DA                     u770:
  2917   0001DA                     
  2918                           ;main.c: 222:     {;main.c: 223:         buffer[0] = '0';
  2919   0001DA  5012               	movf	utoa32@buffer^0,w,c
  2920   0001DC  6ED9               	movwf	fsr2l,c
  2921   0001DE  6ADA               	clrf	fsr2h,c
  2922   0001E0  0E30               	movlw	48
  2923   0001E2  6EDF               	movwf	indf2,c
  2924   0001E4                     
  2925                           ;main.c: 224:         buffer[1] = '\0';
  2926   0001E4  5012               	movf	utoa32@buffer^0,w,c
  2927   0001E6  6ED9               	movwf	fsr2l,c
  2928   0001E8  6ADA               	clrf	fsr2h,c
  2929   0001EA  0E01               	movlw	1
  2930   0001EC  26D9               	addwf	fsr2l,f,c
  2931   0001EE  6ADF               	clrf	indf2,c
  2932   0001F0  EF61  F001         	goto	l126
  2933   0001F4                     l1572:
  2934                           
  2935                           ;main.c: 230:     {;main.c: 231:         temp[i++] = (value % 10) + '0';
  2936   0001F4  501F               	movf	utoa32@i^0,w,c
  2937   0001F6  0F13               	addlw	low utoa32@temp
  2938   0001F8  6ED9               	movwf	fsr2l,c
  2939   0001FA  6ADA               	clrf	fsr2h,c
  2940   0001FC  C00E  F001         	movff	utoa32@value,___llmod@dividend
  2941   000200  C00F  F002         	movff	utoa32@value+1,___llmod@dividend+1
  2942   000204  C010  F003         	movff	utoa32@value+2,___llmod@dividend+2
  2943   000208  C011  F004         	movff	utoa32@value+3,___llmod@dividend+3
  2944   00020C  0E0A               	movlw	10
  2945   00020E  6E05               	movwf	___llmod@divisor^0,c
  2946   000210  0E00               	movlw	0
  2947   000212  6E06               	movwf	(___llmod@divisor+1)^0,c
  2948   000214  0E00               	movlw	0
  2949   000216  6E07               	movwf	(___llmod@divisor+2)^0,c
  2950   000218  0E00               	movlw	0
  2951   00021A  6E08               	movwf	(___llmod@divisor+3)^0,c
  2952   00021C  EC89  F002         	call	___llmod	;wreg free
  2953   000220  5001               	movf	?___llmod^0,w,c
  2954   000222  0F30               	addlw	48
  2955   000224  6EDF               	movwf	indf2,c
  2956   000226  4A1F               	infsnz	utoa32@i^0,f,c
  2957   000228  2A20               	incf	(utoa32@i+1)^0,f,c
  2958   00022A                     
  2959                           ;main.c: 232:         value /= 10;
  2960   00022A  C00E  F001         	movff	utoa32@value,___lldiv@dividend
  2961   00022E  C00F  F002         	movff	utoa32@value+1,___lldiv@dividend+1
  2962   000232  C010  F003         	movff	utoa32@value+2,___lldiv@dividend+2
  2963   000236  C011  F004         	movff	utoa32@value+3,___lldiv@dividend+3
  2964   00023A  0E0A               	movlw	10
  2965   00023C  6E05               	movwf	___lldiv@divisor^0,c
  2966   00023E  0E00               	movlw	0
  2967   000240  6E06               	movwf	(___lldiv@divisor+1)^0,c
  2968   000242  0E00               	movlw	0
  2969   000244  6E07               	movwf	(___lldiv@divisor+2)^0,c
  2970   000246  0E00               	movlw	0
  2971   000248  6E08               	movwf	(___lldiv@divisor+3)^0,c
  2972   00024A  EC37  F002         	call	___lldiv	;wreg free
  2973   00024E  C001  F00E         	movff	?___lldiv,utoa32@value
  2974   000252  C002  F00F         	movff	?___lldiv+1,utoa32@value+1
  2975   000256  C003  F010         	movff	?___lldiv+2,utoa32@value+2
  2976   00025A  C004  F011         	movff	?___lldiv+3,utoa32@value+3
  2977   00025E                     l1578:
  2978                           
  2979                           ;main.c: 229:     while (value > 0)
  2980   00025E  500E               	movf	utoa32@value^0,w,c
  2981   000260  100F               	iorwf	(utoa32@value+1)^0,w,c
  2982   000262  1010               	iorwf	(utoa32@value+2)^0,w,c
  2983   000264  1011               	iorwf	(utoa32@value+3)^0,w,c
  2984   000266  A4D8               	btfss	status,2,c
  2985   000268  EF38  F001         	goto	u781
  2986   00026C  EF3A  F001         	goto	u780
  2987   000270                     u781:
  2988   000270  EFFA  F000         	goto	l1572
  2989   000274                     u780:
  2990   000274                     
  2991                           ;main.c: 236:     int j = 0;
  2992   000274  0E00               	movlw	0
  2993   000276  6E1E               	movwf	(utoa32@j+1)^0,c
  2994   000278  0E00               	movlw	0
  2995   00027A  6E1D               	movwf	utoa32@j^0,c
  2996                           
  2997                           ;main.c: 237:     while (i > 0)
  2998   00027C  EF4F  F001         	goto	l1586
  2999   000280                     l1582:
  3000                           
  3001                           ;main.c: 238:     {;main.c: 239:         buffer[j++] = temp[--i];
  3002   000280  061F               	decf	utoa32@i^0,f,c
  3003   000282  A0D8               	btfss	status,0,c
  3004   000284  0620               	decf	(utoa32@i+1)^0,f,c
  3005   000286  501F               	movf	utoa32@i^0,w,c
  3006   000288  0F13               	addlw	low utoa32@temp
  3007   00028A  6ED9               	movwf	fsr2l,c
  3008   00028C  6ADA               	clrf	fsr2h,c
  3009   00028E  5012               	movf	utoa32@buffer^0,w,c
  3010   000290  241D               	addwf	utoa32@j^0,w,c
  3011   000292  6EE1               	movwf	fsr1l,c
  3012   000294  6AE2               	clrf	fsr1h,c
  3013   000296  CFDF FFE7          	movff	indf2,indf1
  3014   00029A  4A1D               	infsnz	utoa32@j^0,f,c
  3015   00029C  2A1E               	incf	(utoa32@j+1)^0,f,c
  3016   00029E                     l1586:
  3017                           
  3018                           ;main.c: 237:     while (i > 0)
  3019   00029E  BE20               	btfsc	(utoa32@i+1)^0,7,c
  3020   0002A0  EF5C  F001         	goto	u790
  3021   0002A4  5020               	movf	(utoa32@i+1)^0,w,c
  3022   0002A6  E106               	bnz	u791
  3023   0002A8  041F               	decf	utoa32@i^0,w,c
  3024   0002AA  B0D8               	btfsc	status,0,c
  3025   0002AC  EF5A  F001         	goto	u791
  3026   0002B0  EF5C  F001         	goto	u790
  3027   0002B4                     u791:
  3028   0002B4  EF40  F001         	goto	l1582
  3029   0002B8                     u790:
  3030   0002B8                     
  3031                           ;main.c: 242:     buffer[j] = '\0';
  3032   0002B8  5012               	movf	utoa32@buffer^0,w,c
  3033   0002BA  241D               	addwf	utoa32@j^0,w,c
  3034   0002BC  6ED9               	movwf	fsr2l,c
  3035   0002BE  6ADA               	clrf	fsr2h,c
  3036   0002C0  6ADF               	clrf	indf2,c
  3037   0002C2                     l126:
  3038   0002C2  0012               	return		;funcret
  3039   0002C4                     __end_of_utoa32:
  3040                           	callstack 0
  3041                           
  3042 ;; *************** function ___llmod *****************
  3043 ;; Defined at:
  3044 ;;		line 7 in file "C:\Program Files\Microchip\xc8\v2.50\pic\sources\c99\common\llmod.c"
  3045 ;; Parameters:    Size  Location     Type
  3046 ;;  dividend        4    0[COMRAM] unsigned long 
  3047 ;;  divisor         4    4[COMRAM] unsigned long 
  3048 ;; Auto vars:     Size  Location     Type
  3049 ;;  counter         1    8[COMRAM] unsigned char 
  3050 ;; Return value:  Size  Location     Type
  3051 ;;                  4    0[COMRAM] unsigned long 
  3052 ;; Registers used:
  3053 ;;		wreg, status,2, status,0
  3054 ;; Tracked objects:
  3055 ;;		On entry : 0/0
  3056 ;;		On exit  : 0/0
  3057 ;;		Unchanged: 0/0
  3058 ;; Data sizes:     COMRAM   BANK0   BANK1   BANK2   BANK3   BANK4   BANK5   BANK6   BANK7
  3059 ;;      Params:         8       0       0       0       0       0       0       0       0
  3060 ;;      Locals:         1       0       0       0       0       0       0       0       0
  3061 ;;      Temps:          0       0       0       0       0       0       0       0       0
  3062 ;;      Totals:         9       0       0       0       0       0       0       0       0
  3063 ;;Total ram usage:        9 bytes
  3064 ;; Hardware stack levels used: 1
  3065 ;; Hardware stack levels required when called: 1
  3066 ;; This function calls:
  3067 ;;		Nothing
  3068 ;; This function is called by:
  3069 ;;		_main
  3070 ;;		_utoa32
  3071 ;; This function uses a non-reentrant model
  3072 ;;
  3073                           
  3074                           	psect	text18
  3075   000512                     __ptext18:
  3076                           	callstack 0
  3077   000512                     ___llmod:
  3078                           	callstack 27
  3079   000512  5005               	movf	___llmod@divisor^0,w,c
  3080   000514  1006               	iorwf	(___llmod@divisor+1)^0,w,c
  3081   000516  1007               	iorwf	(___llmod@divisor+2)^0,w,c
  3082   000518  1008               	iorwf	(___llmod@divisor+3)^0,w,c
  3083   00051A  B4D8               	btfsc	status,2,c
  3084   00051C  EF92  F002         	goto	u681
  3085   000520  EF94  F002         	goto	u680
  3086   000524                     u681:
  3087   000524  EFC4  F002         	goto	l716
  3088   000528                     u680:
  3089   000528  0E01               	movlw	1
  3090   00052A  6E09               	movwf	___llmod@counter^0,c
  3091   00052C  EF9E  F002         	goto	l1522
  3092   000530                     l1520:
  3093   000530  90D8               	bcf	status,0,c
  3094   000532  3605               	rlcf	___llmod@divisor^0,f,c
  3095   000534  3606               	rlcf	(___llmod@divisor+1)^0,f,c
  3096   000536  3607               	rlcf	(___llmod@divisor+2)^0,f,c
  3097   000538  3608               	rlcf	(___llmod@divisor+3)^0,f,c
  3098   00053A  2A09               	incf	___llmod@counter^0,f,c
  3099   00053C                     l1522:
  3100   00053C  AE08               	btfss	(___llmod@divisor+3)^0,7,c
  3101   00053E  EFA3  F002         	goto	u691
  3102   000542  EFA5  F002         	goto	u690
  3103   000546                     u691:
  3104   000546  EF98  F002         	goto	l1520
  3105   00054A                     u690:
  3106   00054A                     l1524:
  3107   00054A  5005               	movf	___llmod@divisor^0,w,c
  3108   00054C  5C01               	subwf	___llmod@dividend^0,w,c
  3109   00054E  5006               	movf	(___llmod@divisor+1)^0,w,c
  3110   000550  5802               	subwfb	(___llmod@dividend+1)^0,w,c
  3111   000552  5007               	movf	(___llmod@divisor+2)^0,w,c
  3112   000554  5803               	subwfb	(___llmod@dividend+2)^0,w,c
  3113   000556  5008               	movf	(___llmod@divisor+3)^0,w,c
  3114   000558  5804               	subwfb	(___llmod@dividend+3)^0,w,c
  3115   00055A  A0D8               	btfss	status,0,c
  3116   00055C  EFB2  F002         	goto	u701
  3117   000560  EFB4  F002         	goto	u700
  3118   000564                     u701:
  3119   000564  EFBC  F002         	goto	l1528
  3120   000568                     u700:
  3121   000568  5005               	movf	___llmod@divisor^0,w,c
  3122   00056A  5E01               	subwf	___llmod@dividend^0,f,c
  3123   00056C  5006               	movf	(___llmod@divisor+1)^0,w,c
  3124   00056E  5A02               	subwfb	(___llmod@dividend+1)^0,f,c
  3125   000570  5007               	movf	(___llmod@divisor+2)^0,w,c
  3126   000572  5A03               	subwfb	(___llmod@dividend+2)^0,f,c
  3127   000574  5008               	movf	(___llmod@divisor+3)^0,w,c
  3128   000576  5A04               	subwfb	(___llmod@dividend+3)^0,f,c
  3129   000578                     l1528:
  3130   000578  90D8               	bcf	status,0,c
  3131   00057A  3208               	rrcf	(___llmod@divisor+3)^0,f,c
  3132   00057C  3207               	rrcf	(___llmod@divisor+2)^0,f,c
  3133   00057E  3206               	rrcf	(___llmod@divisor+1)^0,f,c
  3134   000580  3205               	rrcf	___llmod@divisor^0,f,c
  3135   000582  2E09               	decfsz	___llmod@counter^0,f,c
  3136   000584  EFA5  F002         	goto	l1524
  3137   000588                     l716:
  3138   000588  C001  F001         	movff	___llmod@dividend,?___llmod
  3139   00058C  C002  F002         	movff	___llmod@dividend+1,?___llmod+1
  3140   000590  C003  F003         	movff	___llmod@dividend+2,?___llmod+2
  3141   000594  C004  F004         	movff	___llmod@dividend+3,?___llmod+3
  3142   000598  0012               	return		;funcret
  3143   00059A                     __end_of___llmod:
  3144                           	callstack 0
  3145                           
  3146 ;; *************** function ___lldiv *****************
  3147 ;; Defined at:
  3148 ;;		line 7 in file "C:\Program Files\Microchip\xc8\v2.50\pic\sources\c99\common\__lldiv.c"
  3149 ;; Parameters:    Size  Location     Type
  3150 ;;  dividend        4    0[COMRAM] unsigned long 
  3151 ;;  divisor         4    4[COMRAM] unsigned long 
  3152 ;; Auto vars:     Size  Location     Type
  3153 ;;  quotient        4    8[COMRAM] unsigned long 
  3154 ;;  counter         1   12[COMRAM] unsigned char 
  3155 ;; Return value:  Size  Location     Type
  3156 ;;                  4    0[COMRAM] unsigned long 
  3157 ;; Registers used:
  3158 ;;		wreg, status,2, status,0
  3159 ;; Tracked objects:
  3160 ;;		On entry : 0/0
  3161 ;;		On exit  : 0/0
  3162 ;;		Unchanged: 0/0
  3163 ;; Data sizes:     COMRAM   BANK0   BANK1   BANK2   BANK3   BANK4   BANK5   BANK6   BANK7
  3164 ;;      Params:         8       0       0       0       0       0       0       0       0
  3165 ;;      Locals:         5       0       0       0       0       0       0       0       0
  3166 ;;      Temps:          0       0       0       0       0       0       0       0       0
  3167 ;;      Totals:        13       0       0       0       0       0       0       0       0
  3168 ;;Total ram usage:       13 bytes
  3169 ;; Hardware stack levels used: 1
  3170 ;; Hardware stack levels required when called: 1
  3171 ;; This function calls:
  3172 ;;		Nothing
  3173 ;; This function is called by:
  3174 ;;		_utoa32
  3175 ;; This function uses a non-reentrant model
  3176 ;;
  3177                           
  3178                           	psect	text19
  3179   00046E                     __ptext19:
  3180                           	callstack 0
  3181   00046E                     ___lldiv:
  3182                           	callstack 27
  3183   00046E  0E00               	movlw	0
  3184   000470  6E09               	movwf	___lldiv@quotient^0,c
  3185   000472  0E00               	movlw	0
  3186   000474  6E0A               	movwf	(___lldiv@quotient+1)^0,c
  3187   000476  0E00               	movlw	0
  3188   000478  6E0B               	movwf	(___lldiv@quotient+2)^0,c
  3189   00047A  0E00               	movlw	0
  3190   00047C  6E0C               	movwf	(___lldiv@quotient+3)^0,c
  3191   00047E  5005               	movf	___lldiv@divisor^0,w,c
  3192   000480  1006               	iorwf	(___lldiv@divisor+1)^0,w,c
  3193   000482  1007               	iorwf	(___lldiv@divisor+2)^0,w,c
  3194   000484  1008               	iorwf	(___lldiv@divisor+3)^0,w,c
  3195   000486  B4D8               	btfsc	status,2,c
  3196   000488  EF48  F002         	goto	u651
  3197   00048C  EF4A  F002         	goto	u650
  3198   000490                     u651:
  3199   000490  EF80  F002         	goto	l323
  3200   000494                     u650:
  3201   000494  0E01               	movlw	1
  3202   000496  6E0D               	movwf	___lldiv@counter^0,c
  3203   000498  EF54  F002         	goto	l1502
  3204   00049C                     l1500:
  3205   00049C  90D8               	bcf	status,0,c
  3206   00049E  3605               	rlcf	___lldiv@divisor^0,f,c
  3207   0004A0  3606               	rlcf	(___lldiv@divisor+1)^0,f,c
  3208   0004A2  3607               	rlcf	(___lldiv@divisor+2)^0,f,c
  3209   0004A4  3608               	rlcf	(___lldiv@divisor+3)^0,f,c
  3210   0004A6  2A0D               	incf	___lldiv@counter^0,f,c
  3211   0004A8                     l1502:
  3212   0004A8  AE08               	btfss	(___lldiv@divisor+3)^0,7,c
  3213   0004AA  EF59  F002         	goto	u661
  3214   0004AE  EF5B  F002         	goto	u660
  3215   0004B2                     u661:
  3216   0004B2  EF4E  F002         	goto	l1500
  3217   0004B6                     u660:
  3218   0004B6                     l1504:
  3219   0004B6  90D8               	bcf	status,0,c
  3220   0004B8  3609               	rlcf	___lldiv@quotient^0,f,c
  3221   0004BA  360A               	rlcf	(___lldiv@quotient+1)^0,f,c
  3222   0004BC  360B               	rlcf	(___lldiv@quotient+2)^0,f,c
  3223   0004BE  360C               	rlcf	(___lldiv@quotient+3)^0,f,c
  3224   0004C0  5005               	movf	___lldiv@divisor^0,w,c
  3225   0004C2  5C01               	subwf	___lldiv@dividend^0,w,c
  3226   0004C4  5006               	movf	(___lldiv@divisor+1)^0,w,c
  3227   0004C6  5802               	subwfb	(___lldiv@dividend+1)^0,w,c
  3228   0004C8  5007               	movf	(___lldiv@divisor+2)^0,w,c
  3229   0004CA  5803               	subwfb	(___lldiv@dividend+2)^0,w,c
  3230   0004CC  5008               	movf	(___lldiv@divisor+3)^0,w,c
  3231   0004CE  5804               	subwfb	(___lldiv@dividend+3)^0,w,c
  3232   0004D0  A0D8               	btfss	status,0,c
  3233   0004D2  EF6D  F002         	goto	u671
  3234   0004D6  EF6F  F002         	goto	u670
  3235   0004DA                     u671:
  3236   0004DA  EF78  F002         	goto	l1512
  3237   0004DE                     u670:
  3238   0004DE  5005               	movf	___lldiv@divisor^0,w,c
  3239   0004E0  5E01               	subwf	___lldiv@dividend^0,f,c
  3240   0004E2  5006               	movf	(___lldiv@divisor+1)^0,w,c
  3241   0004E4  5A02               	subwfb	(___lldiv@dividend+1)^0,f,c
  3242   0004E6  5007               	movf	(___lldiv@divisor+2)^0,w,c
  3243   0004E8  5A03               	subwfb	(___lldiv@dividend+2)^0,f,c
  3244   0004EA  5008               	movf	(___lldiv@divisor+3)^0,w,c
  3245   0004EC  5A04               	subwfb	(___lldiv@dividend+3)^0,f,c
  3246   0004EE  8009               	bsf	___lldiv@quotient^0,0,c
  3247   0004F0                     l1512:
  3248   0004F0  90D8               	bcf	status,0,c
  3249   0004F2  3208               	rrcf	(___lldiv@divisor+3)^0,f,c
  3250   0004F4  3207               	rrcf	(___lldiv@divisor+2)^0,f,c
  3251   0004F6  3206               	rrcf	(___lldiv@divisor+1)^0,f,c
  3252   0004F8  3205               	rrcf	___lldiv@divisor^0,f,c
  3253   0004FA  2E0D               	decfsz	___lldiv@counter^0,f,c
  3254   0004FC  EF5B  F002         	goto	l1504
  3255   000500                     l323:
  3256   000500  C009  F001         	movff	___lldiv@quotient,?___lldiv
  3257   000504  C00A  F002         	movff	___lldiv@quotient+1,?___lldiv+1
  3258   000508  C00B  F003         	movff	___lldiv@quotient+2,?___lldiv+2
  3259   00050C  C00C  F004         	movff	___lldiv@quotient+3,?___lldiv+3
  3260   000510  0012               	return		;funcret
  3261   000512                     __end_of___lldiv:
  3262                           	callstack 0
  3263                           
  3264 ;; *************** function _fillRect *****************
  3265 ;; Defined at:
  3266 ;;		line 266 in file "moduleDogm128.c"
  3267 ;; Parameters:    Size  Location     Type
  3268 ;;  x               1    wreg     unsigned char 
  3269 ;;  y               1   10[COMRAM] unsigned char 
  3270 ;;  w               1   11[COMRAM] unsigned char 
  3271 ;;  h               1   12[COMRAM] unsigned char 
  3272 ;;  color           1   13[COMRAM] unsigned char 
  3273 ;; Auto vars:     Size  Location     Type
  3274 ;;  x               1   14[COMRAM] unsigned char 
  3275 ;;  j               1   16[COMRAM] unsigned char 
  3276 ;;  i               1   15[COMRAM] unsigned char 
  3277 ;; Return value:  Size  Location     Type
  3278 ;;                  1    wreg      void 
  3279 ;; Registers used:
  3280 ;;		wreg, fsr2l, fsr2h, status,2, status,0, prodl, prodh, cstack
  3281 ;; Tracked objects:
  3282 ;;		On entry : 0/0
  3283 ;;		On exit  : 0/0
  3284 ;;		Unchanged: 0/0
  3285 ;; Data sizes:     COMRAM   BANK0   BANK1   BANK2   BANK3   BANK4   BANK5   BANK6   BANK7
  3286 ;;      Params:         4       0       0       0       0       0       0       0       0
  3287 ;;      Locals:         3       0       0       0       0       0       0       0       0
  3288 ;;      Temps:          0       0       0       0       0       0       0       0       0
  3289 ;;      Totals:         7       0       0       0       0       0       0       0       0
  3290 ;;Total ram usage:        7 bytes
  3291 ;; Hardware stack levels used: 1
  3292 ;; Hardware stack levels required when called: 2
  3293 ;; This function calls:
  3294 ;;		_drawPixel
  3295 ;; This function is called by:
  3296 ;;		_drawUi
  3297 ;; This function uses a non-reentrant model
  3298 ;;
  3299                           
  3300                           	psect	text20
  3301   000696                     __ptext20:
  3302                           	callstack 0
  3303   000696                     _fillRect:
  3304                           	callstack 27
  3305                           
  3306                           ;incstack = 0
  3307                           ;fillRect@x stored from wreg
  3308   000696  6E0F               	movwf	fillRect@x^0,c
  3309   000698                     
  3310                           ;moduleDogm128.c: 266: void fillRect(uint8_t x, uint8_t y, uint8_t w, uint8_t h, uint8_t
      +                           color);moduleDogm128.c: 267: {;moduleDogm128.c: 269:     if(h>=2 && w>=2 ){
  3311   000698  0E01               	movlw	1
  3312   00069A  640D               	cpfsgt	fillRect@h^0,c
  3313   00069C  EF52  F003         	goto	u731
  3314   0006A0  EF54  F003         	goto	u730
  3315   0006A4                     u731:
  3316   0006A4  EF7F  F003         	goto	l286
  3317   0006A8                     u730:
  3318   0006A8  0E01               	movlw	1
  3319   0006AA  640C               	cpfsgt	fillRect@w^0,c
  3320   0006AC  EF5A  F003         	goto	u741
  3321   0006B0  EF5C  F003         	goto	u740
  3322   0006B4                     u741:
  3323   0006B4  EF7F  F003         	goto	l286
  3324   0006B8                     u740:
  3325   0006B8                     
  3326                           ;moduleDogm128.c: 270:         for (uint8_t i = 0; i < h; i++)
  3327   0006B8  6A10               	clrf	fillRect@i^0,c
  3328   0006BA  EF76  F003         	goto	l1560
  3329   0006BE                     l281:
  3330                           
  3331                           ;moduleDogm128.c: 271:         {;moduleDogm128.c: 272:             for (uint8_t j = 0; j
      +                           < w; j++)
  3332   0006BE  6A11               	clrf	fillRect@j^0,c
  3333   0006C0  EF6C  F003         	goto	l1556
  3334   0006C4                     l1552:
  3335                           
  3336                           ;moduleDogm128.c: 273:             {;moduleDogm128.c: 274:                 drawPixel(x +
      +                           j, y + i, color);
  3337   0006C4  500B               	movf	fillRect@y^0,w,c
  3338   0006C6  2410               	addwf	fillRect@i^0,w,c
  3339   0006C8  6E01               	movwf	drawPixel@y^0,c
  3340   0006CA  C00E  F002         	movff	fillRect@color,drawPixel@color
  3341   0006CE  500F               	movf	fillRect@x^0,w,c
  3342   0006D0  2411               	addwf	fillRect@j^0,w,c
  3343   0006D2  ECD7  F001         	call	_drawPixel
  3344   0006D6                     
  3345                           ;moduleDogm128.c: 275:             }
  3346   0006D6  2A11               	incf	fillRect@j^0,f,c
  3347   0006D8                     l1556:
  3348   0006D8  500C               	movf	fillRect@w^0,w,c
  3349   0006DA  5C11               	subwf	fillRect@j^0,w,c
  3350   0006DC  A0D8               	btfss	status,0,c
  3351   0006DE  EF73  F003         	goto	u751
  3352   0006E2  EF75  F003         	goto	u750
  3353   0006E6                     u751:
  3354   0006E6  EF62  F003         	goto	l1552
  3355   0006EA                     u750:
  3356   0006EA                     
  3357                           ;moduleDogm128.c: 276:         }
  3358   0006EA  2A10               	incf	fillRect@i^0,f,c
  3359   0006EC                     l1560:
  3360   0006EC  500D               	movf	fillRect@h^0,w,c
  3361   0006EE  5C10               	subwf	fillRect@i^0,w,c
  3362   0006F0  A0D8               	btfss	status,0,c
  3363   0006F2  EF7D  F003         	goto	u761
  3364   0006F6  EF7F  F003         	goto	u760
  3365   0006FA                     u761:
  3366   0006FA  EF5F  F003         	goto	l281
  3367   0006FE                     u760:
  3368   0006FE                     l286:
  3369   0006FE  0012               	return		;funcret
  3370   000700                     __end_of_fillRect:
  3371                           	callstack 0
  3372                           
  3373 ;; *************** function _drawText *****************
  3374 ;; Defined at:
  3375 ;;		line 168 in file "moduleDogm128.c"
  3376 ;; Parameters:    Size  Location     Type
  3377 ;;  page            1    wreg     unsigned char 
  3378 ;;  column          1    0[COMRAM] unsigned char 
  3379 ;;  txt             1    1[COMRAM] PTR const unsigned char 
  3380 ;;		 -> DispCtrStr(5), 
  3381 ;; Auto vars:     Size  Location     Type
  3382 ;;  page            1    7[COMRAM] unsigned char 
  3383 ;;  col             1    9[COMRAM] unsigned char 
  3384 ;;  i               1    8[COMRAM] unsigned char 
  3385 ;;  c               1    6[COMRAM] unsigned char 
  3386 ;;  x               1    5[COMRAM] unsigned char 
  3387 ;;  d               1    4[COMRAM] unsigned char 
  3388 ;; Return value:  Size  Location     Type
  3389 ;;                  1    wreg      void 
  3390 ;; Registers used:
  3391 ;;		wreg, fsr2l, fsr2h, status,2, status,0, tblptrl, tblptrh, tblptru, prodl, prodh
  3392 ;; Tracked objects:
  3393 ;;		On entry : 0/0
  3394 ;;		On exit  : 0/0
  3395 ;;		Unchanged: 0/0
  3396 ;; Data sizes:     COMRAM   BANK0   BANK1   BANK2   BANK3   BANK4   BANK5   BANK6   BANK7
  3397 ;;      Params:         2       0       0       0       0       0       0       0       0
  3398 ;;      Locals:         6       0       0       0       0       0       0       0       0
  3399 ;;      Temps:          2       0       0       0       0       0       0       0       0
  3400 ;;      Totals:        10       0       0       0       0       0       0       0       0
  3401 ;;Total ram usage:       10 bytes
  3402 ;; Hardware stack levels used: 1
  3403 ;; Hardware stack levels required when called: 1
  3404 ;; This function calls:
  3405 ;;		Nothing
  3406 ;; This function is called by:
  3407 ;;		_drawUi
  3408 ;; This function uses a non-reentrant model
  3409 ;;
  3410                           
  3411                           	psect	text21
  3412   0002C4                     __ptext21:
  3413                           	callstack 0
  3414   0002C4                     _drawText:
  3415                           	callstack 28
  3416                           
  3417                           ;incstack = 0
  3418                           ;drawText@page stored from wreg
  3419   0002C4  6E08               	movwf	drawText@page^0,c
  3420   0002C6                     
  3421                           ;moduleDogm128.c: 168: void drawText(uint8_t page, uint8_t column, const char* txt);modu
      +                          leDogm128.c: 169: {;moduleDogm128.c: 170:     uint8_t c, i, d, x;;moduleDogm128.c: 171: 
      +                              uint8_t col = column;
  3422   0002C6  C001  F00A         	movff	drawText@column,drawText@col
  3423   0002CA                     
  3424                           ;moduleDogm128.c: 173:     if (page > 7 || column > 127) return;
  3425   0002CA  0E08               	movlw	8
  3426   0002CC  6008               	cpfslt	drawText@page^0,c
  3427   0002CE  EF6B  F001         	goto	u801
  3428   0002D2  EF6D  F001         	goto	u800
  3429   0002D6                     u801:
  3430   0002D6  EFD6  F001         	goto	l229
  3431   0002DA                     u800:
  3432   0002DA  0E7F               	movlw	127
  3433   0002DC  6401               	cpfsgt	drawText@column^0,c
  3434   0002DE  EF73  F001         	goto	u811
  3435   0002E2  EF75  F001         	goto	u810
  3436   0002E6                     u811:
  3437   0002E6  EF77  F001         	goto	l226
  3438   0002EA                     u810:
  3439   0002EA  EFD6  F001         	goto	l229
  3440   0002EE                     l226:
  3441                           
  3442                           ;moduleDogm128.c: 175:     for (c = 0; txt[c] != '\0'; c++)
  3443   0002EE  6A07               	clrf	drawText@c^0,c
  3444   0002F0  EFCA  F001         	goto	l1626
  3445   0002F4                     l1598:
  3446                           
  3447                           ;moduleDogm128.c: 176:     {;moduleDogm128.c: 177:         if (col > 122) break;
  3448   0002F4  0E7A               	movlw	122
  3449   0002F6  640A               	cpfsgt	drawText@col^0,c
  3450   0002F8  EF80  F001         	goto	u821
  3451   0002FC  EF82  F001         	goto	u820
  3452   000300                     u821:
  3453   000300  EF84  F001         	goto	l1602
  3454   000304                     u820:
  3455   000304  EFD6  F001         	goto	l229
  3456   000308                     l1602:
  3457                           
  3458                           ;moduleDogm128.c: 179:         x = txt[c] - 0x20;
  3459   000308  5002               	movf	drawText@txt^0,w,c
  3460   00030A  2407               	addwf	drawText@c^0,w,c
  3461   00030C  6ED9               	movwf	fsr2l,c
  3462   00030E  6ADA               	clrf	fsr2h,c
  3463   000310  50DF               	movf	indf2,w,c
  3464   000312  0FE0               	addlw	224
  3465   000314  6E06               	movwf	drawText@x^0,c
  3466   000316                     
  3467                           ;moduleDogm128.c: 182:         for (i = 0; i < 5; i++)
  3468   000316  6A09               	clrf	drawText@i^0,c
  3469   000318                     l1610:
  3470                           
  3471                           ;moduleDogm128.c: 183:         {;moduleDogm128.c: 184:             d = font5x7[x][i];
  3472   000318  5006               	movf	drawText@x^0,w,c
  3473   00031A  0D05               	mullw	5
  3474   00031C  0E73               	movlw	low _font5x7
  3475   00031E  24F3               	addwf	243,w,c
  3476   000320  6E03               	movwf	??_drawText^0,c
  3477   000322  0E7B               	movlw	high _font5x7
  3478   000324  20F4               	addwfc	prodh,w,c
  3479   000326  6E04               	movwf	(??_drawText+1)^0,c
  3480   000328  5009               	movf	drawText@i^0,w,c
  3481   00032A  2603               	addwf	??_drawText^0,f,c
  3482   00032C  0E00               	movlw	0
  3483   00032E  2204               	addwfc	(??_drawText+1)^0,f,c
  3484   000330  C003  FFF6         	movff	??_drawText,tblptrl
  3485   000334  C004  FFF7         	movff	??_drawText+1,tblptrh
  3486   000338                     	if	0	;tblptru may be non-zero
  3487   000338                     	endif
  3488   000338                     	if	0	;tblptru may be non-zero
  3489   000338                     	endif
  3490   000338  0008               	tblrd		*
  3491   00033A  CFF5 F005          	movff	tablat,drawText@d
  3492   00033E                     
  3493                           ;moduleDogm128.c: 185:             displayBuffer[page][col++] = d;
  3494   00033E  5008               	movf	drawText@page^0,w,c
  3495   000340  0D80               	mullw	128
  3496   000342  0E00               	movlw	low _displayBuffer
  3497   000344  24F3               	addwf	243,w,c
  3498   000346  6E03               	movwf	??_drawText^0,c
  3499   000348  0E04               	movlw	high _displayBuffer
  3500   00034A  20F4               	addwfc	prodh,w,c
  3501   00034C  6E04               	movwf	(??_drawText+1)^0,c
  3502   00034E  500A               	movf	drawText@col^0,w,c
  3503   000350  2403               	addwf	??_drawText^0,w,c
  3504   000352  6ED9               	movwf	fsr2l,c
  3505   000354  0E00               	movlw	0
  3506   000356  2004               	addwfc	(??_drawText+1)^0,w,c
  3507   000358  6EDA               	movwf	fsr2h,c
  3508   00035A  C005  FFDF         	movff	drawText@d,indf2
  3509   00035E  2A0A               	incf	drawText@col^0,f,c
  3510   000360                     
  3511                           ;moduleDogm128.c: 186:         }
  3512   000360  2A09               	incf	drawText@i^0,f,c
  3513   000362  0E04               	movlw	4
  3514   000364  6409               	cpfsgt	drawText@i^0,c
  3515   000366  EFB7  F001         	goto	u831
  3516   00036A  EFB9  F001         	goto	u830
  3517   00036E                     u831:
  3518   00036E  EF8C  F001         	goto	l1610
  3519   000372                     u830:
  3520   000372                     
  3521                           ;moduleDogm128.c: 189:         displayBuffer[page][col++] = 0x00;
  3522   000372  5008               	movf	drawText@page^0,w,c
  3523   000374  0D80               	mullw	128
  3524   000376  0E00               	movlw	low _displayBuffer
  3525   000378  24F3               	addwf	243,w,c
  3526   00037A  6E03               	movwf	??_drawText^0,c
  3527   00037C  0E04               	movlw	high _displayBuffer
  3528   00037E  20F4               	addwfc	prodh,w,c
  3529   000380  6E04               	movwf	(??_drawText+1)^0,c
  3530   000382  500A               	movf	drawText@col^0,w,c
  3531   000384  2403               	addwf	??_drawText^0,w,c
  3532   000386  6ED9               	movwf	fsr2l,c
  3533   000388  0E00               	movlw	0
  3534   00038A  2004               	addwfc	(??_drawText+1)^0,w,c
  3535   00038C  6EDA               	movwf	fsr2h,c
  3536   00038E  6ADF               	clrf	indf2,c
  3537   000390  2A0A               	incf	drawText@col^0,f,c
  3538   000392                     
  3539                           ;moduleDogm128.c: 190:     }
  3540   000392  2A07               	incf	drawText@c^0,f,c
  3541   000394                     l1626:
  3542   000394  5002               	movf	drawText@txt^0,w,c
  3543   000396  2407               	addwf	drawText@c^0,w,c
  3544   000398  6ED9               	movwf	fsr2l,c
  3545   00039A  6ADA               	clrf	fsr2h,c
  3546   00039C  50DF               	movf	indf2,w,c
  3547   00039E  A4D8               	btfss	status,2,c
  3548   0003A0  EFD4  F001         	goto	u841
  3549   0003A4  EFD6  F001         	goto	u840
  3550   0003A8                     u841:
  3551   0003A8  EF7A  F001         	goto	l1598
  3552   0003AC                     u840:
  3553   0003AC                     l229:
  3554   0003AC  0012               	return		;funcret
  3555   0003AE                     __end_of_drawText:
  3556                           	callstack 0
  3557                           
  3558 ;; *************** function _drawRect *****************
  3559 ;; Defined at:
  3560 ;;		line 249 in file "moduleDogm128.c"
  3561 ;; Parameters:    Size  Location     Type
  3562 ;;  x               1    wreg     unsigned char 
  3563 ;;  y               1   10[COMRAM] unsigned char 
  3564 ;;  w               1   11[COMRAM] unsigned char 
  3565 ;;  h               1   12[COMRAM] unsigned char 
  3566 ;; Auto vars:     Size  Location     Type
  3567 ;;  x               1   16[COMRAM] unsigned char 
  3568 ;;  i               1   15[COMRAM] unsigned char 
  3569 ;;  i               1   14[COMRAM] unsigned char 
  3570 ;; Return value:  Size  Location     Type
  3571 ;;                  1    wreg      void 
  3572 ;; Registers used:
  3573 ;;		wreg, fsr2l, fsr2h, status,2, status,0, prodl, prodh, cstack
  3574 ;; Tracked objects:
  3575 ;;		On entry : 0/0
  3576 ;;		On exit  : 0/0
  3577 ;;		Unchanged: 0/0
  3578 ;; Data sizes:     COMRAM   BANK0   BANK1   BANK2   BANK3   BANK4   BANK5   BANK6   BANK7
  3579 ;;      Params:         3       0       0       0       0       0       0       0       0
  3580 ;;      Locals:         3       0       0       0       0       0       0       0       0
  3581 ;;      Temps:          1       0       0       0       0       0       0       0       0
  3582 ;;      Totals:         7       0       0       0       0       0       0       0       0
  3583 ;;Total ram usage:        7 bytes
  3584 ;; Hardware stack levels used: 1
  3585 ;; Hardware stack levels required when called: 2
  3586 ;; This function calls:
  3587 ;;		_drawPixel
  3588 ;; This function is called by:
  3589 ;;		_drawUi
  3590 ;; This function uses a non-reentrant model
  3591 ;;
  3592                           
  3593                           	psect	text22
  3594   00059A                     __ptext22:
  3595                           	callstack 0
  3596   00059A                     _drawRect:
  3597                           	callstack 27
  3598                           
  3599                           ;incstack = 0
  3600                           ;drawRect@x stored from wreg
  3601   00059A  6E11               	movwf	drawRect@x^0,c
  3602   00059C                     
  3603                           ;moduleDogm128.c: 249: void drawRect(uint8_t x, uint8_t y, uint8_t w, uint8_t h);moduleD
      +                          ogm128.c: 250: {;moduleDogm128.c: 252:     for (uint8_t i = 0; i < w; i++)
  3604   00059C  6A0F               	clrf	drawRect@i^0,c
  3605   00059E  EFE5  F002         	goto	l1538
  3606   0005A2                     l1534:
  3607                           
  3608                           ;moduleDogm128.c: 253:     {;moduleDogm128.c: 254:         drawPixel(x + i, y, 1);
  3609   0005A2  C00B  F001         	movff	drawRect@y,drawPixel@y
  3610   0005A6  0E01               	movlw	1
  3611   0005A8  6E02               	movwf	drawPixel@color^0,c
  3612   0005AA  5011               	movf	drawRect@x^0,w,c
  3613   0005AC  240F               	addwf	drawRect@i^0,w,c
  3614   0005AE  ECD7  F001         	call	_drawPixel
  3615                           
  3616                           ;moduleDogm128.c: 255:         drawPixel(x + i, y + h - 1, 1);
  3617   0005B2  500B               	movf	drawRect@y^0,w,c
  3618   0005B4  240D               	addwf	drawRect@h^0,w,c
  3619   0005B6  6E0E               	movwf	??_drawRect^0,c
  3620   0005B8  040E               	decf	??_drawRect^0,w,c
  3621   0005BA  6E01               	movwf	drawPixel@y^0,c
  3622   0005BC  0E01               	movlw	1
  3623   0005BE  6E02               	movwf	drawPixel@color^0,c
  3624   0005C0  5011               	movf	drawRect@x^0,w,c
  3625   0005C2  240F               	addwf	drawRect@i^0,w,c
  3626   0005C4  ECD7  F001         	call	_drawPixel
  3627   0005C8                     
  3628                           ;moduleDogm128.c: 256:     }
  3629   0005C8  2A0F               	incf	drawRect@i^0,f,c
  3630   0005CA                     l1538:
  3631   0005CA  500C               	movf	drawRect@w^0,w,c
  3632   0005CC  5C0F               	subwf	drawRect@i^0,w,c
  3633   0005CE  A0D8               	btfss	status,0,c
  3634   0005D0  EFEC  F002         	goto	u711
  3635   0005D4  EFEE  F002         	goto	u710
  3636   0005D8                     u711:
  3637   0005D8  EFD1  F002         	goto	l1534
  3638   0005DC                     u710:
  3639   0005DC                     
  3640                           ;moduleDogm128.c: 259:     for (uint8_t i = 0; i < h; i++)
  3641   0005DC  6A10               	clrf	drawRect@i_516^0,c
  3642   0005DE  EF05  F003         	goto	l1544
  3643   0005E2                     l1540:
  3644                           
  3645                           ;moduleDogm128.c: 260:     {;moduleDogm128.c: 261:         drawPixel(x, y + i, 1);
  3646   0005E2  500B               	movf	drawRect@y^0,w,c
  3647   0005E4  2410               	addwf	drawRect@i_516^0,w,c
  3648   0005E6  6E01               	movwf	drawPixel@y^0,c
  3649   0005E8  0E01               	movlw	1
  3650   0005EA  6E02               	movwf	drawPixel@color^0,c
  3651   0005EC  5011               	movf	drawRect@x^0,w,c
  3652   0005EE  ECD7  F001         	call	_drawPixel
  3653                           
  3654                           ;moduleDogm128.c: 262:         drawPixel(x + w - 1, y + i, 1);
  3655   0005F2  500B               	movf	drawRect@y^0,w,c
  3656   0005F4  2410               	addwf	drawRect@i_516^0,w,c
  3657   0005F6  6E01               	movwf	drawPixel@y^0,c
  3658   0005F8  0E01               	movlw	1
  3659   0005FA  6E02               	movwf	drawPixel@color^0,c
  3660   0005FC  5011               	movf	drawRect@x^0,w,c
  3661   0005FE  240C               	addwf	drawRect@w^0,w,c
  3662   000600  6E0E               	movwf	??_drawRect^0,c
  3663   000602  040E               	decf	??_drawRect^0,w,c
  3664   000604  ECD7  F001         	call	_drawPixel
  3665   000608                     
  3666                           ;moduleDogm128.c: 263:     }
  3667   000608  2A10               	incf	drawRect@i_516^0,f,c
  3668   00060A                     l1544:
  3669   00060A  500D               	movf	drawRect@h^0,w,c
  3670   00060C  5C10               	subwf	drawRect@i_516^0,w,c
  3671   00060E  A0D8               	btfss	status,0,c
  3672   000610  EF0C  F003         	goto	u721
  3673   000614  EF0E  F003         	goto	u720
  3674   000618                     u721:
  3675   000618  EFF1  F002         	goto	l1540
  3676   00061C                     u720:
  3677   00061C  0012               	return		;funcret
  3678   00061E                     __end_of_drawRect:
  3679                           	callstack 0
  3680                           
  3681 ;; *************** function _drawPixel *****************
  3682 ;; Defined at:
  3683 ;;		line 207 in file "moduleDogm128.c"
  3684 ;; Parameters:    Size  Location     Type
  3685 ;;  x               1    wreg     unsigned char 
  3686 ;;  y               1    0[COMRAM] unsigned char 
  3687 ;;  color           1    1[COMRAM] unsigned char 
  3688 ;; Auto vars:     Size  Location     Type
  3689 ;;  x               1    9[COMRAM] unsigned char 
  3690 ;;  bit             1    8[COMRAM] unsigned char 
  3691 ;;  page            1    7[COMRAM] unsigned char 
  3692 ;; Return value:  Size  Location     Type
  3693 ;;                  1    wreg      void 
  3694 ;; Registers used:
  3695 ;;		wreg, fsr2l, fsr2h, status,2, status,0, prodl, prodh
  3696 ;; Tracked objects:
  3697 ;;		On entry : 0/0
  3698 ;;		On exit  : 0/0
  3699 ;;		Unchanged: 0/0
  3700 ;; Data sizes:     COMRAM   BANK0   BANK1   BANK2   BANK3   BANK4   BANK5   BANK6   BANK7
  3701 ;;      Params:         2       0       0       0       0       0       0       0       0
  3702 ;;      Locals:         3       0       0       0       0       0       0       0       0
  3703 ;;      Temps:          5       0       0       0       0       0       0       0       0
  3704 ;;      Totals:        10       0       0       0       0       0       0       0       0
  3705 ;;Total ram usage:       10 bytes
  3706 ;; Hardware stack levels used: 1
  3707 ;; Hardware stack levels required when called: 1
  3708 ;; This function calls:
  3709 ;;		Nothing
  3710 ;; This function is called by:
  3711 ;;		_drawRect
  3712 ;;		_fillRect
  3713 ;;		_drawLine
  3714 ;; This function uses a non-reentrant model
  3715 ;;
  3716                           
  3717                           	psect	text23
  3718   0003AE                     __ptext23:
  3719                           	callstack 0
  3720   0003AE                     _drawPixel:
  3721                           	callstack 27
  3722                           
  3723                           ;incstack = 0
  3724                           ;drawPixel@x stored from wreg
  3725   0003AE  6E0A               	movwf	drawPixel@x^0,c
  3726   0003B0                     
  3727                           ;moduleDogm128.c: 207: void drawPixel(uint8_t x, uint8_t y, uint8_t color);moduleDogm128
      +                          .c: 208: {;moduleDogm128.c: 209:     if (x >= 128 || y >= 64) return;
  3728   0003B0  0E80               	movlw	128
  3729   0003B2  600A               	cpfslt	drawPixel@x^0,c
  3730   0003B4  EFDE  F001         	goto	u601
  3731   0003B8  EFE0  F001         	goto	u600
  3732   0003BC                     u601:
  3733   0003BC  EF36  F002         	goto	l248
  3734   0003C0                     u600:
  3735   0003C0  0E3F               	movlw	63
  3736   0003C2  6401               	cpfsgt	drawPixel@y^0,c
  3737   0003C4  EFE6  F001         	goto	u611
  3738   0003C8  EFE8  F001         	goto	u610
  3739   0003CC                     u611:
  3740   0003CC  EFEA  F001         	goto	l1486
  3741   0003D0                     u610:
  3742   0003D0  EF36  F002         	goto	l248
  3743   0003D4                     l1486:
  3744                           
  3745                           ;moduleDogm128.c: 211:     uint8_t page = y >> 3;
  3746   0003D4  3801               	swapf	drawPixel@y^0,w,c
  3747   0003D6  46E8               	rlncf	wreg,f,c
  3748   0003D8  0B1F               	andlw	31
  3749   0003DA  6E08               	movwf	drawPixel@page^0,c
  3750                           
  3751                           ;moduleDogm128.c: 212:     uint8_t bit = y & 0x07;
  3752   0003DC  5001               	movf	drawPixel@y^0,w,c
  3753   0003DE  0B07               	andlw	7
  3754   0003E0  6E09               	movwf	drawPixel@bit^0,c
  3755   0003E2                     
  3756                           ;moduleDogm128.c: 214:     if (color)
  3757   0003E2  5002               	movf	drawPixel@color^0,w,c
  3758   0003E4  B4D8               	btfsc	status,2,c
  3759   0003E6  EFF7  F001         	goto	u621
  3760   0003EA  EFF9  F001         	goto	u620
  3761   0003EE                     u621:
  3762   0003EE  EF17  F002         	goto	l1492
  3763   0003F2                     u620:
  3764   0003F2                     
  3765                           ;moduleDogm128.c: 215:         displayBuffer[page][x] |= (1 << bit);
  3766   0003F2  C009  F003         	movff	drawPixel@bit,??_drawPixel
  3767   0003F6  0E01               	movlw	1
  3768   0003F8  6E04               	movwf	(??_drawPixel+1)^0,c
  3769   0003FA  2A03               	incf	??_drawPixel^0,f,c
  3770   0003FC  EF02  F002         	goto	u634
  3771   000400                     u635:
  3772   000400  90D8               	bcf	status,0,c
  3773   000402  3604               	rlcf	(??_drawPixel+1)^0,f,c
  3774   000404                     u634:
  3775   000404  2E03               	decfsz	??_drawPixel^0,f,c
  3776   000406  EF00  F002         	goto	u635
  3777   00040A  5008               	movf	drawPixel@page^0,w,c
  3778   00040C  0D80               	mullw	128
  3779   00040E  0E00               	movlw	low _displayBuffer
  3780   000410  24F3               	addwf	243,w,c
  3781   000412  6E05               	movwf	(??_drawPixel+2)^0,c
  3782   000414  0E04               	movlw	high _displayBuffer
  3783   000416  20F4               	addwfc	prodh,w,c
  3784   000418  6E06               	movwf	(??_drawPixel+3)^0,c
  3785   00041A  500A               	movf	drawPixel@x^0,w,c
  3786   00041C  2405               	addwf	(??_drawPixel+2)^0,w,c
  3787   00041E  6ED9               	movwf	fsr2l,c
  3788   000420  0E00               	movlw	0
  3789   000422  2006               	addwfc	(??_drawPixel+3)^0,w,c
  3790   000424  6EDA               	movwf	fsr2h,c
  3791   000426  5004               	movf	(??_drawPixel+1)^0,w,c
  3792   000428  12DF               	iorwf	indf2,f,c
  3793   00042A  EF36  F002         	goto	l248
  3794   00042E                     l1492:
  3795                           
  3796                           ;moduleDogm128.c: 217:         displayBuffer[page][x] &= ~(1 << bit);
  3797   00042E  C009  F003         	movff	drawPixel@bit,??_drawPixel
  3798   000432  0E01               	movlw	1
  3799   000434  6E04               	movwf	(??_drawPixel+1)^0,c
  3800   000436  2A03               	incf	??_drawPixel^0,f,c
  3801   000438  EF20  F002         	goto	u644
  3802   00043C                     u645:
  3803   00043C  90D8               	bcf	status,0,c
  3804   00043E  3604               	rlcf	(??_drawPixel+1)^0,f,c
  3805   000440                     u644:
  3806   000440  2E03               	decfsz	??_drawPixel^0,f,c
  3807   000442  EF1E  F002         	goto	u645
  3808   000446  5004               	movf	(??_drawPixel+1)^0,w,c
  3809   000448  0AFF               	xorlw	255
  3810   00044A  6E05               	movwf	(??_drawPixel+2)^0,c
  3811   00044C  5008               	movf	drawPixel@page^0,w,c
  3812   00044E  0D80               	mullw	128
  3813   000450  0E00               	movlw	low _displayBuffer
  3814   000452  24F3               	addwf	243,w,c
  3815   000454  6E06               	movwf	(??_drawPixel+3)^0,c
  3816   000456  0E04               	movlw	high _displayBuffer
  3817   000458  20F4               	addwfc	prodh,w,c
  3818   00045A  6E07               	movwf	(??_drawPixel+4)^0,c
  3819   00045C  500A               	movf	drawPixel@x^0,w,c
  3820   00045E  2406               	addwf	(??_drawPixel+3)^0,w,c
  3821   000460  6ED9               	movwf	fsr2l,c
  3822   000462  0E00               	movlw	0
  3823   000464  2007               	addwfc	(??_drawPixel+4)^0,w,c
  3824   000466  6EDA               	movwf	fsr2h,c
  3825   000468  5005               	movf	(??_drawPixel+2)^0,w,c
  3826   00046A  16DF               	andwf	indf2,f,c
  3827   00046C                     l248:
  3828   00046C  0012               	return		;funcret
  3829   00046E                     __end_of_drawPixel:
  3830                           	callstack 0
  3831                           
  3832 ;; *************** function _clearLeds *****************
  3833 ;; Defined at:
  3834 ;;		line 186 in file "main.c"
  3835 ;; Parameters:    Size  Location     Type
  3836 ;;		None
  3837 ;; Auto vars:     Size  Location     Type
  3838 ;;		None
  3839 ;; Return value:  Size  Location     Type
  3840 ;;                  1    wreg      void 
  3841 ;; Registers used:
  3842 ;;		status,2, status,0
  3843 ;; Tracked objects:
  3844 ;;		On entry : 0/0
  3845 ;;		On exit  : 0/0
  3846 ;;		Unchanged: 0/0
  3847 ;; Data sizes:     COMRAM   BANK0   BANK1   BANK2   BANK3   BANK4   BANK5   BANK6   BANK7
  3848 ;;      Params:         0       0       0       0       0       0       0       0       0
  3849 ;;      Locals:         0       0       0       0       0       0       0       0       0
  3850 ;;      Temps:          0       0       0       0       0       0       0       0       0
  3851 ;;      Totals:         0       0       0       0       0       0       0       0       0
  3852 ;;Total ram usage:        0 bytes
  3853 ;; Hardware stack levels used: 1
  3854 ;; Hardware stack levels required when called: 1
  3855 ;; This function calls:
  3856 ;;		Nothing
  3857 ;; This function is called by:
  3858 ;;		_main
  3859 ;; This function uses a non-reentrant model
  3860 ;;
  3861                           
  3862                           	psect	text24
  3863   000A22                     __ptext24:
  3864                           	callstack 0
  3865   000A22                     _clearLeds:
  3866                           	callstack 29
  3867   000A22                     
  3868                           ;main.c: 188:     (LATA &= ~(1<<0));
  3869   000A22  9089               	bcf	137,0,c	;volatile
  3870                           
  3871                           ;main.c: 189:     (LATA &= ~(1<<1));
  3872   000A24  9289               	bcf	137,1,c	;volatile
  3873                           
  3874                           ;main.c: 190:     (LATA &= ~(1<<2));
  3875   000A26  9489               	bcf	137,2,c	;volatile
  3876                           
  3877                           ;main.c: 191:     (LATA &= ~(1<<3));
  3878   000A28  9689               	bcf	137,3,c	;volatile
  3879                           
  3880                           ;main.c: 192:     (LATA &= ~(1<<4));
  3881   000A2A  9889               	bcf	137,4,c	;volatile
  3882   000A2C  0012               	return		;funcret
  3883   000A2E                     __end_of_clearLeds:
  3884                           	callstack 0
  3885                           
  3886 ;; *************** function _clearBuffer *****************
  3887 ;; Defined at:
  3888 ;;		line 281 in file "moduleDogm128.c"
  3889 ;; Parameters:    Size  Location     Type
  3890 ;;		None
  3891 ;; Auto vars:     Size  Location     Type
  3892 ;;  col             1    3[COMRAM] unsigned char 
  3893 ;;  pg              1    2[COMRAM] unsigned char 
  3894 ;; Return value:  Size  Location     Type
  3895 ;;                  1    wreg      void 
  3896 ;; Registers used:
  3897 ;;		wreg, fsr2l, fsr2h, status,2, status,0, prodl, prodh
  3898 ;; Tracked objects:
  3899 ;;		On entry : 0/0
  3900 ;;		On exit  : 0/0
  3901 ;;		Unchanged: 0/0
  3902 ;; Data sizes:     COMRAM   BANK0   BANK1   BANK2   BANK3   BANK4   BANK5   BANK6   BANK7
  3903 ;;      Params:         0       0       0       0       0       0       0       0       0
  3904 ;;      Locals:         2       0       0       0       0       0       0       0       0
  3905 ;;      Temps:          2       0       0       0       0       0       0       0       0
  3906 ;;      Totals:         4       0       0       0       0       0       0       0       0
  3907 ;;Total ram usage:        4 bytes
  3908 ;; Hardware stack levels used: 1
  3909 ;; Hardware stack levels required when called: 1
  3910 ;; This function calls:
  3911 ;;		Nothing
  3912 ;; This function is called by:
  3913 ;;		_main
  3914 ;; This function uses a non-reentrant model
  3915 ;;
  3916                           
  3917                           	psect	text25
  3918   0008B0                     __ptext25:
  3919                           	callstack 0
  3920   0008B0                     _clearBuffer:
  3921                           	callstack 29
  3922   0008B0                     
  3923                           ;moduleDogm128.c: 283:     for (uint8_t pg = 0; pg < 8; pg++)
  3924   0008B0  6A03               	clrf	clearBuffer@pg^0,c
  3925   0008B2                     l289:
  3926                           
  3927                           ;moduleDogm128.c: 284:     {;moduleDogm128.c: 285:         for (uint8_t col = 0; col < 1
      +                          28; col++)
  3928   0008B2  6A04               	clrf	clearBuffer@col^0,c
  3929   0008B4                     l1322:
  3930                           
  3931                           ;moduleDogm128.c: 286:         {;moduleDogm128.c: 287:             displayBuffer[pg][col
      +                          ] = 0x00;
  3932   0008B4  5003               	movf	clearBuffer@pg^0,w,c
  3933   0008B6  0D80               	mullw	128
  3934   0008B8  0E00               	movlw	low _displayBuffer
  3935   0008BA  24F3               	addwf	243,w,c
  3936   0008BC  6E01               	movwf	??_clearBuffer^0,c
  3937   0008BE  0E04               	movlw	high _displayBuffer
  3938   0008C0  20F4               	addwfc	prodh,w,c
  3939   0008C2  6E02               	movwf	(??_clearBuffer+1)^0,c
  3940   0008C4  5004               	movf	clearBuffer@col^0,w,c
  3941   0008C6  2401               	addwf	??_clearBuffer^0,w,c
  3942   0008C8  6ED9               	movwf	fsr2l,c
  3943   0008CA  0E00               	movlw	0
  3944   0008CC  2002               	addwfc	(??_clearBuffer+1)^0,w,c
  3945   0008CE  6EDA               	movwf	fsr2h,c
  3946   0008D0  6ADF               	clrf	indf2,c
  3947   0008D2                     
  3948                           ;moduleDogm128.c: 288:         }
  3949   0008D2  2A04               	incf	clearBuffer@col^0,f,c
  3950   0008D4  0E7F               	movlw	127
  3951   0008D6  6404               	cpfsgt	clearBuffer@col^0,c
  3952   0008D8  EF70  F004         	goto	u391
  3953   0008DC  EF72  F004         	goto	u390
  3954   0008E0                     u391:
  3955   0008E0  EF5A  F004         	goto	l1322
  3956   0008E4                     u390:
  3957   0008E4                     
  3958                           ;moduleDogm128.c: 289:     }
  3959   0008E4  2A03               	incf	clearBuffer@pg^0,f,c
  3960   0008E6  0E07               	movlw	7
  3961   0008E8  6403               	cpfsgt	clearBuffer@pg^0,c
  3962   0008EA  EF79  F004         	goto	u401
  3963   0008EE  EF7B  F004         	goto	u400
  3964   0008F2                     u401:
  3965   0008F2  EF59  F004         	goto	l289
  3966   0008F6                     u400:
  3967   0008F6  0012               	return		;funcret
  3968   0008F8                     __end_of_clearBuffer:
  3969                           	callstack 0
  3970                           
  3971 ;; *************** function _isr *****************
  3972 ;; Defined at:
  3973 ;;		line 147 in file "main.c"
  3974 ;; Parameters:    Size  Location     Type
  3975 ;;		None
  3976 ;; Auto vars:     Size  Location     Type
  3977 ;;		None
  3978 ;; Return value:  Size  Location     Type
  3979 ;;                  1    wreg      void 
  3980 ;; Registers used:
  3981 ;;		wreg, status,2, status,0
  3982 ;; Tracked objects:
  3983 ;;		On entry : 0/0
  3984 ;;		On exit  : 0/0
  3985 ;;		Unchanged: 0/0
  3986 ;; Data sizes:     COMRAM   BANK0   BANK1   BANK2   BANK3   BANK4   BANK5   BANK6   BANK7
  3987 ;;      Params:         0       0       0       0       0       0       0       0       0
  3988 ;;      Locals:         0       0       0       0       0       0       0       0       0
  3989 ;;      Temps:          0       0       0       0       0       0       0       0       0
  3990 ;;      Totals:         0       0       0       0       0       0       0       0       0
  3991 ;;Total ram usage:        0 bytes
  3992 ;; Hardware stack levels used: 1
  3993 ;; This function calls:
  3994 ;;		Nothing
  3995 ;; This function is called by:
  3996 ;;		Interrupt level 2
  3997 ;; This function uses a non-reentrant model
  3998 ;;
  3999                           
  4000                           	psect	intcode
  4001   000008                     __pintcode:
  4002                           	callstack 0
  4003   000008                     _isr:
  4004                           	callstack 24
  4005                           
  4006                           ;incstack = 0
  4007   000008  822D               	bsf	int$flags,1,c	;set compiler interrupt flag (level 2)
  4008   00000A  ED31  F004         	call	int_func,f	;refresh shadow registers
  4009                           
  4010                           	psect	intcode_body
  4011   000862                     __pintcode_body:
  4012                           	callstack 24
  4013   000862                     int_func:
  4014                           	callstack 24
  4015   000862  0006               	pop		; remove dummy address from shadow register refresh
  4016   000864                     
  4017                           ;main.c: 150:     if(TMR0IF && TMR0IE)
  4018   000864  A4F2               	btfss	4082,2,c	;volatile
  4019   000866  EF37  F004         	goto	i2u45_41
  4020   00086A  EF39  F004         	goto	i2u45_40
  4021   00086E                     i2u45_41:
  4022   00086E  EF41  F004         	goto	i2l105
  4023   000872                     i2u45_40:
  4024   000872  AAF2               	btfss	4082,5,c	;volatile
  4025   000874  EF3E  F004         	goto	i2u46_41
  4026   000878  EF40  F004         	goto	i2u46_40
  4027   00087C                     i2u46_41:
  4028   00087C  EF41  F004         	goto	i2l105
  4029   000880                     i2u46_40:
  4030   000880                     
  4031                           ;main.c: 151:     {;main.c: 153:         TMR0IF = 0;
  4032   000880  94F2               	bcf	4082,2,c	;volatile
  4033   000882                     i2l105:
  4034                           
  4035                           ;main.c: 156:     if(TMR2IF && TMR2IE)
  4036   000882  A29E               	btfss	3998,1,c	;volatile
  4037   000884  EF46  F004         	goto	i2u47_41
  4038   000888  EF48  F004         	goto	i2u47_40
  4039   00088C                     i2u47_41:
  4040   00088C  EF56  F004         	goto	i2l107
  4041   000890                     i2u47_40:
  4042   000890  A29D               	btfss	3997,1,c	;volatile
  4043   000892  EF4D  F004         	goto	i2u48_41
  4044   000896  EF4F  F004         	goto	i2u48_40
  4045   00089A                     i2u48_41:
  4046   00089A  EF56  F004         	goto	i2l107
  4047   00089E                     i2u48_40:
  4048   00089E                     
  4049                           ;main.c: 157:     {;main.c: 159:        (uint32_t) millis++;
  4050   00089E  0E01               	movlw	1
  4051   0008A0  2621               	addwf	_millis^0,f,c	;volatile
  4052   0008A2  0E00               	movlw	0
  4053   0008A4  2222               	addwfc	(_millis+1)^0,f,c	;volatile
  4054   0008A6  2223               	addwfc	(_millis+2)^0,f,c	;volatile
  4055   0008A8  2224               	addwfc	(_millis+3)^0,f,c	;volatile
  4056   0008AA                     
  4057                           ;main.c: 160:         TMR2IF = 0;
  4058   0008AA  929E               	bcf	3998,1,c	;volatile
  4059   0008AC                     i2l107:
  4060   0008AC  922D               	bcf	int$flags,1,c	;clear compiler interrupt flag (level 2)
  4061   0008AE  0011               	retfie		f
  4062   0008B0                     __end_of_isr:
  4063                           	callstack 0
  4064                           
  4065                           	psect	rparam
  4066   000001                     ___rparam_used  equ	1
  4067   000000                     ___param_bank   equ	0
  4068   000000                     __Lparam        equ	__Lrparam
  4069   000000                     __Hparam        equ	__Hrparam
  4070                           
  4071                           	psect	temp
  4072   00002D                     btemp:
  4073                           	callstack 0
  4074   00002D                     	ds	1
  4075   00002D                     int$flags       set	btemp
  4076   00002E                     wtemp8          set	btemp+1
  4077   00002E                     ttemp5          set	btemp+1
  4078   000031                     ttemp6          set	btemp+4
  4079   000035                     ttemp7          set	btemp+8
  4080                           
  4081                           	psect	config
  4082                           
  4083                           ;Config register CONFIG1L @ 0x300000
  4084                           ;	PLL Prescaler Selection bits
  4085                           ;	PLLDIV = 4, Divide by 4 (16 MHz oscillator input)
  4086                           ;	System Clock Postscaler Selection bits
  4087                           ;	CPUDIV = OSC1_PLL2, [Primary Oscillator Src: /1][96 MHz PLL Src: /2]
  4088                           ;	USB Clock Selection bit (used in Full-Speed USB mode only; UCFG:FSEN = 1)
  4089                           ;	USBDIV = 1, USB clock source comes directly from the primary oscillator block with no 
      +                          postscale
  4090   300000                     	org	3145728
  4091   300000  03                 	db	3
  4092                           
  4093                           ;Config register CONFIG1H @ 0x300001
  4094                           ;	Oscillator Selection bits
  4095                           ;	FOSC = HSPLL_HS, HS oscillator, PLL enabled (HSPLL)
  4096                           ;	Fail-Safe Clock Monitor Enable bit
  4097                           ;	FCMEN = OFF, Fail-Safe Clock Monitor disabled
  4098                           ;	Internal/External Oscillator Switchover bit
  4099                           ;	IESO = OFF, Oscillator Switchover mode disabled
  4100   300001                     	org	3145729
  4101   300001  0E                 	db	14
  4102                           
  4103                           ;Config register CONFIG2L @ 0x300002
  4104                           ;	Power-up Timer Enable bit
  4105                           ;	PWRT = OFF, PWRT disabled
  4106                           ;	Brown-out Reset Enable bits
  4107                           ;	BOR = ON, Brown-out Reset enabled in hardware only (SBOREN is disabled)
  4108                           ;	Brown-out Reset Voltage bits
  4109                           ;	BORV = 3, Minimum setting 2.05V
  4110                           ;	USB Voltage Regulator Enable bit
  4111                           ;	VREGEN = OFF, USB voltage regulator disabled
  4112   300002                     	org	3145730
  4113   300002  1F                 	db	31
  4114                           
  4115                           ;Config register CONFIG2H @ 0x300003
  4116                           ;	Watchdog Timer Enable bit
  4117                           ;	WDT = OFF, WDT disabled (control is placed on the SWDTEN bit)
  4118                           ;	Watchdog Timer Postscale Select bits
  4119                           ;	WDTPS = 32768, 1:32768
  4120   300003                     	org	3145731
  4121   300003  1E                 	db	30
  4122                           
  4123                           ; Padding undefined space
  4124   300004                     	org	3145732
  4125   300004  FF                 	db	255
  4126                           
  4127                           ;Config register CONFIG3H @ 0x300005
  4128                           ;	CCP2 MUX bit
  4129                           ;	CCP2MX = ON, CCP2 input/output is multiplexed with RC1
  4130                           ;	PORTB A/D Enable bit
  4131                           ;	PBADEN = OFF, PORTB<4:0> pins are configured as digital I/O on Reset
  4132                           ;	Low-Power Timer 1 Oscillator Enable bit
  4133                           ;	LPT1OSC = OFF, Timer1 configured for higher power operation
  4134                           ;	MCLR Pin Enable bit
  4135                           ;	MCLRE = ON, MCLR pin enabled; RE3 input pin disabled
  4136   300005                     	org	3145733
  4137   300005  81                 	db	129
  4138                           
  4139                           ;Config register CONFIG4L @ 0x300006
  4140                           ;	Stack Full/Underflow Reset Enable bit
  4141                           ;	STVREN = ON, Stack full/underflow will cause Reset
  4142                           ;	Single-Supply ICSP Enable bit
  4143                           ;	LVP = OFF, Single-Supply ICSP disabled
  4144                           ;	Dedicated In-Circuit Debug/Programming Port (ICPORT) Enable bit
  4145                           ;	ICPRT = OFF, ICPORT disabled
  4146                           ;	Extended Instruction Set Enable bit
  4147                           ;	XINST = OFF, Instruction set extension and Indexed Addressing mode disabled (Legacy mo
      +                          de)
  4148                           ;	Background Debugger Enable bit
  4149                           ;	DEBUG = 0x1, unprogrammed default
  4150   300006                     	org	3145734
  4151   300006  81                 	db	129
  4152                           
  4153                           ; Padding undefined space
  4154   300007                     	org	3145735
  4155   300007  FF                 	db	255
  4156                           
  4157                           ;Config register CONFIG5L @ 0x300008
  4158                           ;	Code Protection bit
  4159                           ;	CP0 = OFF, Block 0 (000800-001FFFh) is not code-protected
  4160                           ;	Code Protection bit
  4161                           ;	CP1 = OFF, Block 1 (002000-003FFFh) is not code-protected
  4162                           ;	Code Protection bit
  4163                           ;	CP2 = OFF, Block 2 (004000-005FFFh) is not code-protected
  4164                           ;	Code Protection bit
  4165                           ;	CP3 = OFF, Block 3 (006000-007FFFh) is not code-protected
  4166   300008                     	org	3145736
  4167   300008  0F                 	db	15
  4168                           
  4169                           ;Config register CONFIG5H @ 0x300009
  4170                           ;	Boot Block Code Protection bit
  4171                           ;	CPB = OFF, Boot block (000000-0007FFh) is not code-protected
  4172                           ;	Data EEPROM Code Protection bit
  4173                           ;	CPD = OFF, Data EEPROM is not code-protected
  4174   300009                     	org	3145737
  4175   300009  C0                 	db	192
  4176                           
  4177                           ;Config register CONFIG6L @ 0x30000A
  4178                           ;	Write Protection bit
  4179                           ;	WRT0 = OFF, Block 0 (000800-001FFFh) is not write-protected
  4180                           ;	Write Protection bit
  4181                           ;	WRT1 = OFF, Block 1 (002000-003FFFh) is not write-protected
  4182                           ;	Write Protection bit
  4183                           ;	WRT2 = OFF, Block 2 (004000-005FFFh) is not write-protected
  4184                           ;	Write Protection bit
  4185                           ;	WRT3 = OFF, Block 3 (006000-007FFFh) is not write-protected
  4186   30000A                     	org	3145738
  4187   30000A  0F                 	db	15
  4188                           
  4189                           ;Config register CONFIG6H @ 0x30000B
  4190                           ;	Configuration Register Write Protection bit
  4191                           ;	WRTC = OFF, Configuration registers (300000-3000FFh) are not write-protected
  4192                           ;	Boot Block Write Protection bit
  4193                           ;	WRTB = OFF, Boot block (000000-0007FFh) is not write-protected
  4194                           ;	Data EEPROM Write Protection bit
  4195                           ;	WRTD = OFF, Data EEPROM is not write-protected
  4196   30000B                     	org	3145739
  4197   30000B  E0                 	db	224
  4198                           
  4199                           ;Config register CONFIG7L @ 0x30000C
  4200                           ;	Table Read Protection bit
  4201                           ;	EBTR0 = OFF, Block 0 (000800-001FFFh) is not protected from table reads executed in ot
      +                          her blocks
  4202                           ;	Table Read Protection bit
  4203                           ;	EBTR1 = OFF, Block 1 (002000-003FFFh) is not protected from table reads executed in ot
      +                          her blocks
  4204                           ;	Table Read Protection bit
  4205                           ;	EBTR2 = OFF, Block 2 (004000-005FFFh) is not protected from table reads executed in ot
      +                          her blocks
  4206                           ;	Table Read Protection bit
  4207                           ;	EBTR3 = OFF, Block 3 (006000-007FFFh) is not protected from table reads executed in ot
      +                          her blocks
  4208   30000C                     	org	3145740
  4209   30000C  0F                 	db	15
  4210                           
  4211                           ;Config register CONFIG7H @ 0x30000D
  4212                           ;	Boot Block Table Read Protection bit
  4213                           ;	EBTRB = OFF, Boot block (000000-0007FFh) is not protected from table reads executed in
      +                           other blocks
  4214   30000D                     	org	3145741
  4215   30000D  40                 	db	64
  4216                           tosu	equ	0xFFF
  4217                           tosh	equ	0xFFE
  4218                           tosl	equ	0xFFD
  4219                           stkptr	equ	0xFFC
  4220                           pclatu	equ	0xFFB
  4221                           pclath	equ	0xFFA
  4222                           pcl	equ	0xFF9
  4223                           tblptru	equ	0xFF8
  4224                           tblptrh	equ	0xFF7
  4225                           tblptrl	equ	0xFF6
  4226                           tablat	equ	0xFF5
  4227                           prodh	equ	0xFF4
  4228                           prodl	equ	0xFF3
  4229                           indf0	equ	0xFEF
  4230                           postinc0	equ	0xFEE
  4231                           postdec0	equ	0xFED
  4232                           preinc0	equ	0xFEC
  4233                           plusw0	equ	0xFEB
  4234                           fsr0h	equ	0xFEA
  4235                           fsr0l	equ	0xFE9
  4236                           wreg	equ	0xFE8
  4237                           indf1	equ	0xFE7
  4238                           postinc1	equ	0xFE6
  4239                           postdec1	equ	0xFE5
  4240                           preinc1	equ	0xFE4
  4241                           plusw1	equ	0xFE3
  4242                           fsr1h	equ	0xFE2
  4243                           fsr1l	equ	0xFE1
  4244                           bsr	equ	0xFE0
  4245                           indf2	equ	0xFDF
  4246                           postinc2	equ	0xFDE
  4247                           postdec2	equ	0xFDD
  4248                           preinc2	equ	0xFDC
  4249                           plusw2	equ	0xFDB
  4250                           fsr2h	equ	0xFDA
  4251                           fsr2l	equ	0xFD9
  4252                           status	equ	0xFD8

Data Sizes:
    Strings     0
    Constant    460
    Data        5
    BSS         1031
    Persistent  0
    Stack       0

Auto Spaces:
    Space          Size  Autos    Used
    COMRAM           94     32      44
    BANK0           160      0       0
    BANK1           256      0       0
    BANK2           256      0       0
    BANK3           239      0       0
    BANK4           256      0       0
    BANK5           256      0       0
    BANK6           256      0       0
    BANK7           256      0       0

Pointer List with Targets:

    drawText@txt	PTR const unsigned char  size(1) Largest target is 5
		 -> DispCtrStr(COMRAM[5]), 

    sp__utoa32	PTR unsigned char  size(1) Largest target is 5
		 -> DispCtrStr(COMRAM[5]), 

    utoa32@buffer	PTR unsigned char  size(1) Largest target is 5
		 -> DispCtrStr(COMRAM[5]), 


Critical Paths under _main in COMRAM

    _updateDisplay->_setColumnAddress
    _initDisplay->_clearAllDisplay
    _clearAllDisplay->_clearPageDisplay
    _clearPageDisplay->_setColumnAddress
    _setPageAddress->_sendCommandToDisplay
    _setColumnAddress->_sendCommandToDisplay
    _sendCommandToDisplay->_sendByteSpi
    _sendDataToDisplay->_sendByteSpi
    _drawUi->_utoa32
    _utoa32->___lldiv
    _fillRect->_drawPixel
    _drawRect->_drawPixel

Critical Paths under _isr in COMRAM

    None.

Critical Paths under _main in BANK0

    None.

Critical Paths under _isr in BANK0

    None.

Critical Paths under _main in BANK1

    None.

Critical Paths under _isr in BANK1

    None.

Critical Paths under _main in BANK2

    None.

Critical Paths under _isr in BANK2

    None.

Critical Paths under _main in BANK3

    None.

Critical Paths under _isr in BANK3

    None.

Critical Paths under _main in BANK4

    None.

Critical Paths under _isr in BANK4

    None.

Critical Paths under _main in BANK5

    None.

Critical Paths under _isr in BANK5

    None.

Critical Paths under _main in BANK6

    None.

Critical Paths under _isr in BANK6

    None.

Critical Paths under _main in BANK7

    None.

Critical Paths under _isr in BANK7

    None.

Call Graph Tables:

 ---------------------------------------------------------------------------------
 (Depth) Function   	        Calls       Base Space   Used Autos Params    Refs
 ---------------------------------------------------------------------------------
 (0) _main                                                 0     0      0    3244
                            ___llmod
                        _clearBuffer
                          _clearLeds
                             _drawUi
                     _handleSwitches
                        _initDisplay
                       _setInterrupt
                          _setPinout
                          _setTimer0
                          _setTimer2
                      _updateDisplay
 ---------------------------------------------------------------------------------
 (1) _updateDisplay                                        4     4      0     300
                                              4 COMRAM     4     4      0
                  _sendDataToDisplay
                   _setColumnAddress
                     _setPageAddress
 ---------------------------------------------------------------------------------
 (1) _setTimer2                                            0     0      0       0
 ---------------------------------------------------------------------------------
 (1) _setTimer0                                            0     0      0       0
 ---------------------------------------------------------------------------------
 (1) _setPinout                                            0     0      0       0
 ---------------------------------------------------------------------------------
 (1) _setInterrupt                                         0     0      0       0
 ---------------------------------------------------------------------------------
 (1) _initDisplay                                          0     0      0     315
                    _clearAllDisplay
                            _initSpi
               _sendCommandToDisplay
 ---------------------------------------------------------------------------------
 (2) _initSpi                                              0     0      0       0
 ---------------------------------------------------------------------------------
 (2) _clearAllDisplay                                      1     1      0     285
                                              7 COMRAM     1     1      0
                   _clearPageDisplay
 ---------------------------------------------------------------------------------
 (3) _clearPageDisplay                                     3     3      0     240
                                              4 COMRAM     3     3      0
                  _sendDataToDisplay
                   _setColumnAddress
                     _setPageAddress
 ---------------------------------------------------------------------------------
 (2) _setPageAddress                                       1     1      0      60
                                              2 COMRAM     1     1      0
               _sendCommandToDisplay
 ---------------------------------------------------------------------------------
 (2) _setColumnAddress                                     2     2      0     105
                                              2 COMRAM     2     2      0
               _sendCommandToDisplay
 ---------------------------------------------------------------------------------
 (3) _sendCommandToDisplay                                 1     1      0      30
                                              1 COMRAM     1     1      0
                        _sendByteSpi
 ---------------------------------------------------------------------------------
 (2) _sendDataToDisplay                                    1     1      0      30
                                              1 COMRAM     1     1      0
                        _sendByteSpi
 ---------------------------------------------------------------------------------
 (4) _sendByteSpi                                          1     1      0      15
                                              0 COMRAM     1     1      0
 ---------------------------------------------------------------------------------
 (1) _handleSwitches                                       0     0      0       0
 ---------------------------------------------------------------------------------
 (1) _drawUi                                               0     0      0    2376
                           _drawRect
                           _drawText
                           _fillRect
                             _utoa32
 ---------------------------------------------------------------------------------
 (2) _utoa32                                              19    14      5     679
                                             13 COMRAM    19    14      5
                            ___lldiv
                            ___llmod
 ---------------------------------------------------------------------------------
 (3) ___llmod                                              9     1      8     163
                                              0 COMRAM     9     1      8
 ---------------------------------------------------------------------------------
 (3) ___lldiv                                             13     5      8     164
                                              0 COMRAM    13     5      8
 ---------------------------------------------------------------------------------
 (2) _fillRect                                             7     3      4     562
                                             10 COMRAM     7     3      4
                          _drawPixel
 ---------------------------------------------------------------------------------
 (2) _drawText                                            10     8      2     406
                                              0 COMRAM    10     8      2
 ---------------------------------------------------------------------------------
 (2) _drawRect                                             7     4      3     729
                                             10 COMRAM     7     4      3
                          _drawPixel
 ---------------------------------------------------------------------------------
 (3) _drawPixel                                           10     8      2     277
                                              0 COMRAM    10     8      2
 ---------------------------------------------------------------------------------
 (1) _clearLeds                                            0     0      0       0
 ---------------------------------------------------------------------------------
 (1) _clearBuffer                                          4     4      0      90
                                              0 COMRAM     4     4      0
 ---------------------------------------------------------------------------------
 Estimated maximum stack depth 4
 ---------------------------------------------------------------------------------
 (Depth) Function   	        Calls       Base Space   Used Autos Params    Refs
 ---------------------------------------------------------------------------------
 (7) _isr                                                  0     0      0       0
 ---------------------------------------------------------------------------------
 Estimated maximum stack depth 7
 ---------------------------------------------------------------------------------

 Call Graph Graphs:

 _main (ROOT)
   ___llmod
   _clearBuffer
   _clearLeds
   _drawUi
     _drawRect
       _drawPixel
     _drawText
     _fillRect
       _drawPixel
     _utoa32
       ___lldiv
       ___llmod
   _handleSwitches
   _initDisplay
     _clearAllDisplay
       _clearPageDisplay
         _sendDataToDisplay
           _sendByteSpi
         _setColumnAddress
           _sendCommandToDisplay
             _sendByteSpi
         _setPageAddress
           _sendCommandToDisplay
     _initSpi
     _sendCommandToDisplay
   _setInterrupt
   _setPinout
   _setTimer0
   _setTimer2
   _updateDisplay
     _sendDataToDisplay
     _setColumnAddress
     _setPageAddress

 _isr (ROOT)

Address spaces:
Name               Size   Autos  Total    Usage
BIGRAM_1          1024      0    1024    100.0%
BIGRAM            1006      0       0      0.0%
BITBANK7           256      0       0      0.0%
BANK7              256      0       0      0.0%
BITBANK6           256      0       0      0.0%
BANK6              256      0       0      0.0%
BITBANK5           256      0       0      0.0%
BANK5              256      0       0      0.0%
BITBANK4           256      0       0      0.0%
BANK4              256      0       0      0.0%
BITBANK2           256      0       0      0.0%
BANK2              256      0       0      0.0%
BITBANK1           256      0       0      0.0%
BANK1              256      0       0      0.0%
BITBANK3           239      0       0      0.0%
BANK3              239      0       0      0.0%
BITBANK0           160      0       0      0.0%
BANK0              160      0       0      0.0%
BITCOMRAM           94      0       0      0.0%
COMRAM              94     32      44     46.8%
BITBIGSFR_1l        39      0       0      0.0%
BITBIGSFRl          33      0       0      0.0%
BITBIGSFRh          26      0       0      0.0%
BITBIGSFR_1h        13      0       0      0.0%
BITBIGSFR_5h         9      0       0      0.0%
BITBIGSFR_2h         3      0       0      0.0%
BITBIGSFR_4          3      0       0      0.0%
BITBIGSFR_3          3      0       0      0.0%
BITBIGSFR_5l         2      0       0      0.0%
STACK                0      0       0      0.0%
DATA                 0      0    1068      0.0%


Microchip Technology PIC18 Macro Assembler V2.50 build 20240725155939 
Symbol Table                                                                                   Tue Mar 24 12:27:33 2026

                          l90 01BA                            l79 07BA                            u10 09B8  
                          u11 09B4                            u20 0948                            u21 0944  
                          u30 097A                            u31 0976                            u40 0934  
                          u41 0930                           l110 0A32                           l113 0A12  
                         l122 0A04                           l116 0A2C                           l212 09D0  
                         l126 02C2                           l150 09AA                           l215 09E4  
                         l223 0986                           l119 09F6                           l152 09B8  
                         l153 09BC                           l226 02EE                           l330 0510  
                         l242 0812                           l323 0500                           l219 0966  
                         l147 0A20                           l229 03AC                           l248 046C  
                         l272 05DC                           l184 0760                           l281 06BE  
                         l194 0934                           l276 061C                           l293 08F6  
                         l189 09A2                           l286 06FE                           l289 08B2  
                         l723 0598                           l716 0588                           l980 09C4  
                         l982 09C6                           l990 0948                           l976 09A6  
                         l984 09CC                           l992 094C                           l986 09CE  
                         l978 09C0                           l994 0952                           l996 0958  
                         l988 0938                           l998 0960                           u300 09A2  
                         u301 099E                           u310 0770                           u311 076C  
                         u400 08F6                           u320 0786                           u401 08F2  
                         u321 0782                           u330 079C                           u410 0800  
                         u331 0798                           u411 07FC                           u340 07B2  
                         u420 0812                           u341 07AE                           u421 080E  
                         _PR2 0FCB                           u600 03C0                           u601 03BC  
                         u610 03D0                           u611 03CC                           u620 03F2  
                         u700 0568                           u621 03EE                           u701 0564  
                         u390 08E4                           u710 05DC                           u391 08E0  
                         u711 05D8                           u720 061C                           u800 02DA  
                         u721 0618                           u801 02D6                           u634 0404  
                         u810 02EA                           u730 06A8                           u650 0494  
                         u635 0400                           u811 02E6                           u731 06A4  
                         u651 0490                           u644 0440                           u820 0304  
                         u740 06B8                           u660 04B6                           u900 0686  
                         u645 043C                           u821 0300                           u741 06B4  
                         u661 04B2                           u901 0682                           u830 0372  
                         u750 06EA                           u670 04DE                           u831 036E  
                         u751 06E6                           u671 04DA                           u840 03AC  
                         u760 06FE                           u680 0528                           u841 03A8  
                         u761 06FA                           u681 0524                           u690 054A  
                         u770 01DA                           u850 0020                           u691 0546  
                         u771 01D6                           u851 001C                           u780 0274  
                         u860 0082                           u781 0270                           u861 007E  
                         u790 02B8                           u870 00E4                           u791 02B4  
                         u871 00E0                           u880 0146                           u881 0142  
                         u890 0648                           u891 0644                           _cnt 0025  
                         _isr 0008                           prod 0FF3                           wreg 0FE8  
        _sendCommandToDisplay 09BE                   drawText@col 000A                          l1000 096A  
                 drawText@txt 0002                          l1010 09DA                          l1002 097A  
                        l1012 09E0                          l1004 097E                          l1014 09E2  
                        l1006 09D4                          l1200 0770                          l1008 09D8  
                        l1024 090E                          l1016 08FA                          l1210 078E  
                        l1202 0776                          l1026 0914                          l1018 0906  
                        l1220 07B8                          l1212 079C                          l1204 0778  
                        l1028 0918                          l1300 0744                          l1214 07A2  
                        l1206 0786                          l1302 074A                          l1310 0A2E  
                        l1312 08B0                          l1216 07A4                          l1208 078C  
                        l1304 0750                          l1330 08E6                          l1322 08B4  
                        l1218 07B2                          l1306 0756                          l1250 0A06  
                        l1324 08D2                          l1260 0A22                          l1500 049C  
                        l1180 0A1A                          l1308 075C                          l1252 0A08  
                        l1340 07CA                          l1332 07BC                          l1326 08D4  
                        l1510 04EE                          l1502 04A8                          l1182 0A1C  
                        l1254 0A0C                          l1262 09E6                          l1270 0A00  
                        l1350 07F0                          l1328 08E4                          l1512 04F0  
                        l1504 04B6                          l1520 0530                          l1192 098A  
                        l1184 0A1E                          l1176 0A14                          l1280 0708  
                        l1256 0A0E                          l1264 09F2                          l1272 0A02  
                        l1352 0800                          l1610 0318                          l1602 0308  
                        l1514 04FA                          l1506 04C0                          l1530 0582  
                        l1522 053C                          l1194 0990                          l1186 0988  
                        l1178 0A16                          l1290 0726                          l1282 070E  
                        l1274 0700                          l1258 0A10                          l1266 09F4  
                        l1354 0802                          l1346 07CC                          l1338 07BE  
                        l1540 05E2                          l1532 059C                          l1620 0372  
                        l1612 033E                          l1604 0316                          l1508 04DE  
                        l1524 054A                          l1516 0512                          l1196 0992  
                        l1292 072C                          l1284 0714                          l1276 0704  
                        l1268 09F8                          l1348 07EE                          l1542 0608  
                        l1534 05A2                          l1622 0390                          l1614 035E  
                        l1550 06B8                          l1526 0568                          l1518 0528  
                        l1630 0020                          l1198 0762                          l1294 0732  
                        l1286 071A                          l1278 0706                          l1544 060A  
                        l1536 05C8                          l1624 0392                          l1616 0360  
                        l1552 06C4                          l1560 06EC                          l1528 0578  
                        l1640 00D6                          l1632 004C                          l1296 0738  
                        l1288 0720                          l1490 03F2                          l1482 03B0  
                        l1538 05CA                          l1618 0362                          l1626 0394  
                        l1554 06D6                          l1546 0698                          l1562 01BC  
                        l1650 0172                          l1642 00E4                          l1634 0074  
                        l1298 073E                          l1492 042E                          l1484 03C0  
                        l1556 06D8                          l1548 06A8                          l1580 0274  
                        l1572 01F4                          l1564 01C4                          l1652 019A  
                        l1644 0110                          l1636 0082                          l1628 0012  
                        l1660 0626                          l1486 03D4                          l1558 06EA  
                        l1494 046E                          l1582 0280                          l1574 0226  
                        l1566 01DA                          l1654 01AC                          l1646 0138  
                        l1638 00AE                          l1670 063A                          l1662 062A  
                        l1488 03E2                          l1592 02C6                          l1496 047E  
                        l1584 029A                          l1576 022A                          l1568 01E4  
                        l1648 0146                          l1672 0648                          l1664 062E  
                        l1656 061E                          l1594 02CA                          l1498 0494  
                        l1586 029E                          l1578 025E                          l1674 064C  
                        l1666 0632                          l1658 0622                          l1596 02DA  
                        l1588 02B8                          l1676 0686                          l1668 0636  
                        l1598 02F4                          l1678 068A                          ?_isr 0001  
                        _LATA 0F89                          _LATC 0F8B                          _LATD 0F8C  
                        _TMR0 0FD6                ?_updateDisplay 0001                  utoa32@buffer 0012  
                        _main 061E                          fsr1h 0FE2                          fsr2h 0FDA  
                        indf1 0FE7                          indf2 0FDF                          fsr1l 0FE1  
                        fsr2l 0FD9                          btemp 002D                          prodl 0FF3  
                        start 000E                  ?_initDisplay 0001                  ___param_bank 0000  
              _setPageAddress 0968                  drawPixel@bit 0009                         ??_isr 0001  
                drawText@page 0008                    _DispCtrStr 0028                         ?_main 0001  
             __end_of___lldiv 0512                         _T0CON 0FD5               __end_of___llmod 059A  
                       _T2CON 0FCA                         i2l105 0882                         i2l107 08AC  
                       _TRISA 0F92                         _TRISB 0F93                         _TRISC 0F94  
                       _TRISD 0F95                         _TRISE 0F96                 drawRect@i_516 0010  
       ?_sendCommandToDisplay 0001               __end_of_font5x7 7D3F               __end_of_initSpi 0A22  
                       tablat 0FF5                         ttemp5 002E                         ttemp6 0031  
                       ttemp7 0035                         status 0FD8                         wtemp8 002E  
           ??_clearAllDisplay 0008        __end_of_setPageAddress 0988               __initialization 0814  
                __end_of_main 0696                 drawPixel@page 0008      __end_of_clearPageDisplay 0936  
                ?_sendByteSpi 0001                        ??_main 0021                 __activetblptr 0002  
             ??_updateDisplay 0005              ___llmod@dividend 0001                        i2l1380 0864  
                      i2l1390 08AA                        i2l1382 0872                        i2l1384 0880  
                      i2l1386 0890                        i2l1388 089E                        _TMR0IE 7F95  
                      _TMR0IF 7F92                        _TMR2IE 7CE9                        _TMR2IF 7CF1  
                      _SSPBUF 0FC9      sendCommandToDisplay@comm 0002               ?_setPageAddress 0001  
            __end_of_fillRect 0700              __end_of_drawRect 061E              __end_of_drawText 03AE  
                   ??___lldiv 0009                     ??___llmod 0009                        _drawUi 0012  
                      _millis 0021                        clear_0 083C                        clear_1 084E  
                      isa$std 0001                        _utoa32 01BC        ??_sendCommandToDisplay 0002  
                   ??_initSpi 0001                  __pdataCOMRAM 0028                  __mediumconst 7B72  
                      tblptrh 0FF7                        tblptrl 0FF6                        tblptru 0FF8  
                  __accesstop 0060       __end_of__initialization 0854                 ___rparam_used 0001  
            _setColumnAddress 0936                __pcstackCOMRAM 0001                drawPixel@color 0002  
        sendDataToDisplay@dat 0002             clearAllDisplay@pg 0008                 ?_setInterrupt 0001  
              drawText@column 0001                       ?_drawUi 0001                       ?_utoa32 000E  
                     i2u45_40 0872                       i2u45_41 086E                       i2u46_40 0880  
                     i2u46_41 087C                       i2u47_40 0890                       i2u47_41 088C  
                     i2u48_40 089E                       i2u48_41 089A                     ?_fillRect 000B  
                     _SSPCON1 0FC6               _clearAllDisplay 0988                     ?_drawRect 000B  
                   ?_drawText 0001                       _SSPSTAT 0FC7             __end_of_clearLeds 0A2E  
              ??_setInterrupt 0001                       __Hparam 0000                       __Lparam 0000  
           __end_of_drawPixel 046E                       ___lldiv 046E                       ___llmod 0512  
                     __pcinit 0814                       __ramtop 0800             ?_clearPageDisplay 0001  
                     __ptext0 061E                       __ptext1 07BC                       __ptext2 09F8  
                     __ptext3 09E6                       __ptext4 0A06                       __ptext5 0A2E  
                     __ptext6 0700                       __ptext7 0A14                       __ptext8 0988  
                     __ptext9 08F8                       _font5x7 7B73            ??_clearPageDisplay 0005  
                     _initSpi 0A14                    ??_fillRect 000F                    ??_drawRect 000E  
                  ??_drawText 0003                __pintcode_body 0862          end_of_initialization 0854  
           __end_of_setPinout 0A14             __end_of_setTimer0 09F8             __end_of_setTimer2 0A06  
            ??_setPageAddress 0003                 ??_clearBuffer 0001                 __Lmediumconst 7B72  
                     int_func 0862           setColumnAddress@col 0003               ___lldiv@divisor 0005  
             ___lldiv@counter 000D                       utoa32@i 001F                       utoa32@j 001D  
                     postdec1 0FE5                       postinc0 0FEE                     _PORTBbits 0F81  
               clearBuffer@pg 0003       __end_of_clearAllDisplay 09A4      __end_of_setColumnAddress 0968  
               __pbssBIGRAM_1 0400         __end_of_updateDisplay 0814                    drawPixel@x 000A  
                  drawPixel@y 0001                   utoa32@value 000E           __end_of_clearBuffer 08F8  
               __pidataCOMRAM 0A34                __end_of_drawUi 01BC                _handleSwitches 0762  
              __end_of_utoa32 02C4          __end_of_setInterrupt 0A34           start_initialization 0814  
                 __end_of_isr 08B0               ___llmod@divisor 0005               ___llmod@counter 0009  
               ??_initDisplay 0009                      ??_drawUi 0021        __end_of_handleSwitches 07BC  
                    ??_utoa32 0013              ?_clearAllDisplay 0001                   __pbssCOMRAM 0021  
                 _clearBuffer 08B0                     _clearLeds 0A22                     __pintcode 0008  
               __pmediumconst 7B72        setColumnAddress@column 0004                      ?___lldiv 0001  
                    ?___llmod 0001               ?_handleSwitches 0001                 ??_sendByteSpi 0001  
         __end_of_initDisplay 0762                     _drawPixel 03AE                      ?_initSpi 0001  
              sendByteSpi@dat 0001                      _PIE1bits 0F9D                     _setPinout 0A06  
                   _setTimer0 09E6                     _setTimer2 09F8                    ?_clearLeds 0001  
                    _PIR1bits 0F9E                     fillRect@h 000D                     fillRect@i 0010  
                   fillRect@j 0011                     fillRect@w 000C                     fillRect@x 000F  
                   fillRect@y 000B                    ?_drawPixel 0001                     drawRect@h 000D  
                   drawRect@i 000F                     drawRect@w 000C                     drawRect@x 0011  
                   drawRect@y 000B                     drawText@c 0007                     drawText@d 0005  
                   drawText@i 0009                     drawText@x 0006                    utoa32@temp 0013  
           ?_setColumnAddress 0001           __end_of_sendByteSpi 09BE            ??_setColumnAddress 0003  
                   copy_data0 0828                    ?_setPinout 0001                    ?_setTimer0 0001  
                  ?_setTimer2 0001          clearPageDisplay@page 0005                  _setInterrupt 0A2E  
                    __Hrparam 0000                      __Lrparam 0000                   _initDisplay 0700  
                    __ptext10 0968                      __ptext11 0936                      __ptext20 0696  
                    __ptext12 09BE                      __ptext21 02C4                      __ptext13 09D2  
                    __ptext22 059A                      __ptext14 09A4                      __ptext23 03AE  
                    __ptext15 0762                      __ptext24 0A22                      __ptext16 0012  
                    __ptext25 08B0                      __ptext17 01BC                      __ptext18 0512  
                    __ptext19 046E                      _fillRect 0696                      _drawRect 059A  
                    _drawText 02C4  __end_of_sendCommandToDisplay 09D2                   ??_clearLeds 0001  
                    isa$xinst 0000                      int$flags 002D                   ??_drawPixel 0003  
                    _switches 0027                   _sendByteSpi 09A4                    _INTCONbits 0FF2  
            updateDisplay@col 0007                      intlevel2 0000              _clearPageDisplay 08F8  
          setPageAddress@page 0003                  ?_clearBuffer 0001              ___lldiv@dividend 0001  
           _sendDataToDisplay 09D2                   ??_setPinout 0001                   ??_setTimer0 0001  
                 ??_setTimer2 0001            ?_sendDataToDisplay 0001              ??_handleSwitches 0001  
         ??_sendDataToDisplay 0002            clearPageDisplay@cl 0006               updateDisplay@pg 0008  
               fillRect@color 000E              ___lldiv@quotient 0009                 _displayBuffer 0400  
                 _SSPCON1bits 0FC6                clearBuffer@col 0004     __end_of_sendDataToDisplay 09E6  
               _updateDisplay 07BC  
