

Microchip MPLAB XC8 Assembler V2.50 build 20240725155939 
                                                                                               Tue Mar 31 13:08:41 2026

Microchip MPLAB XC8 C Compiler v2.50 (Free license) build 20240725155939 Og1 
     1                           	processor	18F4550
     2                           	fnconf	rparam,??,?,0
     3                           	pagewidth 120
     4                           	opt	flic
     5                           	psect	idataCOMRAM,global,class=CODE,space=0,delta=1,noexec
     6                           	psect	mediumconst,global,reloc=2,class=MEDIUMCONST,space=0,delta=1,noexec
     7                           	psect	cinit,global,reloc=2,class=CODE,space=0,delta=1
     8                           	psect	bssCOMRAM,global,class=COMRAM,space=1,delta=1,lowdata,noexec
     9                           	psect	dataCOMRAM,global,class=COMRAM,space=1,delta=1,lowdata,noexec
    10                           	psect	bssBANK0,global,class=BANK0,space=1,delta=1,lowdata,noexec
    11                           	psect	bssBIGRAM,global,class=BIGRAM,space=1,delta=1,noexec
    12                           	psect	cstackCOMRAM,global,class=COMRAM,space=1,delta=1,lowdata,noexec
    13                           	psect	text0,global,reloc=2,class=CODE,space=0,delta=1
    14                           	psect	text1,global,reloc=2,class=CODE,space=0,delta=1
    15                           	psect	text2,global,reloc=2,class=CODE,space=0,delta=1
    16                           	psect	text3,global,reloc=2,class=CODE,space=0,delta=1
    17                           	psect	text4,global,reloc=2,class=CODE,space=0,delta=1,group=2
    18                           	psect	text5,global,reloc=2,class=CODE,space=0,delta=1,group=2
    19                           	psect	text6,global,reloc=2,class=CODE,space=0,delta=1,group=2
    20                           	psect	text7,global,reloc=2,class=CODE,space=0,delta=1
    21                           	psect	text8,global,reloc=2,class=CODE,space=0,delta=1
    22                           	psect	text9,global,reloc=2,class=CODE,space=0,delta=1
    23                           	psect	text10,global,reloc=2,class=CODE,space=0,delta=1
    24                           	psect	text11,global,reloc=2,class=CODE,space=0,delta=1
    25                           	psect	text12,global,reloc=2,class=CODE,space=0,delta=1
    26                           	psect	text13,global,reloc=2,class=CODE,space=0,delta=1
    27                           	psect	text14,global,reloc=2,class=CODE,space=0,delta=1
    28                           	psect	text15,global,reloc=2,class=CODE,space=0,delta=1
    29                           	psect	text16,global,reloc=2,class=CODE,space=0,delta=1
    30                           	psect	text17,global,reloc=2,class=CODE,space=0,delta=1
    31                           	psect	text18,global,reloc=2,class=CODE,space=0,delta=1
    32                           	psect	text19,global,reloc=2,class=CODE,space=0,delta=1
    33                           	psect	text20,global,reloc=2,class=CODE,space=0,delta=1
    34                           	psect	text21,global,reloc=2,class=CODE,space=0,delta=1
    35                           	psect	text22,global,reloc=2,class=CODE,space=0,delta=1
    36                           	psect	text23,global,reloc=2,class=CODE,space=0,delta=1
    37                           	psect	text24,global,reloc=2,class=CODE,space=0,delta=1
    38                           	psect	text25,global,reloc=2,class=CODE,space=0,delta=1
    39                           	psect	text26,global,reloc=2,class=CODE,space=0,delta=1
    40                           	psect	text27,global,reloc=2,class=CODE,space=0,delta=1
    41                           	psect	text28,global,reloc=2,class=CODE,space=0,delta=1
    42                           	psect	text29,global,reloc=2,class=CODE,space=0,delta=1,group=1
    43                           	psect	text30,global,reloc=2,class=CODE,space=0,delta=1,group=1
    44                           	psect	text31,global,reloc=2,class=CODE,space=0,delta=1
    45                           	psect	text32,global,reloc=2,class=CODE,space=0,delta=1
    46                           	psect	text33,global,reloc=2,class=CODE,space=0,delta=1
    47                           	psect	text34,global,reloc=2,class=CODE,space=0,delta=1
    48                           	psect	text35,global,reloc=2,class=CODE,space=0,delta=1
    49                           	psect	text36,global,reloc=2,class=CODE,space=0,delta=1,group=1
    50                           	psect	text37,global,reloc=2,class=CODE,space=0,delta=1,group=1
    51                           	psect	text38,global,reloc=2,class=CODE,space=0,delta=1
    52                           	psect	intcode,global,reloc=2,class=CODE,space=0,delta=1
    53                           	psect	intcode_body,global,reloc=2,class=CODE,space=0,delta=1
    54                           	psect	intsave_regs,global,class=BIGRAM,space=1,delta=1,noexec
    55                           	psect	rparam,global,class=COMRAM,space=1,delta=1,noexec
    56                           	psect	temp,global,ovrld,common,class=COMRAM,space=1,delta=1,lowdata
    57                           	psect	config,global,abs,ovrld,class=CONFIG,space=4,delta=1,noexec
    58   000000                     
    59                           ; Generated 17/10/2023 GMT
    60                           ; 
    61                           ; Copyright © 2023, Microchip Technology Inc. and its subsidiaries ("Microchip")
    62                           ; All rights reserved.
    63                           ; 
    64                           ; This software is developed by Microchip Technology Inc. and its subsidiaries ("Microch
      +                          ip").
    65                           ; 
    66                           ; Redistribution and use in source and binary forms, with or without modification, are
    67                           ; permitted provided that the following conditions are met:
    68                           ; 
    69                           ;     1. Redistributions of source code must retain the above copyright notice, this lis
      +                          t of
    70                           ;        conditions and the following disclaimer.
    71                           ; 
    72                           ;     2. Redistributions in binary form must reproduce the above copyright notice, this 
      +                          list
    73                           ;        of conditions and the following disclaimer in the documentation and/or other
    74                           ;        materials provided with the distribution. Publication is not required when
    75                           ;        this file is used in an embedded application.
    76                           ; 
    77                           ;     3. Microchip's name may not be used to endorse or promote products derived from th
      +                          is
    78                           ;        software without specific prior written permission.
    79                           ; 
    80                           ; THIS SOFTWARE IS PROVIDED BY MICROCHIP "AS IS" AND ANY EXPRESS OR IMPLIED WARRANTIES,
    81                           ; INCLUDING, BUT NOT LIMITED TO, THE IMPLIED WARRANTIES OF MERCHANTABILITY AND FITNESS F
      +                          OR
    82                           ; PURPOSE ARE DISCLAIMED.  IN NO EVENT SHALL MICROCHIP BE LIABLE FOR ANY DIRECT, INDIREC
      +                          T,
    83                           ; INCIDENTAL, SPECIAL, EXEMPLARY, OR CONSEQUENTIAL DAMAGES (INCLUDING BUT NOT LIMITED TO
    84                           ; PROCUREMENT OF SUBSTITUTE GOODS OR SERVICES; LOSS OF USE, DATA OR PROFITS; OR BUSINESS
    85                           ; INTERRUPTION) HOWSOEVER CAUSED AND ON ANY THEORY OF LIABILITY, WHETHER IN CONTRACT, ST
      +                          RICT
    86                           ; LIABILITY, OR TORT (INCLUDING NEGLIGENCE OR OTHERWISE) ARISING IN ANY WAY OUT OF THE U
      +                          SE OF
    87                           ; THIS SOFTWARE, EVEN IF ADVISED OF THE POSSIBILITY OF SUCH DAMAGE.
    88                           ; 
    89                           ; 
    90                           ; Code-generator required, PIC18F4550 Definitions
    91                           ; 
    92                           ; SFR Addresses
    93   000FE0                     bsr             equ	4064
    94   000FE9                     fsr0            equ	4073
    95   000FEA                     fsr0h           equ	4074
    96   000FE9                     fsr0l           equ	4073
    97   000FE1                     fsr1            equ	4065
    98   000FE2                     fsr1h           equ	4066
    99   000FE1                     fsr1l           equ	4065
   100   000FD9                     fsr2            equ	4057
   101   000FDA                     fsr2h           equ	4058
   102   000FD9                     fsr2l           equ	4057
   103   000FEF                     indf0           equ	4079
   104   000FE7                     indf1           equ	4071
   105   000FDF                     indf2           equ	4063
   106   000FF2                     intcon          equ	4082
   107   000000                     nvmcon          equ	0
   108   000FF9                     pcl             equ	4089
   109   000FFA                     pclath          equ	4090
   110   000FFB                     pclatu          equ	4091
   111   000FEB                     plusw0          equ	4075
   112   000FE3                     plusw1          equ	4067
   113   000FDB                     plusw2          equ	4059
   114   000FED                     postdec0        equ	4077
   115   000FE5                     postdec1        equ	4069
   116   000FDD                     postdec2        equ	4061
   117   000FEE                     postinc0        equ	4078
   118   000FE6                     postinc1        equ	4070
   119   000FDE                     postinc2        equ	4062
   120   000FEC                     preinc0         equ	4076
   121   000FE4                     preinc1         equ	4068
   122   000FDC                     preinc2         equ	4060
   123   000FF3                     prod            equ	4083
   124   000FF4                     prodh           equ	4084
   125   000FF3                     prodl           equ	4083
   126   000FD8                     status          equ	4056
   127   000FF5                     tablat          equ	4085
   128   000FF6                     tblptr          equ	4086
   129   000FF7                     tblptrh         equ	4087
   130   000FF6                     tblptrl         equ	4086
   131   000FF8                     tblptru         equ	4088
   132   000FFD                     tosl            equ	4093
   133   000FE8                     wreg            equ	4072
   134   000F62                     SPPDATA         equ	3938	;# 
   135   000F63                     SPPCFG          equ	3939	;# 
   136   000F64                     SPPEPS          equ	3940	;# 
   137   000F65                     SPPCON          equ	3941	;# 
   138   000F66                     UFRM            equ	3942	;# 
   139   000F66                     UFRML           equ	3942	;# 
   140   000F67                     UFRMH           equ	3943	;# 
   141   000F68                     UIR             equ	3944	;# 
   142   000F69                     UIE             equ	3945	;# 
   143   000F6A                     UEIR            equ	3946	;# 
   144   000F6B                     UEIE            equ	3947	;# 
   145   000F6C                     USTAT           equ	3948	;# 
   146   000F6D                     UCON            equ	3949	;# 
   147   000F6E                     UADDR           equ	3950	;# 
   148   000F6F                     UCFG            equ	3951	;# 
   149   000F70                     UEP0            equ	3952	;# 
   150   000F71                     UEP1            equ	3953	;# 
   151   000F72                     UEP2            equ	3954	;# 
   152   000F73                     UEP3            equ	3955	;# 
   153   000F74                     UEP4            equ	3956	;# 
   154   000F75                     UEP5            equ	3957	;# 
   155   000F76                     UEP6            equ	3958	;# 
   156   000F77                     UEP7            equ	3959	;# 
   157   000F78                     UEP8            equ	3960	;# 
   158   000F79                     UEP9            equ	3961	;# 
   159   000F7A                     UEP10           equ	3962	;# 
   160   000F7B                     UEP11           equ	3963	;# 
   161   000F7C                     UEP12           equ	3964	;# 
   162   000F7D                     UEP13           equ	3965	;# 
   163   000F7E                     UEP14           equ	3966	;# 
   164   000F7F                     UEP15           equ	3967	;# 
   165   000F80                     PORTA           equ	3968	;# 
   166   000F81                     PORTB           equ	3969	;# 
   167   000F82                     PORTC           equ	3970	;# 
   168   000F83                     PORTD           equ	3971	;# 
   169   000F84                     PORTE           equ	3972	;# 
   170   000F89                     LATA            equ	3977	;# 
   171   000F8A                     LATB            equ	3978	;# 
   172   000F8B                     LATC            equ	3979	;# 
   173   000F8C                     LATD            equ	3980	;# 
   174   000F8D                     LATE            equ	3981	;# 
   175   000F92                     TRISA           equ	3986	;# 
   176   000F92                     DDRA            equ	3986	;# 
   177   000F93                     TRISB           equ	3987	;# 
   178   000F93                     DDRB            equ	3987	;# 
   179   000F94                     TRISC           equ	3988	;# 
   180   000F94                     DDRC            equ	3988	;# 
   181   000F95                     TRISD           equ	3989	;# 
   182   000F95                     DDRD            equ	3989	;# 
   183   000F96                     TRISE           equ	3990	;# 
   184   000F96                     DDRE            equ	3990	;# 
   185   000F9B                     OSCTUNE         equ	3995	;# 
   186   000F9D                     PIE1            equ	3997	;# 
   187   000F9E                     PIR1            equ	3998	;# 
   188   000F9F                     IPR1            equ	3999	;# 
   189   000FA0                     PIE2            equ	4000	;# 
   190   000FA1                     PIR2            equ	4001	;# 
   191   000FA2                     IPR2            equ	4002	;# 
   192   000FA6                     EECON1          equ	4006	;# 
   193   000FA7                     EECON2          equ	4007	;# 
   194   000FA8                     EEDATA          equ	4008	;# 
   195   000FA9                     EEADR           equ	4009	;# 
   196   000FAB                     RCSTA           equ	4011	;# 
   197   000FAB                     RCSTA1          equ	4011	;# 
   198   000FAC                     TXSTA           equ	4012	;# 
   199   000FAC                     TXSTA1          equ	4012	;# 
   200   000FAD                     TXREG           equ	4013	;# 
   201   000FAD                     TXREG1          equ	4013	;# 
   202   000FAE                     RCREG           equ	4014	;# 
   203   000FAE                     RCREG1          equ	4014	;# 
   204   000FAF                     SPBRG           equ	4015	;# 
   205   000FAF                     SPBRG1          equ	4015	;# 
   206   000FB0                     SPBRGH          equ	4016	;# 
   207   000FB1                     T3CON           equ	4017	;# 
   208   000FB2                     TMR3            equ	4018	;# 
   209   000FB2                     TMR3L           equ	4018	;# 
   210   000FB3                     TMR3H           equ	4019	;# 
   211   000FB4                     CMCON           equ	4020	;# 
   212   000FB5                     CVRCON          equ	4021	;# 
   213   000FB6                     ECCP1AS         equ	4022	;# 
   214   000FB6                     CCP1AS          equ	4022	;# 
   215   000FB7                     ECCP1DEL        equ	4023	;# 
   216   000FB7                     CCP1DEL         equ	4023	;# 
   217   000FB8                     BAUDCON         equ	4024	;# 
   218   000FB8                     BAUDCTL         equ	4024	;# 
   219   000FBA                     CCP2CON         equ	4026	;# 
   220   000FBB                     CCPR2           equ	4027	;# 
   221   000FBB                     CCPR2L          equ	4027	;# 
   222   000FBC                     CCPR2H          equ	4028	;# 
   223   000FBD                     CCP1CON         equ	4029	;# 
   224   000FBD                     ECCP1CON        equ	4029	;# 
   225   000FBE                     CCPR1           equ	4030	;# 
   226   000FBE                     CCPR1L          equ	4030	;# 
   227   000FBF                     CCPR1H          equ	4031	;# 
   228   000FC0                     ADCON2          equ	4032	;# 
   229   000FC1                     ADCON1          equ	4033	;# 
   230   000FC2                     ADCON0          equ	4034	;# 
   231   000FC3                     ADRES           equ	4035	;# 
   232   000FC3                     ADRESL          equ	4035	;# 
   233   000FC4                     ADRESH          equ	4036	;# 
   234   000FC5                     SSPCON2         equ	4037	;# 
   235   000FC6                     SSPCON1         equ	4038	;# 
   236   000FC7                     SSPSTAT         equ	4039	;# 
   237   000FC8                     SSPADD          equ	4040	;# 
   238   000FC9                     SSPBUF          equ	4041	;# 
   239   000FCA                     T2CON           equ	4042	;# 
   240   000FCB                     PR2             equ	4043	;# 
   241   000FCB                     MEMCON          equ	4043	;# 
   242   000FCC                     TMR2            equ	4044	;# 
   243   000FCD                     T1CON           equ	4045	;# 
   244   000FCE                     TMR1            equ	4046	;# 
   245   000FCE                     TMR1L           equ	4046	;# 
   246   000FCF                     TMR1H           equ	4047	;# 
   247   000FD0                     RCON            equ	4048	;# 
   248   000FD1                     WDTCON          equ	4049	;# 
   249   000FD2                     HLVDCON         equ	4050	;# 
   250   000FD2                     LVDCON          equ	4050	;# 
   251   000FD3                     OSCCON          equ	4051	;# 
   252   000FD5                     T0CON           equ	4053	;# 
   253   000FD6                     TMR0            equ	4054	;# 
   254   000FD6                     TMR0L           equ	4054	;# 
   255   000FD7                     TMR0H           equ	4055	;# 
   256   000FD8                     STATUS          equ	4056	;# 
   257   000FD9                     FSR2            equ	4057	;# 
   258   000FD9                     FSR2L           equ	4057	;# 
   259   000FDA                     FSR2H           equ	4058	;# 
   260   000FDB                     PLUSW2          equ	4059	;# 
   261   000FDC                     PREINC2         equ	4060	;# 
   262   000FDD                     POSTDEC2        equ	4061	;# 
   263   000FDE                     POSTINC2        equ	4062	;# 
   264   000FDF                     INDF2           equ	4063	;# 
   265   000FE0                     BSR             equ	4064	;# 
   266   000FE1                     FSR1            equ	4065	;# 
   267   000FE1                     FSR1L           equ	4065	;# 
   268   000FE2                     FSR1H           equ	4066	;# 
   269   000FE3                     PLUSW1          equ	4067	;# 
   270   000FE4                     PREINC1         equ	4068	;# 
   271   000FE5                     POSTDEC1        equ	4069	;# 
   272   000FE6                     POSTINC1        equ	4070	;# 
   273   000FE7                     INDF1           equ	4071	;# 
   274   000FE8                     WREG            equ	4072	;# 
   275   000FE9                     FSR0            equ	4073	;# 
   276   000FE9                     FSR0L           equ	4073	;# 
   277   000FEA                     FSR0H           equ	4074	;# 
   278   000FEB                     PLUSW0          equ	4075	;# 
   279   000FEC                     PREINC0         equ	4076	;# 
   280   000FED                     POSTDEC0        equ	4077	;# 
   281   000FEE                     POSTINC0        equ	4078	;# 
   282   000FEF                     INDF0           equ	4079	;# 
   283   000FF0                     INTCON3         equ	4080	;# 
   284   000FF1                     INTCON2         equ	4081	;# 
   285   000FF2                     INTCON          equ	4082	;# 
   286   000FF3                     PROD            equ	4083	;# 
   287   000FF3                     PRODL           equ	4083	;# 
   288   000FF4                     PRODH           equ	4084	;# 
   289   000FF5                     TABLAT          equ	4085	;# 
   290   000FF6                     TBLPTR          equ	4086	;# 
   291   000FF6                     TBLPTRL         equ	4086	;# 
   292   000FF7                     TBLPTRH         equ	4087	;# 
   293   000FF8                     TBLPTRU         equ	4088	;# 
   294   000FF9                     PCLAT           equ	4089	;# 
   295   000FF9                     PC              equ	4089	;# 
   296   000FF9                     PCL             equ	4089	;# 
   297   000FFA                     PCLATH          equ	4090	;# 
   298   000FFB                     PCLATU          equ	4091	;# 
   299   000FFC                     STKPTR          equ	4092	;# 
   300   000FFD                     TOS             equ	4093	;# 
   301   000FFD                     TOSL            equ	4093	;# 
   302   000FFE                     TOSH            equ	4094	;# 
   303   000FFF                     TOSU            equ	4095	;# 
   304   000F62                     SPPDATA         equ	3938	;# 
   305   000F63                     SPPCFG          equ	3939	;# 
   306   000F64                     SPPEPS          equ	3940	;# 
   307   000F65                     SPPCON          equ	3941	;# 
   308   000F66                     UFRM            equ	3942	;# 
   309   000F66                     UFRML           equ	3942	;# 
   310   000F67                     UFRMH           equ	3943	;# 
   311   000F68                     UIR             equ	3944	;# 
   312   000F69                     UIE             equ	3945	;# 
   313   000F6A                     UEIR            equ	3946	;# 
   314   000F6B                     UEIE            equ	3947	;# 
   315   000F6C                     USTAT           equ	3948	;# 
   316   000F6D                     UCON            equ	3949	;# 
   317   000F6E                     UADDR           equ	3950	;# 
   318   000F6F                     UCFG            equ	3951	;# 
   319   000F70                     UEP0            equ	3952	;# 
   320   000F71                     UEP1            equ	3953	;# 
   321   000F72                     UEP2            equ	3954	;# 
   322   000F73                     UEP3            equ	3955	;# 
   323   000F74                     UEP4            equ	3956	;# 
   324   000F75                     UEP5            equ	3957	;# 
   325   000F76                     UEP6            equ	3958	;# 
   326   000F77                     UEP7            equ	3959	;# 
   327   000F78                     UEP8            equ	3960	;# 
   328   000F79                     UEP9            equ	3961	;# 
   329   000F7A                     UEP10           equ	3962	;# 
   330   000F7B                     UEP11           equ	3963	;# 
   331   000F7C                     UEP12           equ	3964	;# 
   332   000F7D                     UEP13           equ	3965	;# 
   333   000F7E                     UEP14           equ	3966	;# 
   334   000F7F                     UEP15           equ	3967	;# 
   335   000F80                     PORTA           equ	3968	;# 
   336   000F81                     PORTB           equ	3969	;# 
   337   000F82                     PORTC           equ	3970	;# 
   338   000F83                     PORTD           equ	3971	;# 
   339   000F84                     PORTE           equ	3972	;# 
   340   000F89                     LATA            equ	3977	;# 
   341   000F8A                     LATB            equ	3978	;# 
   342   000F8B                     LATC            equ	3979	;# 
   343   000F8C                     LATD            equ	3980	;# 
   344   000F8D                     LATE            equ	3981	;# 
   345   000F92                     TRISA           equ	3986	;# 
   346   000F92                     DDRA            equ	3986	;# 
   347   000F93                     TRISB           equ	3987	;# 
   348   000F93                     DDRB            equ	3987	;# 
   349   000F94                     TRISC           equ	3988	;# 
   350   000F94                     DDRC            equ	3988	;# 
   351   000F95                     TRISD           equ	3989	;# 
   352   000F95                     DDRD            equ	3989	;# 
   353   000F96                     TRISE           equ	3990	;# 
   354   000F96                     DDRE            equ	3990	;# 
   355   000F9B                     OSCTUNE         equ	3995	;# 
   356   000F9D                     PIE1            equ	3997	;# 
   357   000F9E                     PIR1            equ	3998	;# 
   358   000F9F                     IPR1            equ	3999	;# 
   359   000FA0                     PIE2            equ	4000	;# 
   360   000FA1                     PIR2            equ	4001	;# 
   361   000FA2                     IPR2            equ	4002	;# 
   362   000FA6                     EECON1          equ	4006	;# 
   363   000FA7                     EECON2          equ	4007	;# 
   364   000FA8                     EEDATA          equ	4008	;# 
   365   000FA9                     EEADR           equ	4009	;# 
   366   000FAB                     RCSTA           equ	4011	;# 
   367   000FAB                     RCSTA1          equ	4011	;# 
   368   000FAC                     TXSTA           equ	4012	;# 
   369   000FAC                     TXSTA1          equ	4012	;# 
   370   000FAD                     TXREG           equ	4013	;# 
   371   000FAD                     TXREG1          equ	4013	;# 
   372   000FAE                     RCREG           equ	4014	;# 
   373   000FAE                     RCREG1          equ	4014	;# 
   374   000FAF                     SPBRG           equ	4015	;# 
   375   000FAF                     SPBRG1          equ	4015	;# 
   376   000FB0                     SPBRGH          equ	4016	;# 
   377   000FB1                     T3CON           equ	4017	;# 
   378   000FB2                     TMR3            equ	4018	;# 
   379   000FB2                     TMR3L           equ	4018	;# 
   380   000FB3                     TMR3H           equ	4019	;# 
   381   000FB4                     CMCON           equ	4020	;# 
   382   000FB5                     CVRCON          equ	4021	;# 
   383   000FB6                     ECCP1AS         equ	4022	;# 
   384   000FB6                     CCP1AS          equ	4022	;# 
   385   000FB7                     ECCP1DEL        equ	4023	;# 
   386   000FB7                     CCP1DEL         equ	4023	;# 
   387   000FB8                     BAUDCON         equ	4024	;# 
   388   000FB8                     BAUDCTL         equ	4024	;# 
   389   000FBA                     CCP2CON         equ	4026	;# 
   390   000FBB                     CCPR2           equ	4027	;# 
   391   000FBB                     CCPR2L          equ	4027	;# 
   392   000FBC                     CCPR2H          equ	4028	;# 
   393   000FBD                     CCP1CON         equ	4029	;# 
   394   000FBD                     ECCP1CON        equ	4029	;# 
   395   000FBE                     CCPR1           equ	4030	;# 
   396   000FBE                     CCPR1L          equ	4030	;# 
   397   000FBF                     CCPR1H          equ	4031	;# 
   398   000FC0                     ADCON2          equ	4032	;# 
   399   000FC1                     ADCON1          equ	4033	;# 
   400   000FC2                     ADCON0          equ	4034	;# 
   401   000FC3                     ADRES           equ	4035	;# 
   402   000FC3                     ADRESL          equ	4035	;# 
   403   000FC4                     ADRESH          equ	4036	;# 
   404   000FC5                     SSPCON2         equ	4037	;# 
   405   000FC6                     SSPCON1         equ	4038	;# 
   406   000FC7                     SSPSTAT         equ	4039	;# 
   407   000FC8                     SSPADD          equ	4040	;# 
   408   000FC9                     SSPBUF          equ	4041	;# 
   409   000FCA                     T2CON           equ	4042	;# 
   410   000FCB                     PR2             equ	4043	;# 
   411   000FCB                     MEMCON          equ	4043	;# 
   412   000FCC                     TMR2            equ	4044	;# 
   413   000FCD                     T1CON           equ	4045	;# 
   414   000FCE                     TMR1            equ	4046	;# 
   415   000FCE                     TMR1L           equ	4046	;# 
   416   000FCF                     TMR1H           equ	4047	;# 
   417   000FD0                     RCON            equ	4048	;# 
   418   000FD1                     WDTCON          equ	4049	;# 
   419   000FD2                     HLVDCON         equ	4050	;# 
   420   000FD2                     LVDCON          equ	4050	;# 
   421   000FD3                     OSCCON          equ	4051	;# 
   422   000FD5                     T0CON           equ	4053	;# 
   423   000FD6                     TMR0            equ	4054	;# 
   424   000FD6                     TMR0L           equ	4054	;# 
   425   000FD7                     TMR0H           equ	4055	;# 
   426   000FD8                     STATUS          equ	4056	;# 
   427   000FD9                     FSR2            equ	4057	;# 
   428   000FD9                     FSR2L           equ	4057	;# 
   429   000FDA                     FSR2H           equ	4058	;# 
   430   000FDB                     PLUSW2          equ	4059	;# 
   431   000FDC                     PREINC2         equ	4060	;# 
   432   000FDD                     POSTDEC2        equ	4061	;# 
   433   000FDE                     POSTINC2        equ	4062	;# 
   434   000FDF                     INDF2           equ	4063	;# 
   435   000FE0                     BSR             equ	4064	;# 
   436   000FE1                     FSR1            equ	4065	;# 
   437   000FE1                     FSR1L           equ	4065	;# 
   438   000FE2                     FSR1H           equ	4066	;# 
   439   000FE3                     PLUSW1          equ	4067	;# 
   440   000FE4                     PREINC1         equ	4068	;# 
   441   000FE5                     POSTDEC1        equ	4069	;# 
   442   000FE6                     POSTINC1        equ	4070	;# 
   443   000FE7                     INDF1           equ	4071	;# 
   444   000FE8                     WREG            equ	4072	;# 
   445   000FE9                     FSR0            equ	4073	;# 
   446   000FE9                     FSR0L           equ	4073	;# 
   447   000FEA                     FSR0H           equ	4074	;# 
   448   000FEB                     PLUSW0          equ	4075	;# 
   449   000FEC                     PREINC0         equ	4076	;# 
   450   000FED                     POSTDEC0        equ	4077	;# 
   451   000FEE                     POSTINC0        equ	4078	;# 
   452   000FEF                     INDF0           equ	4079	;# 
   453   000FF0                     INTCON3         equ	4080	;# 
   454   000FF1                     INTCON2         equ	4081	;# 
   455   000FF2                     INTCON          equ	4082	;# 
   456   000FF3                     PROD            equ	4083	;# 
   457   000FF3                     PRODL           equ	4083	;# 
   458   000FF4                     PRODH           equ	4084	;# 
   459   000FF5                     TABLAT          equ	4085	;# 
   460   000FF6                     TBLPTR          equ	4086	;# 
   461   000FF6                     TBLPTRL         equ	4086	;# 
   462   000FF7                     TBLPTRH         equ	4087	;# 
   463   000FF8                     TBLPTRU         equ	4088	;# 
   464   000FF9                     PCLAT           equ	4089	;# 
   465   000FF9                     PC              equ	4089	;# 
   466   000FF9                     PCL             equ	4089	;# 
   467   000FFA                     PCLATH          equ	4090	;# 
   468   000FFB                     PCLATU          equ	4091	;# 
   469   000FFC                     STKPTR          equ	4092	;# 
   470   000FFD                     TOS             equ	4093	;# 
   471   000FFD                     TOSL            equ	4093	;# 
   472   000FFE                     TOSH            equ	4094	;# 
   473   000FFF                     TOSU            equ	4095	;# 
   474   000F62                     SPPDATA         equ	3938	;# 
   475   000F63                     SPPCFG          equ	3939	;# 
   476   000F64                     SPPEPS          equ	3940	;# 
   477   000F65                     SPPCON          equ	3941	;# 
   478   000F66                     UFRM            equ	3942	;# 
   479   000F66                     UFRML           equ	3942	;# 
   480   000F67                     UFRMH           equ	3943	;# 
   481   000F68                     UIR             equ	3944	;# 
   482   000F69                     UIE             equ	3945	;# 
   483   000F6A                     UEIR            equ	3946	;# 
   484   000F6B                     UEIE            equ	3947	;# 
   485   000F6C                     USTAT           equ	3948	;# 
   486   000F6D                     UCON            equ	3949	;# 
   487   000F6E                     UADDR           equ	3950	;# 
   488   000F6F                     UCFG            equ	3951	;# 
   489   000F70                     UEP0            equ	3952	;# 
   490   000F71                     UEP1            equ	3953	;# 
   491   000F72                     UEP2            equ	3954	;# 
   492   000F73                     UEP3            equ	3955	;# 
   493   000F74                     UEP4            equ	3956	;# 
   494   000F75                     UEP5            equ	3957	;# 
   495   000F76                     UEP6            equ	3958	;# 
   496   000F77                     UEP7            equ	3959	;# 
   497   000F78                     UEP8            equ	3960	;# 
   498   000F79                     UEP9            equ	3961	;# 
   499   000F7A                     UEP10           equ	3962	;# 
   500   000F7B                     UEP11           equ	3963	;# 
   501   000F7C                     UEP12           equ	3964	;# 
   502   000F7D                     UEP13           equ	3965	;# 
   503   000F7E                     UEP14           equ	3966	;# 
   504   000F7F                     UEP15           equ	3967	;# 
   505   000F80                     PORTA           equ	3968	;# 
   506   000F81                     PORTB           equ	3969	;# 
   507   000F82                     PORTC           equ	3970	;# 
   508   000F83                     PORTD           equ	3971	;# 
   509   000F84                     PORTE           equ	3972	;# 
   510   000F89                     LATA            equ	3977	;# 
   511   000F8A                     LATB            equ	3978	;# 
   512   000F8B                     LATC            equ	3979	;# 
   513   000F8C                     LATD            equ	3980	;# 
   514   000F8D                     LATE            equ	3981	;# 
   515   000F92                     TRISA           equ	3986	;# 
   516   000F92                     DDRA            equ	3986	;# 
   517   000F93                     TRISB           equ	3987	;# 
   518   000F93                     DDRB            equ	3987	;# 
   519   000F94                     TRISC           equ	3988	;# 
   520   000F94                     DDRC            equ	3988	;# 
   521   000F95                     TRISD           equ	3989	;# 
   522   000F95                     DDRD            equ	3989	;# 
   523   000F96                     TRISE           equ	3990	;# 
   524   000F96                     DDRE            equ	3990	;# 
   525   000F9B                     OSCTUNE         equ	3995	;# 
   526   000F9D                     PIE1            equ	3997	;# 
   527   000F9E                     PIR1            equ	3998	;# 
   528   000F9F                     IPR1            equ	3999	;# 
   529   000FA0                     PIE2            equ	4000	;# 
   530   000FA1                     PIR2            equ	4001	;# 
   531   000FA2                     IPR2            equ	4002	;# 
   532   000FA6                     EECON1          equ	4006	;# 
   533   000FA7                     EECON2          equ	4007	;# 
   534   000FA8                     EEDATA          equ	4008	;# 
   535   000FA9                     EEADR           equ	4009	;# 
   536   000FAB                     RCSTA           equ	4011	;# 
   537   000FAB                     RCSTA1          equ	4011	;# 
   538   000FAC                     TXSTA           equ	4012	;# 
   539   000FAC                     TXSTA1          equ	4012	;# 
   540   000FAD                     TXREG           equ	4013	;# 
   541   000FAD                     TXREG1          equ	4013	;# 
   542   000FAE                     RCREG           equ	4014	;# 
   543   000FAE                     RCREG1          equ	4014	;# 
   544   000FAF                     SPBRG           equ	4015	;# 
   545   000FAF                     SPBRG1          equ	4015	;# 
   546   000FB0                     SPBRGH          equ	4016	;# 
   547   000FB1                     T3CON           equ	4017	;# 
   548   000FB2                     TMR3            equ	4018	;# 
   549   000FB2                     TMR3L           equ	4018	;# 
   550   000FB3                     TMR3H           equ	4019	;# 
   551   000FB4                     CMCON           equ	4020	;# 
   552   000FB5                     CVRCON          equ	4021	;# 
   553   000FB6                     ECCP1AS         equ	4022	;# 
   554   000FB6                     CCP1AS          equ	4022	;# 
   555   000FB7                     ECCP1DEL        equ	4023	;# 
   556   000FB7                     CCP1DEL         equ	4023	;# 
   557   000FB8                     BAUDCON         equ	4024	;# 
   558   000FB8                     BAUDCTL         equ	4024	;# 
   559   000FBA                     CCP2CON         equ	4026	;# 
   560   000FBB                     CCPR2           equ	4027	;# 
   561   000FBB                     CCPR2L          equ	4027	;# 
   562   000FBC                     CCPR2H          equ	4028	;# 
   563   000FBD                     CCP1CON         equ	4029	;# 
   564   000FBD                     ECCP1CON        equ	4029	;# 
   565   000FBE                     CCPR1           equ	4030	;# 
   566   000FBE                     CCPR1L          equ	4030	;# 
   567   000FBF                     CCPR1H          equ	4031	;# 
   568   000FC0                     ADCON2          equ	4032	;# 
   569   000FC1                     ADCON1          equ	4033	;# 
   570   000FC2                     ADCON0          equ	4034	;# 
   571   000FC3                     ADRES           equ	4035	;# 
   572   000FC3                     ADRESL          equ	4035	;# 
   573   000FC4                     ADRESH          equ	4036	;# 
   574   000FC5                     SSPCON2         equ	4037	;# 
   575   000FC6                     SSPCON1         equ	4038	;# 
   576   000FC7                     SSPSTAT         equ	4039	;# 
   577   000FC8                     SSPADD          equ	4040	;# 
   578   000FC9                     SSPBUF          equ	4041	;# 
   579   000FCA                     T2CON           equ	4042	;# 
   580   000FCB                     PR2             equ	4043	;# 
   581   000FCB                     MEMCON          equ	4043	;# 
   582   000FCC                     TMR2            equ	4044	;# 
   583   000FCD                     T1CON           equ	4045	;# 
   584   000FCE                     TMR1            equ	4046	;# 
   585   000FCE                     TMR1L           equ	4046	;# 
   586   000FCF                     TMR1H           equ	4047	;# 
   587   000FD0                     RCON            equ	4048	;# 
   588   000FD1                     WDTCON          equ	4049	;# 
   589   000FD2                     HLVDCON         equ	4050	;# 
   590   000FD2                     LVDCON          equ	4050	;# 
   591   000FD3                     OSCCON          equ	4051	;# 
   592   000FD5                     T0CON           equ	4053	;# 
   593   000FD6                     TMR0            equ	4054	;# 
   594   000FD6                     TMR0L           equ	4054	;# 
   595   000FD7                     TMR0H           equ	4055	;# 
   596   000FD8                     STATUS          equ	4056	;# 
   597   000FD9                     FSR2            equ	4057	;# 
   598   000FD9                     FSR2L           equ	4057	;# 
   599   000FDA                     FSR2H           equ	4058	;# 
   600   000FDB                     PLUSW2          equ	4059	;# 
   601   000FDC                     PREINC2         equ	4060	;# 
   602   000FDD                     POSTDEC2        equ	4061	;# 
   603   000FDE                     POSTINC2        equ	4062	;# 
   604   000FDF                     INDF2           equ	4063	;# 
   605   000FE0                     BSR             equ	4064	;# 
   606   000FE1                     FSR1            equ	4065	;# 
   607   000FE1                     FSR1L           equ	4065	;# 
   608   000FE2                     FSR1H           equ	4066	;# 
   609   000FE3                     PLUSW1          equ	4067	;# 
   610   000FE4                     PREINC1         equ	4068	;# 
   611   000FE5                     POSTDEC1        equ	4069	;# 
   612   000FE6                     POSTINC1        equ	4070	;# 
   613   000FE7                     INDF1           equ	4071	;# 
   614   000FE8                     WREG            equ	4072	;# 
   615   000FE9                     FSR0            equ	4073	;# 
   616   000FE9                     FSR0L           equ	4073	;# 
   617   000FEA                     FSR0H           equ	4074	;# 
   618   000FEB                     PLUSW0          equ	4075	;# 
   619   000FEC                     PREINC0         equ	4076	;# 
   620   000FED                     POSTDEC0        equ	4077	;# 
   621   000FEE                     POSTINC0        equ	4078	;# 
   622   000FEF                     INDF0           equ	4079	;# 
   623   000FF0                     INTCON3         equ	4080	;# 
   624   000FF1                     INTCON2         equ	4081	;# 
   625   000FF2                     INTCON          equ	4082	;# 
   626   000FF3                     PROD            equ	4083	;# 
   627   000FF3                     PRODL           equ	4083	;# 
   628   000FF4                     PRODH           equ	4084	;# 
   629   000FF5                     TABLAT          equ	4085	;# 
   630   000FF6                     TBLPTR          equ	4086	;# 
   631   000FF6                     TBLPTRL         equ	4086	;# 
   632   000FF7                     TBLPTRH         equ	4087	;# 
   633   000FF8                     TBLPTRU         equ	4088	;# 
   634   000FF9                     PCLAT           equ	4089	;# 
   635   000FF9                     PC              equ	4089	;# 
   636   000FF9                     PCL             equ	4089	;# 
   637   000FFA                     PCLATH          equ	4090	;# 
   638   000FFB                     PCLATU          equ	4091	;# 
   639   000FFC                     STKPTR          equ	4092	;# 
   640   000FFD                     TOS             equ	4093	;# 
   641   000FFD                     TOSL            equ	4093	;# 
   642   000FFE                     TOSH            equ	4094	;# 
   643   000FFF                     TOSU            equ	4095	;# 
   644                           
   645                           	psect	idataCOMRAM
   646   001718                     __pidataCOMRAM:
   647                           	callstack 0
   648                           
   649                           ;initializer for _DispCtrStr
   650   001718  61                 	db	97
   651   001719  73                 	db	115
   652   00171A  64                 	db	100
   653   00171B  64                 	db	100
   654   00171C  00                 	db	0
   655                           
   656                           	psect	mediumconst
   657   007DEC                     __pmediumconst:
   658                           	callstack 0
   659   007DEC  00                 	db	0
   660   007DED                     _font5x7:
   661                           	callstack 0
   662   007DED  00                 	db	0
   663   007DEE  00                 	db	0
   664   007DEF  00                 	db	0
   665   007DF0  00                 	db	0
   666   007DF1  00                 	db	0
   667   007DF2  00                 	db	0
   668   007DF3  00                 	db	0
   669   007DF4  2F                 	db	47
   670   007DF5  00                 	db	0
   671   007DF6  00                 	db	0
   672   007DF7  00                 	db	0
   673   007DF8  07                 	db	7
   674   007DF9  00                 	db	0
   675   007DFA  07                 	db	7
   676   007DFB  00                 	db	0
   677   007DFC  14                 	db	20
   678   007DFD  7F                 	db	127
   679   007DFE  14                 	db	20
   680   007DFF  7F                 	db	127
   681   007E00  14                 	db	20
   682   007E01  24                 	db	36
   683   007E02  2A                 	db	42
   684   007E03  7F                 	db	127
   685   007E04  2A                 	db	42
   686   007E05  12                 	db	18
   687   007E06  62                 	db	98
   688   007E07  64                 	db	100
   689   007E08  08                 	db	8
   690   007E09  13                 	db	19
   691   007E0A  23                 	db	35
   692   007E0B  36                 	db	54
   693   007E0C  49                 	db	73
   694   007E0D  55                 	db	85
   695   007E0E  22                 	db	34
   696   007E0F  50                 	db	80
   697   007E10  00                 	db	0
   698   007E11  05                 	db	5
   699   007E12  03                 	db	3
   700   007E13  00                 	db	0
   701   007E14  00                 	db	0
   702   007E15  00                 	db	0
   703   007E16  1C                 	db	28
   704   007E17  22                 	db	34
   705   007E18  41                 	db	65
   706   007E19  00                 	db	0
   707   007E1A  00                 	db	0
   708   007E1B  41                 	db	65
   709   007E1C  22                 	db	34
   710   007E1D  1C                 	db	28
   711   007E1E  00                 	db	0
   712   007E1F  14                 	db	20
   713   007E20  08                 	db	8
   714   007E21  3E                 	db	62
   715   007E22  08                 	db	8
   716   007E23  14                 	db	20
   717   007E24  08                 	db	8
   718   007E25  08                 	db	8
   719   007E26  3E                 	db	62
   720   007E27  08                 	db	8
   721   007E28  08                 	db	8
   722   007E29  00                 	db	0
   723   007E2A  00                 	db	0
   724   007E2B  A0                 	db	160
   725   007E2C  60                 	db	96
   726   007E2D  00                 	db	0
   727   007E2E  08                 	db	8
   728   007E2F  08                 	db	8
   729   007E30  08                 	db	8
   730   007E31  08                 	db	8
   731   007E32  08                 	db	8
   732   007E33  00                 	db	0
   733   007E34  60                 	db	96
   734   007E35  60                 	db	96
   735   007E36  00                 	db	0
   736   007E37  00                 	db	0
   737   007E38  20                 	db	32
   738   007E39  10                 	db	16
   739   007E3A  08                 	db	8
   740   007E3B  04                 	db	4
   741   007E3C  02                 	db	2
   742   007E3D  3E                 	db	62
   743   007E3E  51                 	db	81
   744   007E3F  49                 	db	73
   745   007E40  45                 	db	69
   746   007E41  3E                 	db	62
   747   007E42  00                 	db	0
   748   007E43  42                 	db	66
   749   007E44  7F                 	db	127
   750   007E45  40                 	db	64
   751   007E46  00                 	db	0
   752   007E47  42                 	db	66
   753   007E48  61                 	db	97
   754   007E49  51                 	db	81
   755   007E4A  49                 	db	73
   756   007E4B  46                 	db	70
   757   007E4C  21                 	db	33
   758   007E4D  41                 	db	65
   759   007E4E  45                 	db	69
   760   007E4F  4B                 	db	75
   761   007E50  31                 	db	49
   762   007E51  18                 	db	24
   763   007E52  14                 	db	20
   764   007E53  12                 	db	18
   765   007E54  7F                 	db	127
   766   007E55  10                 	db	16
   767   007E56  27                 	db	39
   768   007E57  45                 	db	69
   769   007E58  45                 	db	69
   770   007E59  45                 	db	69
   771   007E5A  39                 	db	57
   772   007E5B  3C                 	db	60
   773   007E5C  4A                 	db	74
   774   007E5D  49                 	db	73
   775   007E5E  49                 	db	73
   776   007E5F  30                 	db	48
   777   007E60  01                 	db	1
   778   007E61  71                 	db	113
   779   007E62  09                 	db	9
   780   007E63  05                 	db	5
   781   007E64  03                 	db	3
   782   007E65  36                 	db	54
   783   007E66  49                 	db	73
   784   007E67  49                 	db	73
   785   007E68  49                 	db	73
   786   007E69  36                 	db	54
   787   007E6A  06                 	db	6
   788   007E6B  49                 	db	73
   789   007E6C  49                 	db	73
   790   007E6D  29                 	db	41
   791   007E6E  1E                 	db	30
   792   007E6F  00                 	db	0
   793   007E70  36                 	db	54
   794   007E71  36                 	db	54
   795   007E72  00                 	db	0
   796   007E73  00                 	db	0
   797   007E74  00                 	db	0
   798   007E75  56                 	db	86
   799   007E76  36                 	db	54
   800   007E77  00                 	db	0
   801   007E78  00                 	db	0
   802   007E79  08                 	db	8
   803   007E7A  14                 	db	20
   804   007E7B  22                 	db	34
   805   007E7C  41                 	db	65
   806   007E7D  00                 	db	0
   807   007E7E  14                 	db	20
   808   007E7F  14                 	db	20
   809   007E80  14                 	db	20
   810   007E81  14                 	db	20
   811   007E82  14                 	db	20
   812   007E83  00                 	db	0
   813   007E84  41                 	db	65
   814   007E85  22                 	db	34
   815   007E86  14                 	db	20
   816   007E87  08                 	db	8
   817   007E88  02                 	db	2
   818   007E89  01                 	db	1
   819   007E8A  51                 	db	81
   820   007E8B  09                 	db	9
   821   007E8C  06                 	db	6
   822   007E8D  32                 	db	50
   823   007E8E  49                 	db	73
   824   007E8F  59                 	db	89
   825   007E90  51                 	db	81
   826   007E91  3E                 	db	62
   827   007E92  7C                 	db	124
   828   007E93  12                 	db	18
   829   007E94  11                 	db	17
   830   007E95  12                 	db	18
   831   007E96  7C                 	db	124
   832   007E97  7F                 	db	127
   833   007E98  49                 	db	73
   834   007E99  49                 	db	73
   835   007E9A  49                 	db	73
   836   007E9B  36                 	db	54
   837   007E9C  3E                 	db	62
   838   007E9D  41                 	db	65
   839   007E9E  41                 	db	65
   840   007E9F  41                 	db	65
   841   007EA0  22                 	db	34
   842   007EA1  7F                 	db	127
   843   007EA2  41                 	db	65
   844   007EA3  41                 	db	65
   845   007EA4  22                 	db	34
   846   007EA5  1C                 	db	28
   847   007EA6  7F                 	db	127
   848   007EA7  49                 	db	73
   849   007EA8  49                 	db	73
   850   007EA9  49                 	db	73
   851   007EAA  41                 	db	65
   852   007EAB  7F                 	db	127
   853   007EAC  09                 	db	9
   854   007EAD  09                 	db	9
   855   007EAE  09                 	db	9
   856   007EAF  01                 	db	1
   857   007EB0  3E                 	db	62
   858   007EB1  41                 	db	65
   859   007EB2  49                 	db	73
   860   007EB3  49                 	db	73
   861   007EB4  7A                 	db	122
   862   007EB5  7F                 	db	127
   863   007EB6  08                 	db	8
   864   007EB7  08                 	db	8
   865   007EB8  08                 	db	8
   866   007EB9  7F                 	db	127
   867   007EBA  00                 	db	0
   868   007EBB  41                 	db	65
   869   007EBC  7F                 	db	127
   870   007EBD  41                 	db	65
   871   007EBE  00                 	db	0
   872   007EBF  20                 	db	32
   873   007EC0  40                 	db	64
   874   007EC1  41                 	db	65
   875   007EC2  3F                 	db	63
   876   007EC3  01                 	db	1
   877   007EC4  7F                 	db	127
   878   007EC5  08                 	db	8
   879   007EC6  14                 	db	20
   880   007EC7  22                 	db	34
   881   007EC8  41                 	db	65
   882   007EC9  7F                 	db	127
   883   007ECA  40                 	db	64
   884   007ECB  40                 	db	64
   885   007ECC  40                 	db	64
   886   007ECD  40                 	db	64
   887   007ECE  7F                 	db	127
   888   007ECF  02                 	db	2
   889   007ED0  0C                 	db	12
   890   007ED1  02                 	db	2
   891   007ED2  7F                 	db	127
   892   007ED3  7F                 	db	127
   893   007ED4  04                 	db	4
   894   007ED5  08                 	db	8
   895   007ED6  10                 	db	16
   896   007ED7  7F                 	db	127
   897   007ED8  3E                 	db	62
   898   007ED9  41                 	db	65
   899   007EDA  41                 	db	65
   900   007EDB  41                 	db	65
   901   007EDC  3E                 	db	62
   902   007EDD  7F                 	db	127
   903   007EDE  09                 	db	9
   904   007EDF  09                 	db	9
   905   007EE0  09                 	db	9
   906   007EE1  06                 	db	6
   907   007EE2  3E                 	db	62
   908   007EE3  41                 	db	65
   909   007EE4  51                 	db	81
   910   007EE5  21                 	db	33
   911   007EE6  5E                 	db	94
   912   007EE7  7F                 	db	127
   913   007EE8  09                 	db	9
   914   007EE9  19                 	db	25
   915   007EEA  29                 	db	41
   916   007EEB  46                 	db	70
   917   007EEC  46                 	db	70
   918   007EED  49                 	db	73
   919   007EEE  49                 	db	73
   920   007EEF  49                 	db	73
   921   007EF0  31                 	db	49
   922   007EF1  01                 	db	1
   923   007EF2  01                 	db	1
   924   007EF3  7F                 	db	127
   925   007EF4  01                 	db	1
   926   007EF5  01                 	db	1
   927   007EF6  3F                 	db	63
   928   007EF7  40                 	db	64
   929   007EF8  40                 	db	64
   930   007EF9  40                 	db	64
   931   007EFA  3F                 	db	63
   932   007EFB  1F                 	db	31
   933   007EFC  20                 	db	32
   934   007EFD  40                 	db	64
   935   007EFE  20                 	db	32
   936   007EFF  1F                 	db	31
   937   007F00  3F                 	db	63
   938   007F01  40                 	db	64
   939   007F02  38                 	db	56
   940   007F03  40                 	db	64
   941   007F04  3F                 	db	63
   942   007F05  63                 	db	99
   943   007F06  14                 	db	20
   944   007F07  08                 	db	8
   945   007F08  14                 	db	20
   946   007F09  63                 	db	99
   947   007F0A  07                 	db	7
   948   007F0B  08                 	db	8
   949   007F0C  70                 	db	112
   950   007F0D  08                 	db	8
   951   007F0E  07                 	db	7
   952   007F0F  61                 	db	97
   953   007F10  51                 	db	81
   954   007F11  49                 	db	73
   955   007F12  45                 	db	69
   956   007F13  43                 	db	67
   957   007F14  00                 	db	0
   958   007F15  7F                 	db	127
   959   007F16  41                 	db	65
   960   007F17  41                 	db	65
   961   007F18  00                 	db	0
   962   007F19  55                 	db	85
   963   007F1A  2A                 	db	42
   964   007F1B  55                 	db	85
   965   007F1C  2A                 	db	42
   966   007F1D  55                 	db	85
   967   007F1E  00                 	db	0
   968   007F1F  41                 	db	65
   969   007F20  41                 	db	65
   970   007F21  7F                 	db	127
   971   007F22  00                 	db	0
   972   007F23  04                 	db	4
   973   007F24  02                 	db	2
   974   007F25  01                 	db	1
   975   007F26  02                 	db	2
   976   007F27  04                 	db	4
   977   007F28  40                 	db	64
   978   007F29  40                 	db	64
   979   007F2A  40                 	db	64
   980   007F2B  40                 	db	64
   981   007F2C  40                 	db	64
   982   007F2D  00                 	db	0
   983   007F2E  01                 	db	1
   984   007F2F  02                 	db	2
   985   007F30  04                 	db	4
   986   007F31  00                 	db	0
   987   007F32  20                 	db	32
   988   007F33  54                 	db	84
   989   007F34  54                 	db	84
   990   007F35  54                 	db	84
   991   007F36  78                 	db	120
   992   007F37  7F                 	db	127
   993   007F38  48                 	db	72
   994   007F39  44                 	db	68
   995   007F3A  44                 	db	68
   996   007F3B  38                 	db	56
   997   007F3C  38                 	db	56
   998   007F3D  44                 	db	68
   999   007F3E  44                 	db	68
  1000   007F3F  44                 	db	68
  1001   007F40  20                 	db	32
  1002   007F41  38                 	db	56
  1003   007F42  44                 	db	68
  1004   007F43  44                 	db	68
  1005   007F44  48                 	db	72
  1006   007F45  7F                 	db	127
  1007   007F46  38                 	db	56
  1008   007F47  54                 	db	84
  1009   007F48  54                 	db	84
  1010   007F49  54                 	db	84
  1011   007F4A  18                 	db	24
  1012   007F4B  08                 	db	8
  1013   007F4C  7E                 	db	126
  1014   007F4D  09                 	db	9
  1015   007F4E  01                 	db	1
  1016   007F4F  02                 	db	2
  1017   007F50  18                 	db	24
  1018   007F51  A4                 	db	164
  1019   007F52  A4                 	db	164
  1020   007F53  A4                 	db	164
  1021   007F54  7C                 	db	124
  1022   007F55  7F                 	db	127
  1023   007F56  08                 	db	8
  1024   007F57  04                 	db	4
  1025   007F58  04                 	db	4
  1026   007F59  78                 	db	120
  1027   007F5A  00                 	db	0
  1028   007F5B  44                 	db	68
  1029   007F5C  7D                 	db	125
  1030   007F5D  40                 	db	64
  1031   007F5E  00                 	db	0
  1032   007F5F  40                 	db	64
  1033   007F60  80                 	db	128
  1034   007F61  84                 	db	132
  1035   007F62  7D                 	db	125
  1036   007F63  00                 	db	0
  1037   007F64  7F                 	db	127
  1038   007F65  10                 	db	16
  1039   007F66  28                 	db	40
  1040   007F67  44                 	db	68
  1041   007F68  00                 	db	0
  1042   007F69  00                 	db	0
  1043   007F6A  41                 	db	65
  1044   007F6B  7F                 	db	127
  1045   007F6C  40                 	db	64
  1046   007F6D  00                 	db	0
  1047   007F6E  7C                 	db	124
  1048   007F6F  04                 	db	4
  1049   007F70  18                 	db	24
  1050   007F71  04                 	db	4
  1051   007F72  78                 	db	120
  1052   007F73  7C                 	db	124
  1053   007F74  08                 	db	8
  1054   007F75  04                 	db	4
  1055   007F76  04                 	db	4
  1056   007F77  78                 	db	120
  1057   007F78  38                 	db	56
  1058   007F79  44                 	db	68
  1059   007F7A  44                 	db	68
  1060   007F7B  44                 	db	68
  1061   007F7C  38                 	db	56
  1062   007F7D  FC                 	db	252
  1063   007F7E  24                 	db	36
  1064   007F7F  24                 	db	36
  1065   007F80  24                 	db	36
  1066   007F81  18                 	db	24
  1067   007F82  18                 	db	24
  1068   007F83  24                 	db	36
  1069   007F84  24                 	db	36
  1070   007F85  18                 	db	24
  1071   007F86  FC                 	db	252
  1072   007F87  7C                 	db	124
  1073   007F88  08                 	db	8
  1074   007F89  04                 	db	4
  1075   007F8A  04                 	db	4
  1076   007F8B  08                 	db	8
  1077   007F8C  48                 	db	72
  1078   007F8D  54                 	db	84
  1079   007F8E  54                 	db	84
  1080   007F8F  54                 	db	84
  1081   007F90  20                 	db	32
  1082   007F91  04                 	db	4
  1083   007F92  3F                 	db	63
  1084   007F93  44                 	db	68
  1085   007F94  40                 	db	64
  1086   007F95  20                 	db	32
  1087   007F96  3C                 	db	60
  1088   007F97  40                 	db	64
  1089   007F98  40                 	db	64
  1090   007F99  20                 	db	32
  1091   007F9A  7C                 	db	124
  1092   007F9B  1C                 	db	28
  1093   007F9C  20                 	db	32
  1094   007F9D  40                 	db	64
  1095   007F9E  20                 	db	32
  1096   007F9F  1C                 	db	28
  1097   007FA0  3C                 	db	60
  1098   007FA1  40                 	db	64
  1099   007FA2  30                 	db	48
  1100   007FA3  40                 	db	64
  1101   007FA4  3C                 	db	60
  1102   007FA5  44                 	db	68
  1103   007FA6  28                 	db	40
  1104   007FA7  10                 	db	16
  1105   007FA8  28                 	db	40
  1106   007FA9  44                 	db	68
  1107   007FAA  1C                 	db	28
  1108   007FAB  A0                 	db	160
  1109   007FAC  A0                 	db	160
  1110   007FAD  A0                 	db	160
  1111   007FAE  7C                 	db	124
  1112   007FAF  44                 	db	68
  1113   007FB0  64                 	db	100
  1114   007FB1  54                 	db	84
  1115   007FB2  4C                 	db	76
  1116   007FB3  44                 	db	68
  1117   007FB4  7F                 	db	127
  1118   007FB5  41                 	db	65
  1119   007FB6  41                 	db	65
  1120   007FB7  41                 	db	65
  1121   007FB8  7F                 	db	127
  1122   007FB9                     __end_of_font5x7:
  1123                           	callstack 0
  1124   007FB9                     _chart:
  1125                           	callstack 0
  1126   007FB9  03E8               	dw	1000
  1127   007FBB  0000               	dw	0
  1128   007FBD  01F4               	dw	500
  1129   007FBF  00                 	db	0
  1130   007FC0  05DC               	dw	1500
  1131   007FC2  0000               	dw	0
  1132   007FC4  00C8               	dw	200
  1133   007FC6  01                 	db	1
  1134   007FC7  07D0               	dw	2000
  1135   007FC9  0000               	dw	0
  1136   007FCB  012C               	dw	300
  1137   007FCD  02                 	db	2
  1138   007FCE  09C4               	dw	2500
  1139   007FD0  0000               	dw	0
  1140   007FD2  0190               	dw	400
  1141   007FD4  03                 	db	3
  1142   007FD5  0BB8               	dw	3000
  1143   007FD7  0000               	dw	0
  1144   007FD9  02BC               	dw	700
  1145   007FDB  00                 	db	0
  1146   007FDC  0C80               	dw	3200
  1147   007FDE  0000               	dw	0
  1148   007FE0  01F4               	dw	500
  1149   007FE2  03                 	db	3
  1150   007FE3  0D48               	dw	3400
  1151   007FE5  0000               	dw	0
  1152   007FE7  00C8               	dw	200
  1153   007FE9  01                 	db	1
  1154   007FEA  0FA0               	dw	4000
  1155   007FEC  0000               	dw	0
  1156   007FEE  012C               	dw	300
  1157   007FF0  02                 	db	2
  1158   007FF1  1194               	dw	4500
  1159   007FF3  0000               	dw	0
  1160   007FF5  0190               	dw	400
  1161   007FF7  03                 	db	3
  1162   007FF8  12C0               	dw	4800
  1163   007FFA  0000               	dw	0
  1164   007FFC  02BC               	dw	700
  1165   007FFE  00                 	db	0
  1166   007FFF                     __end_of_chart:
  1167                           	callstack 0
  1168   007CE9                     _TMR2IE         set	31977
  1169   007CF1                     _TMR2IF         set	31985
  1170   007F95                     _TMR0IE         set	32661
  1171   007F92                     _TMR0IF         set	32658
  1172   000FD6                     _TMR0           set	4054
  1173   000F8C                     _LATD           set	3980
  1174   000F8B                     _LATC           set	3979
  1175   000FC9                     _SSPBUF         set	4041
  1176   000FC6                     _SSPCON1bits    set	4038
  1177   000FC6                     _SSPCON1        set	4038
  1178   000FC7                     _SSPSTAT        set	4039
  1179   000F9D                     _PIE1bits       set	3997
  1180   000FCB                     _PR2            set	4043
  1181   000FCA                     _T2CON          set	4042
  1182   000FD5                     _T0CON          set	4053
  1183   000F89                     _LATA           set	3977
  1184   000F96                     _TRISE          set	3990
  1185   000F95                     _TRISD          set	3989
  1186   000F94                     _TRISC          set	3988
  1187   000F93                     _TRISB          set	3987
  1188   000F92                     _TRISA          set	3986
  1189   000F81                     _PORTBbits      set	3969
  1190   000F9E                     _PIR1bits       set	3998
  1191   000FF2                     _INTCONbits     set	4082
  1192   007FFF  00                 	db	0	; dummy byte at the end
  1193   000002                     __activetblptr  equ	2
  1194                           
  1195                           ; #config settings
  1196                           
  1197                           	psect	cinit
  1198   00141E                     __pcinit:
  1199                           	callstack 0
  1200   00141E                     start_initialization:
  1201                           	callstack 0
  1202   00141E                     __initialization:
  1203                           	callstack 0
  1204                           
  1205                           ; Initialize objects allocated to COMRAM (5 bytes)
  1206                           ; load TBLPTR registers with __pidataCOMRAM
  1207   00141E  0E18               	movlw	low __pidataCOMRAM
  1208   001420  6EF6               	movwf	tblptrl,c
  1209   001422  0E17               	movlw	high __pidataCOMRAM
  1210   001424  6EF7               	movwf	tblptrh,c
  1211   001426  0E00               	movlw	low (__pidataCOMRAM shr (0+16))
  1212   001428  6EF8               	movwf	tblptru,c
  1213   00142A  EE00  F046         	lfsr	0,__pdataCOMRAM
  1214   00142E  EE10 F005          	lfsr	1,5
  1215   001432                     copy_data0:
  1216   001432  0009               	tblrd		*+
  1217   001434  CFF5 FFEE          	movff	tablat,postinc0
  1218   001438  50E5               	movf	postdec1,w,c
  1219   00143A  50E1               	movf	fsr1l,w,c
  1220   00143C  E1FA               	bnz	copy_data0
  1221                           
  1222                           ; Clear objects allocated to BIGRAM (1024 bytes)
  1223   00143E  EE00  F0EC         	lfsr	0,__pbssBIGRAM
  1224   001442  EE14 F000          	lfsr	1,1024
  1225   001446                     clear_0:
  1226   001446  6AEE               	clrf	postinc0,c
  1227   001448  50E5               	movf	postdec1,w,c
  1228   00144A  50E1               	movf	fsr1l,w,c
  1229   00144C  E1FC               	bnz	clear_0
  1230   00144E  50E2               	movf	fsr1h,w,c
  1231   001450  E1FA               	bnz	clear_0
  1232                           
  1233                           ; Clear objects allocated to BANK0 (140 bytes)
  1234   001452  EE00  F060         	lfsr	0,__pbssBANK0
  1235   001456  0E8C               	movlw	140
  1236   001458                     clear_1:
  1237   001458  6AEE               	clrf	postinc0,c
  1238   00145A  06E8               	decf	wreg,f,c
  1239   00145C  E1FD               	bnz	clear_1
  1240                           
  1241                           ; Clear objects allocated to COMRAM (29 bytes)
  1242   00145E  EE00  F029         	lfsr	0,__pbssCOMRAM
  1243   001462  0E1D               	movlw	29
  1244   001464                     clear_2:
  1245   001464  6AEE               	clrf	postinc0,c
  1246   001466  06E8               	decf	wreg,f,c
  1247   001468  E1FD               	bnz	clear_2
  1248   00146A                     end_of_initialization:
  1249                           	callstack 0
  1250   00146A                     __end_of__initialization:
  1251                           	callstack 0
  1252   00146A  904B               	bcf	int$flags,0,c	;clear compiler interrupt flag (level 1)
  1253   00146C  924B               	bcf	int$flags,1,c	;clear compiler interrupt flag (level 2)
  1254   00146E  0E00               	movlw	low (__Lmediumconst shr (0+16))
  1255   001470  6EF8               	movwf	tblptru,c
  1256   001472  0100               	movlb	0
  1257   001474  EF93  F003         	goto	_main	;jump to C main() function
  1258                           
  1259                           	psect	bssCOMRAM
  1260   000029                     __pbssCOMRAM:
  1261                           	callstack 0
  1262   000029                     malloc@lock:
  1263                           	callstack 0
  1264   000029                     	ds	4
  1265   00002D                     _millis:
  1266                           	callstack 0
  1267   00002D                     	ds	4
  1268   000031                     ___freelist:
  1269                           	callstack 0
  1270   000031                     	ds	2
  1271   000033                     _brkp:
  1272                           	callstack 0
  1273   000033                     	ds	2
  1274   000035                     malloc@end:
  1275                           	callstack 0
  1276   000035                     	ds	2
  1277   000037                     malloc@cur:
  1278                           	callstack 0
  1279   000037                     	ds	2
  1280   000039                     _errno:
  1281                           	callstack 0
  1282   000039                     	ds	2
  1283   00003B                     _chartIndex:
  1284                           	callstack 0
  1285   00003B                     	ds	2
  1286   00003D                     _cnt:
  1287                           	callstack 0
  1288   00003D                     	ds	2
  1289   00003F                     _score:
  1290                           	callstack 0
  1291   00003F                     	ds	2
  1292   000041                     _switches:
  1293                           	callstack 0
  1294   000041                     	ds	1
  1295   000042                     _Col4cnt:
  1296                           	callstack 0
  1297   000042                     	ds	1
  1298   000043                     _Col3cnt:
  1299                           	callstack 0
  1300   000043                     	ds	1
  1301   000044                     _Col2cnt:
  1302                           	callstack 0
  1303   000044                     	ds	1
  1304   000045                     _Col1cnt:
  1305                           	callstack 0
  1306   000045                     	ds	1
  1307                           
  1308                           	psect	dataCOMRAM
  1309   000046                     __pdataCOMRAM:
  1310                           	callstack 0
  1311   000046                     _DispCtrStr:
  1312                           	callstack 0
  1313   000046                     	ds	5
  1314                           
  1315                           	psect	bssBANK0
  1316   000060                     __pbssBANK0:
  1317                           	callstack 0
  1318   000060                     _Coll1:
  1319                           	callstack 0
  1320   000060                     	ds	28
  1321   00007C                     _Col4:
  1322                           	callstack 0
  1323   00007C                     	ds	28
  1324   000098                     _Col3:
  1325                           	callstack 0
  1326   000098                     	ds	28
  1327   0000B4                     _Col2:
  1328                           	callstack 0
  1329   0000B4                     	ds	28
  1330   0000D0                     _Col1:
  1331                           	callstack 0
  1332   0000D0                     	ds	28
  1333                           
  1334                           	psect	bssBIGRAM
  1335   0000EC                     __pbssBIGRAM:
  1336                           	callstack 0
  1337   0000EC                     _displayBuffer:
  1338                           	callstack 0
  1339   0000EC                     	ds	1024
  1340                           
  1341                           	psect	cstackCOMRAM
  1342   000001                     __pcstackCOMRAM:
  1343                           	callstack 0
  1344   000001                     ?___simple_search_fl:
  1345                           	callstack 0
  1346   000001                     ?___expand_heap:
  1347                           	callstack 0
  1348   000001                     ?___lwdiv:
  1349                           	callstack 0
  1350   000001                     ?___lldiv:
  1351                           	callstack 0
  1352   000001                     ?___aldiv:
  1353                           	callstack 0
  1354   000001                     ?___llmod:
  1355                           	callstack 0
  1356   000001                     checkHit@col:
  1357                           	callstack 0
  1358   000001                     addTile@col:
  1359                           	callstack 0
  1360   000001                     updateColumn@col:
  1361                           	callstack 0
  1362   000001                     sendByteSpi@dat:
  1363                           	callstack 0
  1364   000001                     drawText@column:
  1365                           	callstack 0
  1366   000001                     drawPixel@y:
  1367                           	callstack 0
  1368   000001                     ___expand_heap@pn:
  1369                           	callstack 0
  1370   000001                     ___lwdiv@dividend:
  1371                           	callstack 0
  1372   000001                     ___simple_search_fl@n:
  1373                           	callstack 0
  1374   000001                     ___lldiv@dividend:
  1375                           	callstack 0
  1376   000001                     ___aldiv@dividend:
  1377                           	callstack 0
  1378   000001                     ___llmod@dividend:
  1379                           	callstack 0
  1380   000001                     ??_clearBuffer:
  1381   000001                     
  1382                           ; 1 bytes @ 0x0
  1383   000001                     	ds	1
  1384   000002                     checkHit@cnt:
  1385                           	callstack 0
  1386   000002                     addTile@cnt:
  1387                           	callstack 0
  1388   000002                     updateColumn@cnt:
  1389                           	callstack 0
  1390   000002                     sendCommandToDisplay@comm:
  1391                           	callstack 0
  1392   000002                     sendDataToDisplay@dat:
  1393                           	callstack 0
  1394   000002                     drawText@txt:
  1395                           	callstack 0
  1396   000002                     drawPixel@color:
  1397                           	callstack 0
  1398   000002                     
  1399                           ; 1 bytes @ 0x1
  1400   000002                     	ds	1
  1401   000003                     setColumnAddress@col:
  1402                           	callstack 0
  1403   000003                     setPageAddress@page:
  1404                           	callstack 0
  1405   000003                     clearBuffer@pg:
  1406                           	callstack 0
  1407   000003                     ___lwdiv@divisor:
  1408                           	callstack 0
  1409   000003                     addTile@t:
  1410                           	callstack 0
  1411   000003                     ??_drawText:
  1412   000003                     ??___simple_search_fl:
  1413   000003                     ??___expand_heap:
  1414   000003                     ??_checkHit:
  1415   000003                     ??_updateColumn:
  1416   000003                     ??_drawPixel:
  1417                           
  1418                           ; 1 bytes @ 0x2
  1419   000003                     	ds	1
  1420   000004                     setColumnAddress@column:
  1421                           	callstack 0
  1422   000004                     clearBuffer@col:
  1423                           	callstack 0
  1424                           
  1425                           ; 1 bytes @ 0x3
  1426   000004                     	ds	1
  1427   000005                     clearPageDisplay@page:
  1428                           	callstack 0
  1429   000005                     drawText@d:
  1430                           	callstack 0
  1431   000005                     ___lwdiv@quotient:
  1432                           	callstack 0
  1433   000005                     ___expand_heap@n:
  1434                           	callstack 0
  1435   000005                     ___lldiv@divisor:
  1436                           	callstack 0
  1437   000005                     ___aldiv@divisor:
  1438                           	callstack 0
  1439   000005                     ___llmod@divisor:
  1440                           	callstack 0
  1441   000005                     ??_updateDisplay:
  1442   000005                     
  1443                           ; 1 bytes @ 0x4
  1444   000005                     	ds	1
  1445   000006                     drawText@x:
  1446                           	callstack 0
  1447   000006                     clearPageDisplay@cl:
  1448                           	callstack 0
  1449                           
  1450                           ; 2 bytes @ 0x5
  1451   000006                     	ds	1
  1452   000007                     drawText@c:
  1453                           	callstack 0
  1454   000007                     updateDisplay@col:
  1455                           	callstack 0
  1456   000007                     ___lwdiv@counter:
  1457                           	callstack 0
  1458   000007                     ___expand_heap@new_brkp:
  1459                           	callstack 0
  1460   000007                     ___simple_search_fl@remaining_size:
  1461                           	callstack 0
  1462   000007                     checkHit@error:
  1463                           	callstack 0
  1464                           
  1465                           ; 4 bytes @ 0x6
  1466   000007                     	ds	1
  1467   000008                     clearAllDisplay@pg:
  1468                           	callstack 0
  1469   000008                     drawText@page:
  1470                           	callstack 0
  1471   000008                     updateDisplay@pg:
  1472                           	callstack 0
  1473   000008                     drawPixel@page:
  1474                           	callstack 0
  1475   000008                     
  1476                           ; 1 bytes @ 0x7
  1477   000008                     	ds	1
  1478   000009                     resetGame@i:
  1479                           	callstack 0
  1480   000009                     drawText@i:
  1481                           	callstack 0
  1482   000009                     drawPixel@bit:
  1483                           	callstack 0
  1484   000009                     ___aldiv@counter:
  1485                           	callstack 0
  1486   000009                     ___llmod@counter:
  1487                           	callstack 0
  1488   000009                     ___simple_search_fl@best_last:
  1489                           	callstack 0
  1490   000009                     ___lldiv@quotient:
  1491                           	callstack 0
  1492   000009                     
  1493                           ; 1 bytes @ 0x8
  1494   000009                     	ds	1
  1495   00000A                     drawText@col:
  1496                           	callstack 0
  1497   00000A                     drawPixel@x:
  1498                           	callstack 0
  1499   00000A                     ___aldiv@sign:
  1500                           	callstack 0
  1501   00000A                     
  1502                           ; 1 bytes @ 0x9
  1503   00000A                     	ds	1
  1504   00000B                     checkHit@i:
  1505                           	callstack 0
  1506   00000B                     drawRect@y:
  1507                           	callstack 0
  1508   00000B                     fillRect@y:
  1509                           	callstack 0
  1510   00000B                     ___simple_search_fl@split:
  1511                           	callstack 0
  1512   00000B                     ___aldiv@quotient:
  1513                           	callstack 0
  1514   00000B                     ??_spawnTiles:
  1515                           
  1516                           ; 1 bytes @ 0xA
  1517   00000B                     	ds	1
  1518   00000C                     drawRect@w:
  1519                           	callstack 0
  1520   00000C                     fillRect@w:
  1521                           	callstack 0
  1522   00000C                     
  1523                           ; 1 bytes @ 0xB
  1524   00000C                     	ds	1
  1525   00000D                     drawRect@h:
  1526                           	callstack 0
  1527   00000D                     fillRect@h:
  1528                           	callstack 0
  1529   00000D                     ___lldiv@counter:
  1530                           	callstack 0
  1531   00000D                     ___simple_search_fl@last:
  1532                           	callstack 0
  1533                           
  1534                           ; 2 bytes @ 0xC
  1535   00000D                     	ds	1
  1536   00000E                     fillRect@color:
  1537                           	callstack 0
  1538   00000E                     utoa32@value:
  1539                           	callstack 0
  1540   00000E                     ??_drawRect:
  1541                           
  1542                           ; 1 bytes @ 0xD
  1543   00000E                     	ds	1
  1544   00000F                     drawRect@i:
  1545                           	callstack 0
  1546   00000F                     fillRect@x:
  1547                           	callstack 0
  1548   00000F                     ___simple_search_fl@next:
  1549                           	callstack 0
  1550   00000F                     
  1551                           ; 1 bytes @ 0xE
  1552   00000F                     	ds	1
  1553   000010                     drawRect@i_618:
  1554                           	callstack 0
  1555   000010                     fillRect@i:
  1556                           	callstack 0
  1557                           
  1558                           ; 1 bytes @ 0xF
  1559   000010                     	ds	1
  1560   000011                     updateColumn@j:
  1561                           	callstack 0
  1562   000011                     drawRect@x:
  1563                           	callstack 0
  1564   000011                     fillRect@j:
  1565                           	callstack 0
  1566   000011                     ___simple_search_fl@c:
  1567                           	callstack 0
  1568   000011                     spawnTiles@t:
  1569                           	callstack 0
  1570                           
  1571                           ; 7 bytes @ 0x10
  1572   000011                     	ds	1
  1573   000012                     updateColumn@i:
  1574                           	callstack 0
  1575   000012                     drawColl@activeCol:
  1576                           	callstack 0
  1577   000012                     utoa32@buffer:
  1578                           	callstack 0
  1579                           
  1580                           ; 1 bytes @ 0x11
  1581   000012                     	ds	1
  1582   000013                     drawColl@cnt:
  1583                           	callstack 0
  1584   000013                     ___simple_search_fl@best:
  1585                           	callstack 0
  1586   000013                     utoa32@temp:
  1587                           	callstack 0
  1588   000013                     
  1589                           ; 1 bytes @ 0x12
  1590   000013                     	ds	1
  1591   000014                     ??_drawColl:
  1592                           
  1593                           ; 1 bytes @ 0x13
  1594   000014                     	ds	1
  1595   000015                     ?_malloc:
  1596                           	callstack 0
  1597   000015                     malloc@n:
  1598                           	callstack 0
  1599                           
  1600                           ; 2 bytes @ 0x14
  1601   000015                     	ds	2
  1602   000017                     ??_malloc:
  1603                           
  1604                           ; 1 bytes @ 0x16
  1605   000017                     	ds	1
  1606   000018                     drawColl@dt:
  1607                           	callstack 0
  1608                           
  1609                           ; 4 bytes @ 0x17
  1610   000018                     	ds	1
  1611   000019                     malloc@m:
  1612                           	callstack 0
  1613                           
  1614                           ; 2 bytes @ 0x18
  1615   000019                     	ds	2
  1616   00001B                     malloc@sz:
  1617                           	callstack 0
  1618                           
  1619                           ; 2 bytes @ 0x1A
  1620   00001B                     	ds	1
  1621   00001C                     drawColl@x:
  1622                           	callstack 0
  1623                           
  1624                           ; 1 bytes @ 0x1B
  1625   00001C                     	ds	1
  1626   00001D                     drawColl@height:
  1627                           	callstack 0
  1628   00001D                     utoa32@j:
  1629                           	callstack 0
  1630   00001D                     malloc@p:
  1631                           	callstack 0
  1632                           
  1633                           ; 2 bytes @ 0x1C
  1634   00001D                     	ds	1
  1635   00001E                     drawColl@y:
  1636                           	callstack 0
  1637                           
  1638                           ; 2 bytes @ 0x1D
  1639   00001E                     	ds	1
  1640   00001F                     utoa32@i:
  1641                           	callstack 0
  1642   00001F                     malloc@new:
  1643                           	callstack 0
  1644                           
  1645                           ; 2 bytes @ 0x1E
  1646   00001F                     	ds	1
  1647   000020                     drawColl@i:
  1648                           	callstack 0
  1649                           
  1650                           ; 1 bytes @ 0x1F
  1651   000020                     	ds	1
  1652   000021                     ?_tileInit:
  1653                           	callstack 0
  1654   000021                     tileInit@start:
  1655                           	callstack 0
  1656   000021                     
  1657                           ; 1 bytes @ 0x20
  1658   000021                     	ds	4
  1659   000025                     tileInit@len:
  1660                           	callstack 0
  1661                           
  1662                           ; 2 bytes @ 0x24
  1663   000025                     	ds	2
  1664   000027                     tileInit@outputTile:
  1665                           	callstack 0
  1666   000027                     
  1667                           ; 1 bytes @ 0x26
  1668   000027                     	ds	2
  1669   000029                     
  1670                           ; 1 bytes @ 0x28
  1671 ;;
  1672 ;;Main: autosize = 0, tempsize = 0, incstack = 0, save=0
  1673 ;;
  1674 ;; *************** function _main *****************
  1675 ;; Defined at:
  1676 ;;		line 352 in file "main.c"
  1677 ;; Parameters:    Size  Location     Type
  1678 ;;		None
  1679 ;; Auto vars:     Size  Location     Type
  1680 ;;		None
  1681 ;; Return value:  Size  Location     Type
  1682 ;;                  1    wreg      void 
  1683 ;; Registers used:
  1684 ;;		wreg, fsr0l, fsr0h, fsr1l, fsr1h, fsr2l, fsr2h, status,2, status,0, tblptrl, tblptrh, tblptru, prodl, prodh, cstack
  1685 ;; Tracked objects:
  1686 ;;		On entry : 0/0
  1687 ;;		On exit  : 0/0
  1688 ;;		Unchanged: 0/0
  1689 ;; Data sizes:     COMRAM   BANK0   BANK1   BANK2   BANK3   BANK4   BANK5   BANK6   BANK7
  1690 ;;      Params:         0       0       0       0       0       0       0       0       0
  1691 ;;      Locals:         0       0       0       0       0       0       0       0       0
  1692 ;;      Temps:          0       0       0       0       0       0       0       0       0
  1693 ;;      Totals:         0       0       0       0       0       0       0       0       0
  1694 ;;Total ram usage:        0 bytes
  1695 ;; Hardware stack levels required when called: 7
  1696 ;; This function calls:
  1697 ;;		___llmod
  1698 ;;		_clearBuffer
  1699 ;;		_clearLeds
  1700 ;;		_drawUi
  1701 ;;		_handleSwitches
  1702 ;;		_initDisplay
  1703 ;;		_setInterrupt
  1704 ;;		_setPinout
  1705 ;;		_setTimer0
  1706 ;;		_setTimer2
  1707 ;;		_spawnTiles
  1708 ;;		_tileInit
  1709 ;;		_updateDisplay
  1710 ;;		_updateTiles
  1711 ;; This function is called by:
  1712 ;;		Startup code after reset
  1713 ;; This function uses a non-reentrant model
  1714 ;;
  1715                           
  1716                           	psect	text0
  1717   000726                     __ptext0:
  1718                           	callstack 0
  1719   000726                     _main:
  1720                           	callstack 24
  1721   000726                     
  1722                           ;main.c: 354:     setPinout();
  1723   000726  EC75  F00B         	call	_setPinout	;wreg free
  1724   00072A                     
  1725                           ;main.c: 355:     clearLeds();
  1726   00072A  EC83  F00B         	call	_clearLeds	;wreg free
  1727   00072E                     
  1728                           ;main.c: 356:     setTimer0();
  1729   00072E  EC65  F00B         	call	_setTimer0	;wreg free
  1730   000732                     
  1731                           ;main.c: 357:     setTimer2();
  1732   000732  EC6E  F00B         	call	_setTimer2	;wreg free
  1733   000736                     
  1734                           ;main.c: 359:     initDisplay();
  1735   000736  ECDE  F009         	call	_initDisplay	;wreg free
  1736   00073A                     
  1737                           ;main.c: 360:     setInterrupt();
  1738   00073A  EC89  F00B         	call	_setInterrupt	;wreg free
  1739   00073E                     
  1740                           ;main.c: 363:     clearBuffer();
  1741   00073E  EC8F  F00A         	call	_clearBuffer	;wreg free
  1742   000742                     
  1743                           ;main.c: 364:     Col4[0] = *tileInit(1000, 500);
  1744   000742  0EE8               	movlw	232
  1745   000744  6E21               	movwf	tileInit@start^0,c
  1746   000746  0E03               	movlw	3
  1747   000748  6E22               	movwf	(tileInit@start+1)^0,c
  1748   00074A  0E00               	movlw	0
  1749   00074C  6E23               	movwf	(tileInit@start+2)^0,c
  1750   00074E  0E00               	movlw	0
  1751   000750  6E24               	movwf	(tileInit@start+3)^0,c
  1752   000752  0E01               	movlw	1
  1753   000754  6E26               	movwf	(tileInit@len+1)^0,c
  1754   000756  0EF4               	movlw	244
  1755   000758  6E25               	movwf	tileInit@len^0,c
  1756   00075A  ECAA  F009         	call	_tileInit	;wreg free
  1757   00075E  C021  FFD9         	movff	?_tileInit,fsr2l
  1758   000762  C022  FFDA         	movff	?_tileInit+1,fsr2h
  1759   000766  EE10  F07C         	lfsr	1,_Col4
  1760   00076A  0E06               	movlw	6
  1761   00076C                     u2151:
  1762   00076C  CFDB FFE3          	movff	plusw2,plusw1
  1763   000770  06E8               	decf	wreg,f,c
  1764   000772  E2FC               	bc	u2151
  1765   000774                     
  1766                           ;main.c: 365:     Col4[1] = *tileInit(2000, 100);
  1767   000774  0ED0               	movlw	208
  1768   000776  6E21               	movwf	tileInit@start^0,c
  1769   000778  0E07               	movlw	7
  1770   00077A  6E22               	movwf	(tileInit@start+1)^0,c
  1771   00077C  0E00               	movlw	0
  1772   00077E  6E23               	movwf	(tileInit@start+2)^0,c
  1773   000780  0E00               	movlw	0
  1774   000782  6E24               	movwf	(tileInit@start+3)^0,c
  1775   000784  0E00               	movlw	0
  1776   000786  6E26               	movwf	(tileInit@len+1)^0,c
  1777   000788  0E64               	movlw	100
  1778   00078A  6E25               	movwf	tileInit@len^0,c
  1779   00078C  ECAA  F009         	call	_tileInit	;wreg free
  1780   000790  C021  FFD9         	movff	?_tileInit,fsr2l
  1781   000794  C022  FFDA         	movff	?_tileInit+1,fsr2h
  1782   000798  EE10  F083         	lfsr	1,_Col4+7
  1783   00079C  0E06               	movlw	6
  1784   00079E                     u2161:
  1785   00079E  CFDB FFE3          	movff	plusw2,plusw1
  1786   0007A2  06E8               	decf	wreg,f,c
  1787   0007A4  E2FC               	bc	u2161
  1788   0007A6                     
  1789                           ;main.c: 366:     Col4[2] = *tileInit(3000, 700);
  1790   0007A6  0EB8               	movlw	184
  1791   0007A8  6E21               	movwf	tileInit@start^0,c
  1792   0007AA  0E0B               	movlw	11
  1793   0007AC  6E22               	movwf	(tileInit@start+1)^0,c
  1794   0007AE  0E00               	movlw	0
  1795   0007B0  6E23               	movwf	(tileInit@start+2)^0,c
  1796   0007B2  0E00               	movlw	0
  1797   0007B4  6E24               	movwf	(tileInit@start+3)^0,c
  1798   0007B6  0E02               	movlw	2
  1799   0007B8  6E26               	movwf	(tileInit@len+1)^0,c
  1800   0007BA  0EBC               	movlw	188
  1801   0007BC  6E25               	movwf	tileInit@len^0,c
  1802   0007BE  ECAA  F009         	call	_tileInit	;wreg free
  1803   0007C2  C021  FFD9         	movff	?_tileInit,fsr2l
  1804   0007C6  C022  FFDA         	movff	?_tileInit+1,fsr2h
  1805   0007CA  EE10  F08A         	lfsr	1,_Col4+14
  1806   0007CE  0E06               	movlw	6
  1807   0007D0                     u2171:
  1808   0007D0  CFDB FFE3          	movff	plusw2,plusw1
  1809   0007D4  06E8               	decf	wreg,f,c
  1810   0007D6  E2FC               	bc	u2171
  1811   0007D8                     l2752:
  1812                           
  1813                           ;main.c: 388:     {;main.c: 389:         if ( (uint32_t) millis%2 == 0){
  1814   0007D8  B02D               	btfsc	_millis^0,0,c	;volatile
  1815   0007DA  EFF1  F003         	goto	u2181
  1816   0007DE  EFF3  F003         	goto	u2180
  1817   0007E2                     u2181:
  1818   0007E2  EFF5  F003         	goto	l2756
  1819   0007E6                     u2180:
  1820   0007E6                     
  1821                           ;main.c: 390:             handleSwitches();
  1822   0007E6  EC61  F008         	call	_handleSwitches	;wreg free
  1823   0007EA                     l2756:
  1824                           
  1825                           ;main.c: 392:         if ( (uint32_t) millis%100 == 0){
  1826   0007EA  C02D  F001         	movff	_millis,___llmod@dividend	;volatile
  1827   0007EE  C02E  F002         	movff	_millis+1,___llmod@dividend+1	;volatile
  1828   0007F2  C02F  F003         	movff	_millis+2,___llmod@dividend+2	;volatile
  1829   0007F6  C030  F004         	movff	_millis+3,___llmod@dividend+3	;volatile
  1830   0007FA  0E64               	movlw	100
  1831   0007FC  6E05               	movwf	___llmod@divisor^0,c
  1832   0007FE  0E00               	movlw	0
  1833   000800  6E06               	movwf	(___llmod@divisor+1)^0,c
  1834   000802  0E00               	movlw	0
  1835   000804  6E07               	movwf	(___llmod@divisor+2)^0,c
  1836   000806  0E00               	movlw	0
  1837   000808  6E08               	movwf	(___llmod@divisor+3)^0,c
  1838   00080A  ECF7  F008         	call	___llmod	;wreg free
  1839   00080E  5001               	movf	?___llmod^0,w,c
  1840   000810  1002               	iorwf	(?___llmod+1)^0,w,c
  1841   000812  1003               	iorwf	(?___llmod+2)^0,w,c
  1842   000814  1004               	iorwf	(?___llmod+3)^0,w,c
  1843   000816  A4D8               	btfss	status,2,c
  1844   000818  EF10  F004         	goto	u2191
  1845   00081C  EF12  F004         	goto	u2190
  1846   000820                     u2191:
  1847   000820  EFEC  F003         	goto	l2752
  1848   000824                     u2190:
  1849   000824                     
  1850                           ;main.c: 393:             spawnTiles();
  1851   000824  ECE5  F002         	call	_spawnTiles	;wreg free
  1852   000828                     
  1853                           ;main.c: 394:             updateTiles();
  1854   000828  ECF4  F00A         	call	_updateTiles	;wreg free
  1855   00082C                     
  1856                           ;main.c: 395:             drawUi();
  1857   00082C  EC44  F001         	call	_drawUi	;wreg free
  1858   000830                     
  1859                           ;main.c: 396:             updateDisplay();
  1860   000830  EC3C  F00A         	call	_updateDisplay	;wreg free
  1861   000834                     
  1862                           ;main.c: 397:             clearBuffer();
  1863   000834  EC8F  F00A         	call	_clearBuffer	;wreg free
  1864   000838  EFEC  F003         	goto	l2752
  1865   00083C  EF07  F000         	goto	start
  1866   000840                     __end_of_main:
  1867                           	callstack 0
  1868                           
  1869 ;; *************** function _updateTiles *****************
  1870 ;; Defined at:
  1871 ;;		line 146 in file "main.c"
  1872 ;; Parameters:    Size  Location     Type
  1873 ;;		None
  1874 ;; Auto vars:     Size  Location     Type
  1875 ;;		None
  1876 ;; Return value:  Size  Location     Type
  1877 ;;                  1    wreg      void 
  1878 ;; Registers used:
  1879 ;;		wreg, fsr1l, fsr1h, fsr2l, fsr2h, status,2, status,0, prodl, prodh, cstack
  1880 ;; Tracked objects:
  1881 ;;		On entry : 0/0
  1882 ;;		On exit  : 0/0
  1883 ;;		Unchanged: 0/0
  1884 ;; Data sizes:     COMRAM   BANK0   BANK1   BANK2   BANK3   BANK4   BANK5   BANK6   BANK7
  1885 ;;      Params:         0       0       0       0       0       0       0       0       0
  1886 ;;      Locals:         0       0       0       0       0       0       0       0       0
  1887 ;;      Temps:          0       0       0       0       0       0       0       0       0
  1888 ;;      Totals:         0       0       0       0       0       0       0       0       0
  1889 ;;Total ram usage:        0 bytes
  1890 ;; Hardware stack levels used: 1
  1891 ;; Hardware stack levels required when called: 2
  1892 ;; This function calls:
  1893 ;;		_updateColumn
  1894 ;; This function is called by:
  1895 ;;		_main
  1896 ;; This function uses a non-reentrant model
  1897 ;;
  1898                           
  1899                           	psect	text1
  1900   0015E8                     __ptext1:
  1901                           	callstack 0
  1902   0015E8                     _updateTiles:
  1903                           	callstack 28
  1904   0015E8                     
  1905                           ;main.c: 147:     updateColumn(Col1, &Col1cnt);
  1906   0015E8  0ED0               	movlw	low _Col1
  1907   0015EA  6E01               	movwf	updateColumn@col^0,c
  1908   0015EC  0E45               	movlw	low _Col1cnt
  1909   0015EE  6E02               	movwf	updateColumn@cnt^0,c
  1910   0015F0  EC20  F004         	call	_updateColumn	;wreg free
  1911                           
  1912                           ;main.c: 148:     updateColumn(Col2, &Col2cnt);
  1913   0015F4  0EB4               	movlw	low _Col2
  1914   0015F6  6E01               	movwf	updateColumn@col^0,c
  1915   0015F8  0E44               	movlw	low _Col2cnt
  1916   0015FA  6E02               	movwf	updateColumn@cnt^0,c
  1917   0015FC  EC20  F004         	call	_updateColumn	;wreg free
  1918                           
  1919                           ;main.c: 149:     updateColumn(Col3, &Col3cnt);
  1920   001600  0E98               	movlw	low _Col3
  1921   001602  6E01               	movwf	updateColumn@col^0,c
  1922   001604  0E43               	movlw	low _Col3cnt
  1923   001606  6E02               	movwf	updateColumn@cnt^0,c
  1924   001608  EC20  F004         	call	_updateColumn	;wreg free
  1925                           
  1926                           ;main.c: 150:     updateColumn(Col4, &Col4cnt);
  1927   00160C  0E7C               	movlw	low _Col4
  1928   00160E  6E01               	movwf	updateColumn@col^0,c
  1929   001610  0E42               	movlw	low _Col4cnt
  1930   001612  6E02               	movwf	updateColumn@cnt^0,c
  1931   001614  EC20  F004         	call	_updateColumn	;wreg free
  1932   001618  0012               	return		;funcret
  1933   00161A                     __end_of_updateTiles:
  1934                           	callstack 0
  1935                           
  1936 ;; *************** function _updateColumn *****************
  1937 ;; Defined at:
  1938 ;;		line 131 in file "main.c"
  1939 ;; Parameters:    Size  Location     Type
  1940 ;;  col             1    0[COMRAM] PTR struct tile
  1941 ;;		 -> Col4(28), Col3(28), Col2(28), Col1(28), 
  1942 ;;  cnt             1    1[COMRAM] PTR unsigned char 
  1943 ;;		 -> Col4cnt(1), Col3cnt(1), Col2cnt(1), Col1cnt(1), 
  1944 ;; Auto vars:     Size  Location     Type
  1945 ;;  j               1   16[COMRAM] unsigned char 
  1946 ;;  i               1   17[COMRAM] unsigned char 
  1947 ;; Return value:  Size  Location     Type
  1948 ;;                  1    wreg      void 
  1949 ;; Registers used:
  1950 ;;		wreg, fsr1l, fsr1h, fsr2l, fsr2h, status,2, status,0, prodl, prodh
  1951 ;; Tracked objects:
  1952 ;;		On entry : 0/0
  1953 ;;		On exit  : 0/0
  1954 ;;		Unchanged: 0/0
  1955 ;; Data sizes:     COMRAM   BANK0   BANK1   BANK2   BANK3   BANK4   BANK5   BANK6   BANK7
  1956 ;;      Params:         2       0       0       0       0       0       0       0       0
  1957 ;;      Locals:         2       0       0       0       0       0       0       0       0
  1958 ;;      Temps:         14       0       0       0       0       0       0       0       0
  1959 ;;      Totals:        18       0       0       0       0       0       0       0       0
  1960 ;;Total ram usage:       18 bytes
  1961 ;; Hardware stack levels used: 1
  1962 ;; Hardware stack levels required when called: 1
  1963 ;; This function calls:
  1964 ;;		Nothing
  1965 ;; This function is called by:
  1966 ;;		_updateTiles
  1967 ;; This function uses a non-reentrant model
  1968 ;;
  1969                           
  1970                           	psect	text2
  1971   000840                     __ptext2:
  1972                           	callstack 0
  1973   000840                     _updateColumn:
  1974                           	callstack 28
  1975   000840                     
  1976                           ;main.c: 132:     for(uint8_t i = 0; i < *cnt; i++){
  1977   000840  6A12               	clrf	updateColumn@i^0,c
  1978   000842  EF9F  F004         	goto	l122
  1979   000846                     l2340:
  1980                           
  1981                           ;main.c: 133:         if (millis > col[i].start + col[i].len + 500){
  1982   000846  5012               	movf	updateColumn@i^0,w,c
  1983   000848  0D07               	mullw	7
  1984   00084A  5001               	movf	updateColumn@col^0,w,c
  1985   00084C  24F3               	addwf	243,w,c
  1986   00084E  6ED9               	movwf	fsr2l,c
  1987   000850  6ADA               	clrf	fsr2h,c
  1988   000852  CFDE F003          	movff	postinc2,??_updateColumn
  1989   000856  CFDE F004          	movff	postinc2,??_updateColumn+1
  1990   00085A  CFDE F005          	movff	postinc2,??_updateColumn+2
  1991   00085E  CFDE F006          	movff	postinc2,??_updateColumn+3
  1992   000862  5012               	movf	updateColumn@i^0,w,c
  1993   000864  0D07               	mullw	7
  1994   000866  5001               	movf	updateColumn@col^0,w,c
  1995   000868  24F3               	addwf	243,w,c
  1996   00086A  6ED9               	movwf	fsr2l,c
  1997   00086C  6ADA               	clrf	fsr2h,c
  1998   00086E  0E04               	movlw	4
  1999   000870  26D9               	addwf	fsr2l,f,c
  2000   000872  CFDE F007          	movff	postinc2,??_updateColumn+4
  2001   000876  CFDD F008          	movff	postdec2,??_updateColumn+5
  2002   00087A  5007               	movf	(??_updateColumn+4)^0,w,c
  2003   00087C  2403               	addwf	??_updateColumn^0,w,c
  2004   00087E  6E09               	movwf	(??_updateColumn+6)^0,c
  2005   000880  5008               	movf	(??_updateColumn+5)^0,w,c
  2006   000882  2004               	addwfc	(??_updateColumn+1)^0,w,c
  2007   000884  6E0A               	movwf	(??_updateColumn+7)^0,c
  2008   000886  0E00               	movlw	0
  2009   000888  2005               	addwfc	(??_updateColumn+2)^0,w,c
  2010   00088A  6E0B               	movwf	(??_updateColumn+8)^0,c
  2011   00088C  0E00               	movlw	0
  2012   00088E  2006               	addwfc	(??_updateColumn+3)^0,w,c
  2013   000890  6E0C               	movwf	(??_updateColumn+9)^0,c
  2014   000892  0EF4               	movlw	244
  2015   000894  2409               	addwf	(??_updateColumn+6)^0,w,c
  2016   000896  6E0D               	movwf	(??_updateColumn+10)^0,c
  2017   000898  0E01               	movlw	1
  2018   00089A  200A               	addwfc	(??_updateColumn+7)^0,w,c
  2019   00089C  6E0E               	movwf	(??_updateColumn+11)^0,c
  2020   00089E  0E00               	movlw	0
  2021   0008A0  200B               	addwfc	(??_updateColumn+8)^0,w,c
  2022   0008A2  6E0F               	movwf	(??_updateColumn+12)^0,c
  2023   0008A4  0E00               	movlw	0
  2024   0008A6  200C               	addwfc	(??_updateColumn+9)^0,w,c
  2025   0008A8  6E10               	movwf	(??_updateColumn+13)^0,c
  2026   0008AA  502D               	movf	_millis^0,w,c	;volatile
  2027   0008AC  5C0D               	subwf	(??_updateColumn+10)^0,w,c
  2028   0008AE  502E               	movf	(_millis+1)^0,w,c	;volatile
  2029   0008B0  580E               	subwfb	(??_updateColumn+11)^0,w,c
  2030   0008B2  502F               	movf	(_millis+2)^0,w,c	;volatile
  2031   0008B4  580F               	subwfb	(??_updateColumn+12)^0,w,c
  2032   0008B6  5030               	movf	(_millis+3)^0,w,c	;volatile
  2033   0008B8  5810               	subwfb	(??_updateColumn+13)^0,w,c
  2034   0008BA  B0D8               	btfsc	status,0,c
  2035   0008BC  EF62  F004         	goto	u1701
  2036   0008C0  EF64  F004         	goto	u1700
  2037   0008C4                     u1701:
  2038   0008C4  EF9E  F004         	goto	l2354
  2039   0008C8                     u1700:
  2040   0008C8                     
  2041                           ;main.c: 136:             for(uint8_t j = i; j < (*cnt - 1); j++){
  2042   0008C8  C012  F011         	movff	updateColumn@i,updateColumn@j
  2043   0008CC  EF7C  F004         	goto	l2348
  2044   0008D0                     l2344:
  2045                           
  2046                           ;main.c: 137:                 col[j] = col[j + 1];
  2047   0008D0  5011               	movf	updateColumn@j^0,w,c
  2048   0008D2  0D07               	mullw	7
  2049   0008D4  5001               	movf	updateColumn@col^0,w,c
  2050   0008D6  24F3               	addwf	243,w,c
  2051   0008D8  6ED9               	movwf	fsr2l,c
  2052   0008DA  6ADA               	clrf	fsr2h,c
  2053   0008DC  0E07               	movlw	7
  2054   0008DE  26D9               	addwf	fsr2l,f,c
  2055   0008E0  5011               	movf	updateColumn@j^0,w,c
  2056   0008E2  0D07               	mullw	7
  2057   0008E4  5001               	movf	updateColumn@col^0,w,c
  2058   0008E6  24F3               	addwf	243,w,c
  2059   0008E8  6EE1               	movwf	fsr1l,c
  2060   0008EA  6AE2               	clrf	fsr1h,c
  2061   0008EC  0E06               	movlw	6
  2062   0008EE                     u1711:
  2063   0008EE  CFDB FFE3          	movff	plusw2,plusw1
  2064   0008F2  06E8               	decf	wreg,f,c
  2065   0008F4  E2FC               	bc	u1711
  2066   0008F6                     
  2067                           ;main.c: 138:             }
  2068   0008F6  2A11               	incf	updateColumn@j^0,f,c
  2069   0008F8                     l2348:
  2070   0008F8  5002               	movf	updateColumn@cnt^0,w,c
  2071   0008FA  6ED9               	movwf	fsr2l,c
  2072   0008FC  6ADA               	clrf	fsr2h,c
  2073   0008FE  50DF               	movf	indf2,w,c
  2074   000900  6E03               	movwf	??_updateColumn^0,c
  2075   000902  0EFF               	movlw	255
  2076   000904  2403               	addwf	??_updateColumn^0,w,c
  2077   000906  6E04               	movwf	(??_updateColumn+1)^0,c
  2078   000908  6A05               	clrf	(??_updateColumn+2)^0,c
  2079   00090A  0EFF               	movlw	255
  2080   00090C  2205               	addwfc	(??_updateColumn+2)^0,f,c
  2081   00090E  5011               	movf	updateColumn@j^0,w,c
  2082   000910  6E06               	movwf	(??_updateColumn+3)^0,c
  2083   000912  6A07               	clrf	(??_updateColumn+4)^0,c
  2084   000914  5004               	movf	(??_updateColumn+1)^0,w,c
  2085   000916  5C06               	subwf	(??_updateColumn+3)^0,w,c
  2086   000918  5007               	movf	(??_updateColumn+4)^0,w,c
  2087   00091A  0A80               	xorlw	128
  2088   00091C  6E08               	movwf	(??_updateColumn+5)^0,c
  2089   00091E  5005               	movf	(??_updateColumn+2)^0,w,c
  2090   000920  0A80               	xorlw	128
  2091   000922  5808               	subwfb	(??_updateColumn+5)^0,w,c
  2092   000924  A0D8               	btfss	status,0,c
  2093   000926  EF97  F004         	goto	u1721
  2094   00092A  EF99  F004         	goto	u1720
  2095   00092E                     u1721:
  2096   00092E  EF68  F004         	goto	l2344
  2097   000932                     u1720:
  2098   000932                     
  2099                           ;main.c: 140:             (*cnt)--;
  2100   000932  5002               	movf	updateColumn@cnt^0,w,c
  2101   000934  6ED9               	movwf	fsr2l,c
  2102   000936  6ADA               	clrf	fsr2h,c
  2103   000938  06DF               	decf	indf2,f,c
  2104   00093A                     
  2105                           ;main.c: 141:             i--;
  2106   00093A  0612               	decf	updateColumn@i^0,f,c
  2107   00093C                     l2354:
  2108                           
  2109                           ;main.c: 143:     }
  2110   00093C  2A12               	incf	updateColumn@i^0,f,c
  2111   00093E                     l122:
  2112   00093E  5002               	movf	updateColumn@cnt^0,w,c
  2113   000940  6ED9               	movwf	fsr2l,c
  2114   000942  6ADA               	clrf	fsr2h,c
  2115   000944  50DE               	movf	postinc2,w,c
  2116   000946  5C12               	subwf	updateColumn@i^0,w,c
  2117   000948  A0D8               	btfss	status,0,c
  2118   00094A  EFA9  F004         	goto	u1731
  2119   00094E  EFAB  F004         	goto	u1730
  2120   000952                     u1731:
  2121   000952  EF23  F004         	goto	l2340
  2122   000956                     u1730:
  2123   000956  0012               	return		;funcret
  2124   000958                     __end_of_updateColumn:
  2125                           	callstack 0
  2126                           
  2127 ;; *************** function _tileInit *****************
  2128 ;; Defined at:
  2129 ;;		line 266 in file "main.c"
  2130 ;; Parameters:    Size  Location     Type
  2131 ;;  start           4   32[COMRAM] unsigned long 
  2132 ;;  len             2   36[COMRAM] unsigned short 
  2133 ;; Auto vars:     Size  Location     Type
  2134 ;;  outputTile      2   38[COMRAM] PTR struct tile
  2135 ;;		 -> __heap_hi(0), NULL(0), 
  2136 ;; Return value:  Size  Location     Type
  2137 ;;                  2   32[COMRAM] PTR struct tile
  2138 ;; Registers used:
  2139 ;;		wreg, fsr1l, fsr1h, fsr2l, fsr2h, status,2, status,0, cstack
  2140 ;; Tracked objects:
  2141 ;;		On entry : 0/0
  2142 ;;		On exit  : 0/0
  2143 ;;		Unchanged: 0/0
  2144 ;; Data sizes:     COMRAM   BANK0   BANK1   BANK2   BANK3   BANK4   BANK5   BANK6   BANK7
  2145 ;;      Params:         6       0       0       0       0       0       0       0       0
  2146 ;;      Locals:         2       0       0       0       0       0       0       0       0
  2147 ;;      Temps:          0       0       0       0       0       0       0       0       0
  2148 ;;      Totals:         8       0       0       0       0       0       0       0       0
  2149 ;;Total ram usage:        8 bytes
  2150 ;; Hardware stack levels used: 1
  2151 ;; Hardware stack levels required when called: 3
  2152 ;; This function calls:
  2153 ;;		_malloc
  2154 ;; This function is called by:
  2155 ;;		_main
  2156 ;; This function uses a non-reentrant model
  2157 ;;
  2158                           
  2159                           	psect	text3
  2160   001354                     __ptext3:
  2161                           	callstack 0
  2162   001354                     _tileInit:
  2163                           	callstack 27
  2164   001354                     
  2165                           ;main.c: 267:     struct tile* outputTile = malloc(sizeof(struct tile));
  2166   001354  0E00               	movlw	0
  2167   001356  6E16               	movwf	(malloc@n+1)^0,c
  2168   001358  0E07               	movlw	7
  2169   00135A  6E15               	movwf	malloc@n^0,c
  2170   00135C  EC36  F002         	call	_malloc	;wreg free
  2171   001360  C015  F027         	movff	?_malloc,tileInit@outputTile
  2172   001364  C016  F028         	movff	?_malloc+1,tileInit@outputTile+1
  2173   001368                     
  2174                           ;main.c: 269:     if (outputTile == ((void*)0)) return ((void*)0);
  2175   001368  5027               	movf	tileInit@outputTile^0,w,c
  2176   00136A  1028               	iorwf	(tileInit@outputTile+1)^0,w,c
  2177   00136C  A4D8               	btfss	status,2,c
  2178   00136E  EFBB  F009         	goto	u2101
  2179   001372  EFBD  F009         	goto	u2100
  2180   001376                     u2101:
  2181   001376  EFC3  F009         	goto	l2636
  2182   00137A                     u2100:
  2183   00137A  0E00               	movlw	0
  2184   00137C  6E21               	movwf	?_tileInit^0,c
  2185   00137E  0E00               	movlw	0
  2186   001380  6E22               	movwf	(?_tileInit+1)^0,c
  2187   001382  EFDD  F009         	goto	l153
  2188   001386                     l2636:
  2189                           
  2190                           ;main.c: 271:     outputTile->len = len;
  2191   001386  EE20 F004          	lfsr	2,4
  2192   00138A  5027               	movf	tileInit@outputTile^0,w,c
  2193   00138C  26D9               	addwf	fsr2l,f,c
  2194   00138E  5028               	movf	(tileInit@outputTile+1)^0,w,c
  2195   001390  22DA               	addwfc	fsr2h,f,c
  2196   001392  C025  FFDE         	movff	tileInit@len,postinc2
  2197   001396  C026  FFDD         	movff	tileInit@len+1,postdec2
  2198   00139A                     
  2199                           ;main.c: 272:     outputTile->start = start;
  2200   00139A  C027  FFD9         	movff	tileInit@outputTile,fsr2l
  2201   00139E  C028  FFDA         	movff	tileInit@outputTile+1,fsr2h
  2202   0013A2  C021  FFDE         	movff	tileInit@start,postinc2
  2203   0013A6  C022  FFDE         	movff	tileInit@start+1,postinc2
  2204   0013AA  C023  FFDE         	movff	tileInit@start+2,postinc2
  2205   0013AE  C024  FFDE         	movff	tileInit@start+3,postinc2
  2206                           
  2207                           ;main.c: 274:     return outputTile;
  2208   0013B2  C027  F021         	movff	tileInit@outputTile,?_tileInit
  2209   0013B6  C028  F022         	movff	tileInit@outputTile+1,?_tileInit+1
  2210   0013BA                     l153:
  2211   0013BA  0012               	return		;funcret
  2212   0013BC                     __end_of_tileInit:
  2213                           	callstack 0
  2214                           
  2215 ;; *************** function _malloc *****************
  2216 ;; Defined at:
  2217 ;;		line 16 in file "C:\Program Files\Microchip\xc8\v2.50\pic\sources\c99\common\lite_malloc.c"
  2218 ;; Parameters:    Size  Location     Type
  2219 ;;  n               2   20[COMRAM] unsigned int 
  2220 ;; Auto vars:     Size  Location     Type
  2221 ;;  sz              2   26[COMRAM] PTR unsigned int 
  2222 ;;		 -> __heap_hi(0), NULL(0), 
  2223 ;;  new             2   30[COMRAM] PTR unsigned char 
  2224 ;;		 -> __heap_hi(0), NULL(0), 
  2225 ;;  m               2   24[COMRAM] unsigned int 
  2226 ;;  p               2   28[COMRAM] PTR void 
  2227 ;;		 -> __heap_hi(0), NULL(0), 
  2228 ;;  size            2    0        unsigned int 
  2229 ;; Return value:  Size  Location     Type
  2230 ;;                  2   20[COMRAM] PTR void 
  2231 ;; Registers used:
  2232 ;;		wreg, fsr1l, fsr1h, fsr2l, fsr2h, status,2, status,0, cstack
  2233 ;; Tracked objects:
  2234 ;;		On entry : 0/0
  2235 ;;		On exit  : 0/0
  2236 ;;		Unchanged: 0/0
  2237 ;; Data sizes:     COMRAM   BANK0   BANK1   BANK2   BANK3   BANK4   BANK5   BANK6   BANK7
  2238 ;;      Params:         2       0       0       0       0       0       0       0       0
  2239 ;;      Locals:         8       0       0       0       0       0       0       0       0
  2240 ;;      Temps:          2       0       0       0       0       0       0       0       0
  2241 ;;      Totals:        12       0       0       0       0       0       0       0       0
  2242 ;;Total ram usage:       12 bytes
  2243 ;; Hardware stack levels used: 1
  2244 ;; Hardware stack levels required when called: 2
  2245 ;; This function calls:
  2246 ;;		___expand_heap
  2247 ;;		___simple_search_fl
  2248 ;; This function is called by:
  2249 ;;		_tileInit
  2250 ;; This function uses a non-reentrant model
  2251 ;;
  2252                           
  2253                           	psect	text4
  2254   00046C                     __ptext4:
  2255                           	callstack 0
  2256   00046C                     _malloc:
  2257                           	callstack 27
  2258   00046C  5015               	movf	malloc@n^0,w,c
  2259   00046E  1016               	iorwf	(malloc@n+1)^0,w,c
  2260   000470  A4D8               	btfss	status,2,c
  2261   000472  EF3D  F002         	goto	u1751
  2262   000476  EF3F  F002         	goto	u1750
  2263   00047A                     u1751:
  2264   00047A  EF41  F002         	goto	l2400
  2265   00047E                     u1750:
  2266   00047E  4A15               	infsnz	malloc@n^0,f,c
  2267   000480  2A16               	incf	(malloc@n+1)^0,f,c
  2268   000482                     l2400:
  2269   000482  5016               	movf	(malloc@n+1)^0,w,c
  2270   000484  E107               	bnz	u1761
  2271   000486  0E03               	movlw	3
  2272   000488  5C15               	subwf	malloc@n^0,w,c
  2273   00048A  B0D8               	btfsc	status,0,c
  2274   00048C  EF4A  F002         	goto	u1761
  2275   000490  EF4C  F002         	goto	u1760
  2276   000494                     u1761:
  2277   000494  EF52  F002         	goto	l2404
  2278   000498                     u1760:
  2279   000498  0E00               	movlw	0
  2280   00049A  6E16               	movwf	(malloc@n+1)^0,c
  2281   00049C  0E03               	movlw	3
  2282   00049E  6E15               	movwf	malloc@n^0,c
  2283   0004A0  EF6B  F002         	goto	l2412
  2284   0004A4                     l2404:
  2285   0004A4  1C15               	comf	malloc@n^0,w,c
  2286   0004A6  6E17               	movwf	??_malloc^0,c
  2287   0004A8  1C16               	comf	(malloc@n+1)^0,w,c
  2288   0004AA  6E18               	movwf	(??_malloc+1)^0,c
  2289   0004AC  5018               	movf	(??_malloc+1)^0,w,c
  2290   0004AE  E107               	bnz	u1771
  2291   0004B0  0E02               	movlw	2
  2292   0004B2  5C17               	subwf	??_malloc^0,w,c
  2293   0004B4  B0D8               	btfsc	status,0,c
  2294   0004B6  EF5F  F002         	goto	u1771
  2295   0004BA  EF61  F002         	goto	u1770
  2296   0004BE                     u1771:
  2297   0004BE  EF6B  F002         	goto	l2412
  2298   0004C2                     u1770:
  2299   0004C2  0E00               	movlw	0
  2300   0004C4  6E3A               	movwf	(_errno+1)^0,c
  2301   0004C6  0E0C               	movlw	12
  2302   0004C8  6E39               	movwf	_errno^0,c
  2303   0004CA                     l2408:
  2304   0004CA  0E00               	movlw	0
  2305   0004CC  6E15               	movwf	?_malloc^0,c
  2306   0004CE  0E00               	movlw	0
  2307   0004D0  6E16               	movwf	(?_malloc+1)^0,c
  2308   0004D2  EFE4  F002         	goto	l1075
  2309   0004D6                     l2412:
  2310   0004D6  C015  F001         	movff	malloc@n,___simple_search_fl@n
  2311   0004DA  C016  F002         	movff	malloc@n+1,___simple_search_fl@n+1
  2312   0004DE  EC09  F000         	call	___simple_search_fl	;wreg free
  2313   0004E2  C001  F01D         	movff	?___simple_search_fl,malloc@p
  2314   0004E6  C002  F01E         	movff	?___simple_search_fl+1,malloc@p+1
  2315   0004EA  501D               	movf	malloc@p^0,w,c
  2316   0004EC  101E               	iorwf	(malloc@p+1)^0,w,c
  2317   0004EE  A4D8               	btfss	status,2,c
  2318   0004F0  EF7C  F002         	goto	u1781
  2319   0004F4  EF7E  F002         	goto	u1780
  2320   0004F8                     u1781:
  2321   0004F8  EFE0  F002         	goto	l2444
  2322   0004FC                     u1780:
  2323   0004FC  5037               	movf	malloc@cur^0,w,c
  2324   0004FE  5C35               	subwf	malloc@end^0,w,c
  2325   000500  6E17               	movwf	??_malloc^0,c
  2326   000502  5038               	movf	(malloc@cur+1)^0,w,c
  2327   000504  5836               	subwfb	(malloc@end+1)^0,w,c
  2328   000506  6E18               	movwf	(??_malloc+1)^0,c
  2329   000508  5015               	movf	malloc@n^0,w,c
  2330   00050A  5C17               	subwf	??_malloc^0,w,c
  2331   00050C  5016               	movf	(malloc@n+1)^0,w,c
  2332   00050E  5818               	subwfb	(??_malloc+1)^0,w,c
  2333   000510  B0D8               	btfsc	status,0,c
  2334   000512  EF8D  F002         	goto	u1791
  2335   000516  EF8F  F002         	goto	u1790
  2336   00051A                     u1791:
  2337   00051A  EFBE  F002         	goto	l1077
  2338   00051E                     u1790:
  2339   00051E  0E02               	movlw	2
  2340   000520  2415               	addwf	malloc@n^0,w,c
  2341   000522  6E19               	movwf	malloc@m^0,c
  2342   000524  0E00               	movlw	0
  2343   000526  2016               	addwfc	(malloc@n+1)^0,w,c
  2344   000528  6E1A               	movwf	(malloc@m+1)^0,c
  2345   00052A  0E19               	movlw	low malloc@m
  2346   00052C  6E01               	movwf	___expand_heap@pn^0,c
  2347   00052E  EC63  F007         	call	___expand_heap	;wreg free
  2348   000532  C001  F01F         	movff	?___expand_heap,malloc@new
  2349   000536  C002  F020         	movff	?___expand_heap+1,malloc@new+1
  2350   00053A  501F               	movf	malloc@new^0,w,c
  2351   00053C  1020               	iorwf	(malloc@new+1)^0,w,c
  2352   00053E  A4D8               	btfss	status,2,c
  2353   000540  EFA4  F002         	goto	u1801
  2354   000544  EFA6  F002         	goto	u1800
  2355   000548                     u1801:
  2356   000548  EFA8  F002         	goto	l2430
  2357   00054C                     u1800:
  2358   00054C  EF65  F002         	goto	l2408
  2359   000550                     l2430:
  2360   000550  5035               	movf	malloc@end^0,w,c
  2361   000552  181F               	xorwf	malloc@new^0,w,c
  2362   000554  E109               	bnz	u1810
  2363   000556  5036               	movf	(malloc@end+1)^0,w,c
  2364   000558  1820               	xorwf	(malloc@new+1)^0,w,c
  2365   00055A  B4D8               	btfsc	status,2,c
  2366   00055C  EFB2  F002         	goto	u1811
  2367   000560  EFB4  F002         	goto	u1810
  2368   000564                     u1811:
  2369   000564  EFB8  F002         	goto	l1079
  2370   000568                     u1810:
  2371   000568  C01F  F037         	movff	malloc@new,malloc@cur
  2372   00056C  C020  F038         	movff	malloc@new+1,malloc@cur+1
  2373   000570                     l1079:
  2374   000570  5019               	movf	malloc@m^0,w,c
  2375   000572  241F               	addwf	malloc@new^0,w,c
  2376   000574  6E35               	movwf	malloc@end^0,c
  2377   000576  501A               	movf	(malloc@m+1)^0,w,c
  2378   000578  2020               	addwfc	(malloc@new+1)^0,w,c
  2379   00057A  6E36               	movwf	(malloc@end+1)^0,c
  2380   00057C                     l1077:
  2381   00057C  C037  F01D         	movff	malloc@cur,malloc@p
  2382   000580  C038  F01E         	movff	malloc@cur+1,malloc@p+1
  2383   000584  C01D  F01B         	movff	malloc@p,malloc@sz
  2384   000588  C01E  F01C         	movff	malloc@p+1,malloc@sz+1
  2385   00058C  C01B  FFD9         	movff	malloc@sz,fsr2l
  2386   000590  C01C  FFDA         	movff	malloc@sz+1,fsr2h
  2387   000594  C015  FFDE         	movff	malloc@n,postinc2
  2388   000598  C016  FFDD         	movff	malloc@n+1,postdec2
  2389   00059C  0E02               	movlw	2
  2390   00059E  261B               	addwf	malloc@sz^0,f,c
  2391   0005A0  0E00               	movlw	0
  2392   0005A2  221C               	addwfc	(malloc@sz+1)^0,f,c
  2393   0005A4  C01B  F01D         	movff	malloc@sz,malloc@p
  2394   0005A8  C01C  F01E         	movff	malloc@sz+1,malloc@p+1
  2395   0005AC  0E02               	movlw	2
  2396   0005AE  2415               	addwf	malloc@n^0,w,c
  2397   0005B0  6E17               	movwf	??_malloc^0,c
  2398   0005B2  0E00               	movlw	0
  2399   0005B4  2016               	addwfc	(malloc@n+1)^0,w,c
  2400   0005B6  6E18               	movwf	(??_malloc+1)^0,c
  2401   0005B8  5017               	movf	??_malloc^0,w,c
  2402   0005BA  2637               	addwf	malloc@cur^0,f,c
  2403   0005BC  5018               	movf	(??_malloc+1)^0,w,c
  2404   0005BE  2238               	addwfc	(malloc@cur+1)^0,f,c
  2405   0005C0                     l2444:
  2406   0005C0  C01D  F015         	movff	malloc@p,?_malloc
  2407   0005C4  C01E  F016         	movff	malloc@p+1,?_malloc+1
  2408   0005C8                     l1075:
  2409   0005C8  0012               	return		;funcret
  2410   0005CA                     __end_of_malloc:
  2411                           	callstack 0
  2412                           
  2413 ;; *************** function ___simple_search_fl *****************
  2414 ;; Defined at:
  2415 ;;		line 19 in file "C:\Program Files\Microchip\xc8\v2.50\pic\sources\c99\common\lite_free.c"
  2416 ;; Parameters:    Size  Location     Type
  2417 ;;  n               2    0[COMRAM] unsigned int 
  2418 ;; Auto vars:     Size  Location     Type
  2419 ;;  split           2   10[COMRAM] PTR struct chunk
  2420 ;;		 -> NULL(0), 
  2421 ;;  remaining_si    2    6[COMRAM] unsigned int 
  2422 ;;  next            2   14[COMRAM] PTR struct chunk
  2423 ;;		 -> NULL(0), 
  2424 ;;  best            2   18[COMRAM] PTR struct chunk
  2425 ;;		 -> NULL(0), 
  2426 ;;  c               2   16[COMRAM] PTR struct chunk
  2427 ;;		 -> NULL(0), 
  2428 ;;  last            2   12[COMRAM] PTR struct chunk
  2429 ;;		 -> NULL(0), 
  2430 ;;  best_last       2    8[COMRAM] PTR struct chunk
  2431 ;;		 -> NULL(0), 
  2432 ;; Return value:  Size  Location     Type
  2433 ;;                  2    0[COMRAM] PTR void 
  2434 ;; Registers used:
  2435 ;;		wreg, fsr1l, fsr1h, fsr2l, fsr2h, status,2, status,0
  2436 ;; Tracked objects:
  2437 ;;		On entry : 0/0
  2438 ;;		On exit  : 0/0
  2439 ;;		Unchanged: 0/0
  2440 ;; Data sizes:     COMRAM   BANK0   BANK1   BANK2   BANK3   BANK4   BANK5   BANK6   BANK7
  2441 ;;      Params:         2       0       0       0       0       0       0       0       0
  2442 ;;      Locals:        14       0       0       0       0       0       0       0       0
  2443 ;;      Temps:          4       0       0       0       0       0       0       0       0
  2444 ;;      Totals:        20       0       0       0       0       0       0       0       0
  2445 ;;Total ram usage:       20 bytes
  2446 ;; Hardware stack levels used: 1
  2447 ;; Hardware stack levels required when called: 1
  2448 ;; This function calls:
  2449 ;;		Nothing
  2450 ;; This function is called by:
  2451 ;;		_malloc
  2452 ;; This function uses a non-reentrant model
  2453 ;;
  2454                           
  2455                           	psect	text5
  2456   000012                     __ptext5:
  2457                           	callstack 0
  2458   000012                     ___simple_search_fl:
  2459                           	callstack 27
  2460   000012  0E00               	movlw	0
  2461   000014  6E13               	movwf	___simple_search_fl@best^0,c
  2462   000016  0E00               	movlw	0
  2463   000018  6E14               	movwf	(___simple_search_fl@best+1)^0,c
  2464   00001A  0E00               	movlw	0
  2465   00001C  6E09               	movwf	___simple_search_fl@best_last^0,c
  2466   00001E  0E00               	movlw	0
  2467   000020  6E0A               	movwf	(___simple_search_fl@best_last+1)^0,c
  2468   000022  0E00               	movlw	0
  2469   000024  6E0D               	movwf	___simple_search_fl@last^0,c
  2470   000026  0E00               	movlw	0
  2471   000028  6E0E               	movwf	(___simple_search_fl@last+1)^0,c
  2472   00002A  5031               	movf	___freelist^0,w,c
  2473   00002C  1032               	iorwf	(___freelist+1)^0,w,c
  2474   00002E  A4D8               	btfss	status,2,c
  2475   000030  EF1C  F000         	goto	u1511
  2476   000034  EF1E  F000         	goto	u1510
  2477   000038                     u1511:
  2478   000038  EF24  F000         	goto	l2238
  2479   00003C                     u1510:
  2480   00003C                     l2234:
  2481   00003C  0E00               	movlw	0
  2482   00003E  6E01               	movwf	?___simple_search_fl^0,c
  2483   000040  0E00               	movlw	0
  2484   000042  6E02               	movwf	(?___simple_search_fl+1)^0,c
  2485   000044  EF43  F001         	goto	l1104
  2486   000048                     l2238:
  2487   000048  C031  F011         	movff	___freelist,___simple_search_fl@c
  2488   00004C  C032  F012         	movff	___freelist+1,___simple_search_fl@c+1
  2489   000050  EFAA  F000         	goto	l2264
  2490   000054                     l2240:
  2491   000054  C011  FFD9         	movff	___simple_search_fl@c,fsr2l
  2492   000058  C012  FFDA         	movff	___simple_search_fl@c+1,fsr2h
  2493   00005C  5001               	movf	___simple_search_fl@n^0,w,c
  2494   00005E  18DE               	xorwf	postinc2,w,c
  2495   000060  E107               	bnz	u1521
  2496   000062  5002               	movf	(___simple_search_fl@n+1)^0,w,c
  2497   000064  18DE               	xorwf	postinc2,w,c
  2498   000066  A4D8               	btfss	status,2,c
  2499   000068  EF38  F000         	goto	u1521
  2500   00006C  EF3A  F000         	goto	u1520
  2501   000070                     u1521:
  2502   000070  EF67  F000         	goto	l2252
  2503   000074                     u1520:
  2504   000074  500D               	movf	___simple_search_fl@last^0,w,c
  2505   000076  100E               	iorwf	(___simple_search_fl@last+1)^0,w,c
  2506   000078  B4D8               	btfsc	status,2,c
  2507   00007A  EF41  F000         	goto	u1531
  2508   00007E  EF43  F000         	goto	u1530
  2509   000082                     u1531:
  2510   000082  EF55  F000         	goto	l2246
  2511   000086                     u1530:
  2512   000086  EE20 F002          	lfsr	2,2
  2513   00008A  5011               	movf	___simple_search_fl@c^0,w,c
  2514   00008C  26D9               	addwf	fsr2l,f,c
  2515   00008E  5012               	movf	(___simple_search_fl@c+1)^0,w,c
  2516   000090  22DA               	addwfc	fsr2h,f,c
  2517   000092  EE10 F002          	lfsr	1,2
  2518   000096  500D               	movf	___simple_search_fl@last^0,w,c
  2519   000098  26E1               	addwf	fsr1l,f,c
  2520   00009A  500E               	movf	(___simple_search_fl@last+1)^0,w,c
  2521   00009C  22E2               	addwfc	fsr1h,f,c
  2522   00009E  CFDE FFE6          	movff	postinc2,postinc1
  2523   0000A2  CFDD FFE5          	movff	postdec2,postdec1
  2524   0000A6  EF5F  F000         	goto	l2248
  2525   0000AA                     l2246:
  2526   0000AA  EE20 F002          	lfsr	2,2
  2527   0000AE  5011               	movf	___simple_search_fl@c^0,w,c
  2528   0000B0  26D9               	addwf	fsr2l,f,c
  2529   0000B2  5012               	movf	(___simple_search_fl@c+1)^0,w,c
  2530   0000B4  22DA               	addwfc	fsr2h,f,c
  2531   0000B6  CFDE F031          	movff	postinc2,___freelist
  2532   0000BA  CFDD F032          	movff	postdec2,___freelist+1
  2533   0000BE                     l2248:
  2534   0000BE  0E02               	movlw	2
  2535   0000C0  2411               	addwf	___simple_search_fl@c^0,w,c
  2536   0000C2  6E01               	movwf	?___simple_search_fl^0,c
  2537   0000C4  0E00               	movlw	0
  2538   0000C6  2012               	addwfc	(___simple_search_fl@c+1)^0,w,c
  2539   0000C8  6E02               	movwf	(?___simple_search_fl+1)^0,c
  2540   0000CA  EF43  F001         	goto	l1104
  2541   0000CE                     l2252:
  2542   0000CE  C011  FFD9         	movff	___simple_search_fl@c,fsr2l
  2543   0000D2  C012  FFDA         	movff	___simple_search_fl@c+1,fsr2h
  2544   0000D6  50DE               	movf	postinc2,w,c
  2545   0000D8  5C01               	subwf	___simple_search_fl@n^0,w,c
  2546   0000DA  50DE               	movf	postinc2,w,c
  2547   0000DC  5802               	subwfb	(___simple_search_fl@n+1)^0,w,c
  2548   0000DE  B0D8               	btfsc	status,0,c
  2549   0000E0  EF74  F000         	goto	u1541
  2550   0000E4  EF76  F000         	goto	u1540
  2551   0000E8                     u1541:
  2552   0000E8  EF9C  F000         	goto	l1112
  2553   0000EC                     u1540:
  2554   0000EC  5013               	movf	___simple_search_fl@best^0,w,c
  2555   0000EE  1014               	iorwf	(___simple_search_fl@best+1)^0,w,c
  2556   0000F0  B4D8               	btfsc	status,2,c
  2557   0000F2  EF7D  F000         	goto	u1551
  2558   0000F6  EF7F  F000         	goto	u1550
  2559   0000FA                     u1551:
  2560   0000FA  EF94  F000         	goto	l2260
  2561   0000FE                     u1550:
  2562   0000FE  C013  FFD9         	movff	___simple_search_fl@best,fsr2l
  2563   000102  C014  FFDA         	movff	___simple_search_fl@best+1,fsr2h
  2564   000106  C011  FFE1         	movff	___simple_search_fl@c,fsr1l
  2565   00010A  C012  FFE2         	movff	___simple_search_fl@c+1,fsr1h
  2566   00010E  50DE               	movf	postinc2,w,c
  2567   000110  5CE6               	subwf	postinc1,w,c
  2568   000112  50DE               	movf	postinc2,w,c
  2569   000114  58E6               	subwfb	postinc1,w,c
  2570   000116  A0D8               	btfss	status,0,c
  2571   000118  EF90  F000         	goto	u1561
  2572   00011C  EF92  F000         	goto	u1560
  2573   000120                     u1561:
  2574   000120  EF94  F000         	goto	l2260
  2575   000124                     u1560:
  2576   000124  EF9C  F000         	goto	l1112
  2577   000128                     l2260:
  2578   000128  C011  F013         	movff	___simple_search_fl@c,___simple_search_fl@best
  2579   00012C  C012  F014         	movff	___simple_search_fl@c+1,___simple_search_fl@best+1
  2580   000130  C00D  F009         	movff	___simple_search_fl@last,___simple_search_fl@best_last
  2581   000134  C00E  F00A         	movff	___simple_search_fl@last+1,___simple_search_fl@best_last+1
  2582   000138                     l1112:
  2583   000138  C011  F00D         	movff	___simple_search_fl@c,___simple_search_fl@last
  2584   00013C  C012  F00E         	movff	___simple_search_fl@c+1,___simple_search_fl@last+1
  2585   000140  EE20 F002          	lfsr	2,2
  2586   000144  5011               	movf	___simple_search_fl@c^0,w,c
  2587   000146  26D9               	addwf	fsr2l,f,c
  2588   000148  5012               	movf	(___simple_search_fl@c+1)^0,w,c
  2589   00014A  22DA               	addwfc	fsr2h,f,c
  2590   00014C  CFDE F011          	movff	postinc2,___simple_search_fl@c
  2591   000150  CFDD F012          	movff	postdec2,___simple_search_fl@c+1
  2592   000154                     l2264:
  2593   000154  5011               	movf	___simple_search_fl@c^0,w,c
  2594   000156  1012               	iorwf	(___simple_search_fl@c+1)^0,w,c
  2595   000158  A4D8               	btfss	status,2,c
  2596   00015A  EFB1  F000         	goto	u1571
  2597   00015E  EFB3  F000         	goto	u1570
  2598   000162                     u1571:
  2599   000162  EF2A  F000         	goto	l2240
  2600   000166                     u1570:
  2601   000166  5013               	movf	___simple_search_fl@best^0,w,c
  2602   000168  1014               	iorwf	(___simple_search_fl@best+1)^0,w,c
  2603   00016A  B4D8               	btfsc	status,2,c
  2604   00016C  EFBA  F000         	goto	u1581
  2605   000170  EFBC  F000         	goto	u1580
  2606   000174                     u1581:
  2607   000174  EF1E  F000         	goto	l2234
  2608   000178                     u1580:
  2609   000178  EE20 F002          	lfsr	2,2
  2610   00017C  5013               	movf	___simple_search_fl@best^0,w,c
  2611   00017E  26D9               	addwf	fsr2l,f,c
  2612   000180  5014               	movf	(___simple_search_fl@best+1)^0,w,c
  2613   000182  22DA               	addwfc	fsr2h,f,c
  2614   000184  CFDE F00F          	movff	postinc2,___simple_search_fl@next
  2615   000188  CFDD F010          	movff	postdec2,___simple_search_fl@next+1
  2616   00018C  C013  FFD9         	movff	___simple_search_fl@best,fsr2l
  2617   000190  C014  FFDA         	movff	___simple_search_fl@best+1,fsr2h
  2618   000194  CFDE F003          	movff	postinc2,??___simple_search_fl
  2619   000198  CFDD F004          	movff	postdec2,??___simple_search_fl+1
  2620   00019C  5001               	movf	___simple_search_fl@n^0,w,c
  2621   00019E  5E03               	subwf	??___simple_search_fl^0,f,c
  2622   0001A0  5002               	movf	(___simple_search_fl@n+1)^0,w,c
  2623   0001A2  5A04               	subwfb	(??___simple_search_fl+1)^0,f,c
  2624   0001A4  5004               	movf	(??___simple_search_fl+1)^0,w,c
  2625   0001A6  E109               	bnz	u1590
  2626   0001A8  0E05               	movlw	5
  2627   0001AA  5C03               	subwf	??___simple_search_fl^0,w,c
  2628   0001AC  A0D8               	btfss	status,0,c
  2629   0001AE  EFDB  F000         	goto	u1591
  2630   0001B2  EFDD  F000         	goto	u1590
  2631   0001B6                     u1591:
  2632   0001B6  EF21  F001         	goto	l1115
  2633   0001BA                     u1590:
  2634   0001BA  C013  FFD9         	movff	___simple_search_fl@best,fsr2l
  2635   0001BE  C014  FFDA         	movff	___simple_search_fl@best+1,fsr2h
  2636   0001C2  CFDE F003          	movff	postinc2,??___simple_search_fl
  2637   0001C6  CFDD F004          	movff	postdec2,??___simple_search_fl+1
  2638   0001CA  5001               	movf	___simple_search_fl@n^0,w,c
  2639   0001CC  5E03               	subwf	??___simple_search_fl^0,f,c
  2640   0001CE  5002               	movf	(___simple_search_fl@n+1)^0,w,c
  2641   0001D0  5A04               	subwfb	(??___simple_search_fl+1)^0,f,c
  2642   0001D2  0EFE               	movlw	254
  2643   0001D4  2403               	addwf	??___simple_search_fl^0,w,c
  2644   0001D6  6E07               	movwf	___simple_search_fl@remaining_size^0,c
  2645   0001D8  0EFF               	movlw	255
  2646   0001DA  2004               	addwfc	(??___simple_search_fl+1)^0,w,c
  2647   0001DC  6E08               	movwf	(___simple_search_fl@remaining_size+1)^0,c
  2648   0001DE  C013  FFD9         	movff	___simple_search_fl@best,fsr2l
  2649   0001E2  C014  FFDA         	movff	___simple_search_fl@best+1,fsr2h
  2650   0001E6  C001  FFDE         	movff	___simple_search_fl@n,postinc2
  2651   0001EA  C002  FFDD         	movff	___simple_search_fl@n+1,postdec2
  2652   0001EE  C013  FFD9         	movff	___simple_search_fl@best,fsr2l
  2653   0001F2  C014  FFDA         	movff	___simple_search_fl@best+1,fsr2h
  2654   0001F6  CFDE F003          	movff	postinc2,??___simple_search_fl
  2655   0001FA  CFDD F004          	movff	postdec2,??___simple_search_fl+1
  2656   0001FE  5003               	movf	??___simple_search_fl^0,w,c
  2657   000200  2413               	addwf	___simple_search_fl@best^0,w,c
  2658   000202  6E05               	movwf	(??___simple_search_fl+2)^0,c
  2659   000204  5004               	movf	(??___simple_search_fl+1)^0,w,c
  2660   000206  2014               	addwfc	(___simple_search_fl@best+1)^0,w,c
  2661   000208  6E06               	movwf	(??___simple_search_fl+3)^0,c
  2662   00020A  0E02               	movlw	2
  2663   00020C  2405               	addwf	(??___simple_search_fl+2)^0,w,c
  2664   00020E  6E0B               	movwf	___simple_search_fl@split^0,c
  2665   000210  0E00               	movlw	0
  2666   000212  2006               	addwfc	(??___simple_search_fl+3)^0,w,c
  2667   000214  6E0C               	movwf	(___simple_search_fl@split+1)^0,c
  2668   000216  C00B  FFD9         	movff	___simple_search_fl@split,fsr2l
  2669   00021A  C00C  FFDA         	movff	___simple_search_fl@split+1,fsr2h
  2670   00021E  C007  FFDE         	movff	___simple_search_fl@remaining_size,postinc2
  2671   000222  C008  FFDD         	movff	___simple_search_fl@remaining_size+1,postdec2
  2672   000226  EE20 F002          	lfsr	2,2
  2673   00022A  500B               	movf	___simple_search_fl@split^0,w,c
  2674   00022C  26D9               	addwf	fsr2l,f,c
  2675   00022E  500C               	movf	(___simple_search_fl@split+1)^0,w,c
  2676   000230  22DA               	addwfc	fsr2h,f,c
  2677   000232  C00F  FFDE         	movff	___simple_search_fl@next,postinc2
  2678   000236  C010  FFDD         	movff	___simple_search_fl@next+1,postdec2
  2679   00023A  C00B  F00F         	movff	___simple_search_fl@split,___simple_search_fl@next
  2680   00023E  C00C  F010         	movff	___simple_search_fl@split+1,___simple_search_fl@next+1
  2681   000242                     l1115:
  2682   000242  5013               	movf	___simple_search_fl@best^0,w,c
  2683   000244  1831               	xorwf	___freelist^0,w,c
  2684   000246  E107               	bnz	u1601
  2685   000248  5014               	movf	(___simple_search_fl@best+1)^0,w,c
  2686   00024A  1832               	xorwf	(___freelist+1)^0,w,c
  2687   00024C  A4D8               	btfss	status,2,c
  2688   00024E  EF2B  F001         	goto	u1601
  2689   000252  EF2D  F001         	goto	u1600
  2690   000256                     u1601:
  2691   000256  EF33  F001         	goto	l2280
  2692   00025A                     u1600:
  2693   00025A  C00F  F031         	movff	___simple_search_fl@next,___freelist
  2694   00025E  C010  F032         	movff	___simple_search_fl@next+1,___freelist+1
  2695   000262  EF3D  F001         	goto	l2282
  2696   000266                     l2280:
  2697   000266  EE20 F002          	lfsr	2,2
  2698   00026A  5009               	movf	___simple_search_fl@best_last^0,w,c
  2699   00026C  26D9               	addwf	fsr2l,f,c
  2700   00026E  500A               	movf	(___simple_search_fl@best_last+1)^0,w,c
  2701   000270  22DA               	addwfc	fsr2h,f,c
  2702   000272  C00F  FFDE         	movff	___simple_search_fl@next,postinc2
  2703   000276  C010  FFDD         	movff	___simple_search_fl@next+1,postdec2
  2704   00027A                     l2282:
  2705   00027A  0E02               	movlw	2
  2706   00027C  2413               	addwf	___simple_search_fl@best^0,w,c
  2707   00027E  6E01               	movwf	?___simple_search_fl^0,c
  2708   000280  0E00               	movlw	0
  2709   000282  2014               	addwfc	(___simple_search_fl@best+1)^0,w,c
  2710   000284  6E02               	movwf	(?___simple_search_fl+1)^0,c
  2711   000286                     l1104:
  2712   000286  0012               	return		;funcret
  2713   000288                     __end_of___simple_search_fl:
  2714                           	callstack 0
  2715                           
  2716 ;; *************** function ___expand_heap *****************
  2717 ;; Defined at:
  2718 ;;		line 14 in file "C:\Program Files\Microchip\xc8\v2.50\pic\sources\c99\common\expand_heap.c"
  2719 ;; Parameters:    Size  Location     Type
  2720 ;;  pn              1    0[COMRAM] PTR unsigned int 
  2721 ;;		 -> malloc@m(2), 
  2722 ;; Auto vars:     Size  Location     Type
  2723 ;;  new_brkp        2    6[COMRAM] PTR unsigned char 
  2724 ;;		 -> __heap_hi(0), NULL(0), 
  2725 ;;  n               2    4[COMRAM] unsigned int 
  2726 ;; Return value:  Size  Location     Type
  2727 ;;                  2    0[COMRAM] PTR void 
  2728 ;; Registers used:
  2729 ;;		wreg, fsr2l, fsr2h, status,2, status,0
  2730 ;; Tracked objects:
  2731 ;;		On entry : 0/0
  2732 ;;		On exit  : 0/0
  2733 ;;		Unchanged: 0/0
  2734 ;; Data sizes:     COMRAM   BANK0   BANK1   BANK2   BANK3   BANK4   BANK5   BANK6   BANK7
  2735 ;;      Params:         2       0       0       0       0       0       0       0       0
  2736 ;;      Locals:         4       0       0       0       0       0       0       0       0
  2737 ;;      Temps:          2       0       0       0       0       0       0       0       0
  2738 ;;      Totals:         8       0       0       0       0       0       0       0       0
  2739 ;;Total ram usage:        8 bytes
  2740 ;; Hardware stack levels used: 1
  2741 ;; Hardware stack levels required when called: 1
  2742 ;; This function calls:
  2743 ;;		Nothing
  2744 ;; This function is called by:
  2745 ;;		_malloc
  2746 ;; This function uses a non-reentrant model
  2747 ;;
  2748                           
  2749                           	psect	text6
  2750   000EC6                     __ptext6:
  2751                           	callstack 0
  2752   000EC6                     ___expand_heap:
  2753                           	callstack 27
  2754   000EC6  5001               	movf	___expand_heap@pn^0,w,c
  2755   000EC8  6ED9               	movwf	fsr2l,c
  2756   000ECA  6ADA               	clrf	fsr2h,c
  2757   000ECC  CFDE F005          	movff	postinc2,___expand_heap@n
  2758   000ED0  CFDD F006          	movff	postdec2,___expand_heap@n+1
  2759   000ED4  5033               	movf	_brkp^0,w,c
  2760   000ED6  1034               	iorwf	(_brkp+1)^0,w,c
  2761   000ED8  A4D8               	btfss	status,2,c
  2762   000EDA  EF71  F007         	goto	u1611
  2763   000EDE  EF73  F007         	goto	u1610
  2764   000EE2                     u1611:
  2765   000EE2  EF77  F007         	goto	l1093
  2766   000EE6                     u1610:
  2767   000EE6  0E00               	movlw	low ___heap_hi
  2768   000EE8  6E33               	movwf	_brkp^0,c
  2769   000EEA  0E08               	movlw	high ___heap_hi
  2770   000EEC  6E34               	movwf	(_brkp+1)^0,c
  2771   000EEE                     l1093:
  2772   000EEE  5006               	movf	(___expand_heap@n+1)^0,w,c
  2773   000EF0  E107               	bnz	u1621
  2774   000EF2  0E05               	movlw	5
  2775   000EF4  5C05               	subwf	___expand_heap@n^0,w,c
  2776   000EF6  B0D8               	btfsc	status,0,c
  2777   000EF8  EF80  F007         	goto	u1621
  2778   000EFC  EF82  F007         	goto	u1620
  2779   000F00                     u1621:
  2780   000F00  EF86  F007         	goto	l2298
  2781   000F04                     u1620:
  2782   000F04  0E00               	movlw	0
  2783   000F06  6E06               	movwf	(___expand_heap@n+1)^0,c
  2784   000F08  0E05               	movlw	5
  2785   000F0A  6E05               	movwf	___expand_heap@n^0,c
  2786   000F0C                     l2298:
  2787   000F0C  5005               	movf	___expand_heap@n^0,w,c
  2788   000F0E  5C33               	subwf	_brkp^0,w,c
  2789   000F10  6E07               	movwf	___expand_heap@new_brkp^0,c
  2790   000F12  5006               	movf	(___expand_heap@n+1)^0,w,c
  2791   000F14  5834               	subwfb	(_brkp+1)^0,w,c
  2792   000F16  6E08               	movwf	(___expand_heap@new_brkp+1)^0,c
  2793   000F18  0EEC               	movlw	low ___heap_lo
  2794   000F1A  6E03               	movwf	??___expand_heap^0,c
  2795   000F1C  0E04               	movlw	high ___heap_lo
  2796   000F1E  6E04               	movwf	(??___expand_heap+1)^0,c
  2797   000F20  5003               	movf	??___expand_heap^0,w,c
  2798   000F22  5C07               	subwf	___expand_heap@new_brkp^0,w,c
  2799   000F24  5004               	movf	(??___expand_heap+1)^0,w,c
  2800   000F26  5808               	subwfb	(___expand_heap@new_brkp+1)^0,w,c
  2801   000F28  A0D8               	btfss	status,0,c
  2802   000F2A  EF99  F007         	goto	u1631
  2803   000F2E  EF9B  F007         	goto	u1630
  2804   000F32                     u1631:
  2805   000F32  EFA6  F007         	goto	l2304
  2806   000F36                     u1630:
  2807   000F36  5033               	movf	_brkp^0,w,c
  2808   000F38  5C07               	subwf	___expand_heap@new_brkp^0,w,c
  2809   000F3A  5034               	movf	(_brkp+1)^0,w,c
  2810   000F3C  5808               	subwfb	(___expand_heap@new_brkp+1)^0,w,c
  2811   000F3E  A0D8               	btfss	status,0,c
  2812   000F40  EFA4  F007         	goto	u1641
  2813   000F44  EFA6  F007         	goto	u1640
  2814   000F48                     u1641:
  2815   000F48  EFB0  F007         	goto	l2310
  2816   000F4C                     u1640:
  2817   000F4C                     l2304:
  2818   000F4C  0E00               	movlw	0
  2819   000F4E  6E3A               	movwf	(_errno+1)^0,c
  2820   000F50  0E0C               	movlw	12
  2821   000F52  6E39               	movwf	_errno^0,c
  2822   000F54  0E00               	movlw	0
  2823   000F56  6E01               	movwf	?___expand_heap^0,c
  2824   000F58  0E00               	movlw	0
  2825   000F5A  6E02               	movwf	(?___expand_heap+1)^0,c
  2826   000F5C  EFB8  F007         	goto	l1098
  2827   000F60                     l2310:
  2828   000F60  C007  F033         	movff	___expand_heap@new_brkp,_brkp
  2829   000F64  C008  F034         	movff	___expand_heap@new_brkp+1,_brkp+1
  2830   000F68  C033  F001         	movff	_brkp,?___expand_heap
  2831   000F6C  C034  F002         	movff	_brkp+1,?___expand_heap+1
  2832   000F70                     l1098:
  2833   000F70  0012               	return		;funcret
  2834   000F72                     __end_of___expand_heap:
  2835                           	callstack 0
  2836                           
  2837 ;; *************** function _spawnTiles *****************
  2838 ;; Defined at:
  2839 ;;		line 113 in file "main.c"
  2840 ;; Parameters:    Size  Location     Type
  2841 ;;		None
  2842 ;; Auto vars:     Size  Location     Type
  2843 ;;  t               7   16[COMRAM] struct tile
  2844 ;; Return value:  Size  Location     Type
  2845 ;;                  1    wreg      void 
  2846 ;; Registers used:
  2847 ;;		wreg, fsr0l, fsr0h, fsr1l, fsr1h, fsr2l, fsr2h, status,2, status,0, tblptrl, tblptrh, tblptru, prodl, prodh, cstack
  2848 ;; Tracked objects:
  2849 ;;		On entry : 0/0
  2850 ;;		On exit  : 0/0
  2851 ;;		Unchanged: 0/0
  2852 ;; Data sizes:     COMRAM   BANK0   BANK1   BANK2   BANK3   BANK4   BANK5   BANK6   BANK7
  2853 ;;      Params:         0       0       0       0       0       0       0       0       0
  2854 ;;      Locals:         7       0       0       0       0       0       0       0       0
  2855 ;;      Temps:          6       0       0       0       0       0       0       0       0
  2856 ;;      Totals:        13       0       0       0       0       0       0       0       0
  2857 ;;Total ram usage:       13 bytes
  2858 ;; Hardware stack levels used: 1
  2859 ;; Hardware stack levels required when called: 2
  2860 ;; This function calls:
  2861 ;;		_addTile
  2862 ;; This function is called by:
  2863 ;;		_main
  2864 ;; This function uses a non-reentrant model
  2865 ;;
  2866                           
  2867                           	psect	text7
  2868   0005CA                     __ptext7:
  2869                           	callstack 0
  2870   0005CA                     _spawnTiles:
  2871                           	callstack 28
  2872   0005CA                     
  2873                           ;main.c: 114:     while (chartIndex < (sizeof(chart)/sizeof(chart[0])) &&
  2874   0005CA  EF59  F003         	goto	l2586
  2875   0005CE                     l2570:
  2876                           
  2877                           ;main.c: 115:            chart[chartIndex].start <= millis + 6000){;main.c: 117:        
      +                           struct tile t = chart[chartIndex];
  2878   0005CE  0E07               	movlw	7
  2879   0005D0  023B               	mulwf	_chartIndex^0,c
  2880   0005D2  CFF3 F00B          	movff	prodl,??_spawnTiles
  2881   0005D6  CFF4 F00C          	movff	prodh,??_spawnTiles+1
  2882   0005DA  023C               	mulwf	(_chartIndex+1)^0,c
  2883   0005DC  50F3               	movf	prodl,w,c
  2884   0005DE  260C               	addwf	(??_spawnTiles+1)^0,f,c
  2885   0005E0  0EB9               	movlw	low _chart
  2886   0005E2  240B               	addwf	??_spawnTiles^0,w,c
  2887   0005E4  6EF6               	movwf	tblptrl,c
  2888   0005E6  0E7F               	movlw	high _chart
  2889   0005E8  200C               	addwfc	(??_spawnTiles+1)^0,w,c
  2890   0005EA  6EF7               	movwf	tblptrh,c
  2891   0005EC                     	if	0	;There are less than 3 active tblptr bytes
  2892   0005EC                     	endif
  2893   0005EC  EE20  F011         	lfsr	2,spawnTiles@t
  2894   0005F0  0E06               	movlw	6
  2895   0005F2                     u1980:
  2896   0005F2  0009               	tblrd		*+
  2897   0005F4  CFF5 FFDE          	movff	tablat,postinc2
  2898   0005F8  06E8               	decf	wreg,f,c
  2899   0005FA  E2FB               	bc	u1980
  2900                           
  2901                           ;main.c: 119:         switch(t.col){
  2902   0005FC  EF44  F003         	goto	l2582
  2903   000600                     l2572:
  2904   000600  0ED0               	movlw	low _Col1
  2905   000602  6E01               	movwf	addTile@col^0,c
  2906   000604  0E45               	movlw	low _Col1cnt
  2907   000606  6E02               	movwf	addTile@cnt^0,c
  2908   000608  EE20  F011         	lfsr	2,spawnTiles@t
  2909   00060C  EE00  F003         	lfsr	0,addTile@t
  2910   000610  0E06               	movlw	6
  2911   000612                     u1991:
  2912   000612  CFDB FFEB          	movff	plusw2,plusw0
  2913   000616  06E8               	decf	wreg,f,c
  2914   000618  E2FC               	bc	u1991
  2915   00061A  ECB3  F00A         	call	_addTile	;wreg free
  2916   00061E  EF57  F003         	goto	l2584
  2917   000622                     l2574:
  2918   000622  0EB4               	movlw	low _Col2
  2919   000624  6E01               	movwf	addTile@col^0,c
  2920   000626  0E44               	movlw	low _Col2cnt
  2921   000628  6E02               	movwf	addTile@cnt^0,c
  2922   00062A  EE20  F011         	lfsr	2,spawnTiles@t
  2923   00062E  EE00  F003         	lfsr	0,addTile@t
  2924   000632  0E06               	movlw	6
  2925   000634                     u2001:
  2926   000634  CFDB FFEB          	movff	plusw2,plusw0
  2927   000638  06E8               	decf	wreg,f,c
  2928   00063A  E2FC               	bc	u2001
  2929   00063C  ECB3  F00A         	call	_addTile	;wreg free
  2930   000640  EF57  F003         	goto	l2584
  2931   000644                     l2576:
  2932   000644  0E98               	movlw	low _Col3
  2933   000646  6E01               	movwf	addTile@col^0,c
  2934   000648  0E43               	movlw	low _Col3cnt
  2935   00064A  6E02               	movwf	addTile@cnt^0,c
  2936   00064C  EE20  F011         	lfsr	2,spawnTiles@t
  2937   000650  EE00  F003         	lfsr	0,addTile@t
  2938   000654  0E06               	movlw	6
  2939   000656                     u2011:
  2940   000656  CFDB FFEB          	movff	plusw2,plusw0
  2941   00065A  06E8               	decf	wreg,f,c
  2942   00065C  E2FC               	bc	u2011
  2943   00065E  ECB3  F00A         	call	_addTile	;wreg free
  2944   000662  EF57  F003         	goto	l2584
  2945   000666                     l2578:
  2946   000666  0E7C               	movlw	low _Col4
  2947   000668  6E01               	movwf	addTile@col^0,c
  2948   00066A  0E42               	movlw	low _Col4cnt
  2949   00066C  6E02               	movwf	addTile@cnt^0,c
  2950   00066E  EE20  F011         	lfsr	2,spawnTiles@t
  2951   000672  EE00  F003         	lfsr	0,addTile@t
  2952   000676  0E06               	movlw	6
  2953   000678                     u2021:
  2954   000678  CFDB FFEB          	movff	plusw2,plusw0
  2955   00067C  06E8               	decf	wreg,f,c
  2956   00067E  E2FC               	bc	u2021
  2957   000680  ECB3  F00A         	call	_addTile	;wreg free
  2958   000684  EF57  F003         	goto	l2584
  2959   000688                     l2582:
  2960   000688  5017               	movf	(spawnTiles@t+6)^0,w,c
  2961                           
  2962                           ; Switch size 1, requested type "simple"
  2963                           ; Number of cases is 4, Range of values is 0 to 3
  2964                           ; switch strategies available:
  2965                           ; Name         Instructions Cycles
  2966                           ; simple_byte           13     7 (average)
  2967                           ;	Chosen strategy is simple_byte
  2968   00068A  0A00               	xorlw	0	; case 0
  2969   00068C  B4D8               	btfsc	status,2,c
  2970   00068E  EF00  F003         	goto	l2572
  2971   000692  0A01               	xorlw	1	; case 1
  2972   000694  B4D8               	btfsc	status,2,c
  2973   000696  EF11  F003         	goto	l2574
  2974   00069A  0A03               	xorlw	3	; case 2
  2975   00069C  B4D8               	btfsc	status,2,c
  2976   00069E  EF22  F003         	goto	l2576
  2977   0006A2  0A01               	xorlw	1	; case 3
  2978   0006A4  B4D8               	btfsc	status,2,c
  2979   0006A6  EF33  F003         	goto	l2578
  2980   0006AA  EF57  F003         	goto	l2584
  2981   0006AE                     l2584:
  2982                           
  2983                           ;main.c: 126:         chartIndex++;
  2984   0006AE  4A3B               	infsnz	_chartIndex^0,f,c
  2985   0006B0  2A3C               	incf	(_chartIndex+1)^0,f,c
  2986   0006B2                     l2586:
  2987                           
  2988                           ;main.c: 114:     while (chartIndex < (sizeof(chart)/sizeof(chart[0])) &&
  2989   0006B2  503C               	movf	(_chartIndex+1)^0,w,c
  2990   0006B4  E107               	bnz	u2031
  2991   0006B6  0E0A               	movlw	10
  2992   0006B8  5C3B               	subwf	_chartIndex^0,w,c
  2993   0006BA  B0D8               	btfsc	status,0,c
  2994   0006BC  EF62  F003         	goto	u2031
  2995   0006C0  EF64  F003         	goto	u2030
  2996   0006C4                     u2031:
  2997   0006C4  EF92  F003         	goto	l119
  2998   0006C8                     u2030:
  2999   0006C8  0E07               	movlw	7
  3000   0006CA  023B               	mulwf	_chartIndex^0,c
  3001   0006CC  CFF3 F00B          	movff	prodl,??_spawnTiles
  3002   0006D0  CFF4 F00C          	movff	prodh,??_spawnTiles+1
  3003   0006D4  023C               	mulwf	(_chartIndex+1)^0,c
  3004   0006D6  50F3               	movf	prodl,w,c
  3005   0006D8  260C               	addwf	(??_spawnTiles+1)^0,f,c
  3006   0006DA  0EB9               	movlw	low _chart
  3007   0006DC  240B               	addwf	??_spawnTiles^0,w,c
  3008   0006DE  6EF6               	movwf	tblptrl,c
  3009   0006E0  0E7F               	movlw	high _chart
  3010   0006E2  200C               	addwfc	(??_spawnTiles+1)^0,w,c
  3011   0006E4  6EF7               	movwf	tblptrh,c
  3012   0006E6                     	if	0	;There are less than 3 active tblptr bytes
  3013   0006E6                     	endif
  3014   0006E6  0E70               	movlw	112
  3015   0006E8  242D               	addwf	_millis^0,w,c	;volatile
  3016   0006EA  6E0D               	movwf	(??_spawnTiles+2)^0,c
  3017   0006EC  0E17               	movlw	23
  3018   0006EE  202E               	addwfc	(_millis+1)^0,w,c	;volatile
  3019   0006F0  6E0E               	movwf	(??_spawnTiles+3)^0,c
  3020   0006F2  0E00               	movlw	0
  3021   0006F4  202F               	addwfc	(_millis+2)^0,w,c	;volatile
  3022   0006F6  6E0F               	movwf	(??_spawnTiles+4)^0,c
  3023   0006F8  0E00               	movlw	0
  3024   0006FA  2030               	addwfc	(_millis+3)^0,w,c	;volatile
  3025   0006FC  6E10               	movwf	(??_spawnTiles+5)^0,c
  3026   0006FE  0009               	tblrd		*+
  3027   000700  50F5               	movf	tablat,w,c
  3028   000702  5C0D               	subwf	(??_spawnTiles+2)^0,w,c
  3029   000704  0009               	tblrd		*+
  3030   000706  50F5               	movf	tablat,w,c
  3031   000708  580E               	subwfb	(??_spawnTiles+3)^0,w,c
  3032   00070A  0009               	tblrd		*+
  3033   00070C  50F5               	movf	tablat,w,c
  3034   00070E  580F               	subwfb	(??_spawnTiles+4)^0,w,c
  3035   000710  0009               	tblrd		*+
  3036   000712  50F5               	movf	tablat,w,c
  3037   000714  5810               	subwfb	(??_spawnTiles+5)^0,w,c
  3038   000716  B0D8               	btfsc	status,0,c
  3039   000718  EF90  F003         	goto	u2041
  3040   00071C  EF92  F003         	goto	u2040
  3041   000720                     u2041:
  3042   000720  EFE7  F002         	goto	l2570
  3043   000724                     u2040:
  3044   000724                     l119:
  3045   000724  0012               	return		;funcret
  3046   000726                     __end_of_spawnTiles:
  3047                           	callstack 0
  3048                           
  3049 ;; *************** function _addTile *****************
  3050 ;; Defined at:
  3051 ;;		line 104 in file "main.c"
  3052 ;; Parameters:    Size  Location     Type
  3053 ;;  col             1    0[COMRAM] PTR struct tile
  3054 ;;		 -> Col4(28), Col3(28), Col2(28), Col1(28), 
  3055 ;;  cnt             1    1[COMRAM] PTR unsigned char 
  3056 ;;		 -> Col4cnt(1), Col3cnt(1), Col2cnt(1), Col1cnt(1), 
  3057 ;;  t               7    2[COMRAM] struct tile
  3058 ;; Auto vars:     Size  Location     Type
  3059 ;;		None
  3060 ;; Return value:  Size  Location     Type
  3061 ;;                  1    wreg      void 
  3062 ;; Registers used:
  3063 ;;		wreg, fsr1l, fsr1h, fsr2l, fsr2h, status,2, status,0, prodl, prodh
  3064 ;; Tracked objects:
  3065 ;;		On entry : 0/0
  3066 ;;		On exit  : 0/0
  3067 ;;		Unchanged: 0/0
  3068 ;; Data sizes:     COMRAM   BANK0   BANK1   BANK2   BANK3   BANK4   BANK5   BANK6   BANK7
  3069 ;;      Params:         9       0       0       0       0       0       0       0       0
  3070 ;;      Locals:         0       0       0       0       0       0       0       0       0
  3071 ;;      Temps:          1       0       0       0       0       0       0       0       0
  3072 ;;      Totals:        10       0       0       0       0       0       0       0       0
  3073 ;;Total ram usage:       10 bytes
  3074 ;; Hardware stack levels used: 1
  3075 ;; Hardware stack levels required when called: 1
  3076 ;; This function calls:
  3077 ;;		Nothing
  3078 ;; This function is called by:
  3079 ;;		_spawnTiles
  3080 ;; This function uses a non-reentrant model
  3081 ;;
  3082                           
  3083                           	psect	text8
  3084   001566                     __ptext8:
  3085                           	callstack 0
  3086   001566                     _addTile:
  3087                           	callstack 28
  3088   001566                     
  3089                           ;main.c: 105:     if (*cnt >= 4) return;
  3090   001566  5002               	movf	addTile@cnt^0,w,c
  3091   001568  6ED9               	movwf	fsr2l,c
  3092   00156A  6ADA               	clrf	fsr2h,c
  3093   00156C  0E03               	movlw	3
  3094   00156E  64DF               	cpfsgt	indf2,c
  3095   001570  EFBC  F00A         	goto	u1681
  3096   001574  EFBE  F00A         	goto	u1680
  3097   001578                     u1681:
  3098   001578  EFC0  F00A         	goto	l2334
  3099   00157C                     u1680:
  3100   00157C  EFD4  F00A         	goto	l105
  3101   001580                     l2334:
  3102                           
  3103                           ;main.c: 107:     col[*cnt] = t;
  3104   001580  EE20  F003         	lfsr	2,addTile@t
  3105   001584  5002               	movf	addTile@cnt^0,w,c
  3106   001586  6EE1               	movwf	fsr1l,c
  3107   001588  6AE2               	clrf	fsr1h,c
  3108   00158A  50E7               	movf	indf1,w,c
  3109   00158C  0D07               	mullw	7
  3110   00158E  5001               	movf	addTile@col^0,w,c
  3111   001590  24F3               	addwf	243,w,c
  3112   001592  6EE1               	movwf	fsr1l,c
  3113   001594  6AE2               	clrf	fsr1h,c
  3114   001596  0E06               	movlw	6
  3115   001598                     u1691:
  3116   001598  CFDB FFE3          	movff	plusw2,plusw1
  3117   00159C  06E8               	decf	wreg,f,c
  3118   00159E  E2FC               	bc	u1691
  3119   0015A0                     
  3120                           ;main.c: 108:     (*cnt)++;
  3121   0015A0  5002               	movf	addTile@cnt^0,w,c
  3122   0015A2  6ED9               	movwf	fsr2l,c
  3123   0015A4  6ADA               	clrf	fsr2h,c
  3124   0015A6  2ADF               	incf	indf2,f,c
  3125   0015A8                     l105:
  3126   0015A8  0012               	return		;funcret
  3127   0015AA                     __end_of_addTile:
  3128                           	callstack 0
  3129                           
  3130 ;; *************** function _setTimer2 *****************
  3131 ;; Defined at:
  3132 ;;		line 473 in file "main.c"
  3133 ;; Parameters:    Size  Location     Type
  3134 ;;		None
  3135 ;; Auto vars:     Size  Location     Type
  3136 ;;		None
  3137 ;; Return value:  Size  Location     Type
  3138 ;;                  1    wreg      void 
  3139 ;; Registers used:
  3140 ;;		wreg, status,2
  3141 ;; Tracked objects:
  3142 ;;		On entry : 0/0
  3143 ;;		On exit  : 0/0
  3144 ;;		Unchanged: 0/0
  3145 ;; Data sizes:     COMRAM   BANK0   BANK1   BANK2   BANK3   BANK4   BANK5   BANK6   BANK7
  3146 ;;      Params:         0       0       0       0       0       0       0       0       0
  3147 ;;      Locals:         0       0       0       0       0       0       0       0       0
  3148 ;;      Temps:          0       0       0       0       0       0       0       0       0
  3149 ;;      Totals:         0       0       0       0       0       0       0       0       0
  3150 ;;Total ram usage:        0 bytes
  3151 ;; Hardware stack levels used: 1
  3152 ;; Hardware stack levels required when called: 1
  3153 ;; This function calls:
  3154 ;;		Nothing
  3155 ;; This function is called by:
  3156 ;;		_main
  3157 ;; This function uses a non-reentrant model
  3158 ;;
  3159                           
  3160                           	psect	text9
  3161   0016DC                     __ptext9:
  3162                           	callstack 0
  3163   0016DC                     _setTimer2:
  3164                           	callstack 29
  3165   0016DC                     
  3166                           ;main.c: 475:     T2CON = 0x1F;
  3167   0016DC  0E1F               	movlw	31
  3168   0016DE  6ECA               	movwf	202,c	;volatile
  3169                           
  3170                           ;main.c: 476:     PR2 = 187;
  3171   0016E0  0EBB               	movlw	187
  3172   0016E2  6ECB               	movwf	203,c	;volatile
  3173   0016E4                     
  3174                           ;main.c: 477:     PIR1bits.TMR2IF = 0;
  3175   0016E4  929E               	bcf	158,1,c	;volatile
  3176   0016E6                     
  3177                           ;main.c: 478:     PIE1bits.TMR2IE = 1;
  3178   0016E6  829D               	bsf	157,1,c	;volatile
  3179   0016E8  0012               	return		;funcret
  3180   0016EA                     __end_of_setTimer2:
  3181                           	callstack 0
  3182                           
  3183 ;; *************** function _setTimer0 *****************
  3184 ;; Defined at:
  3185 ;;		line 463 in file "main.c"
  3186 ;; Parameters:    Size  Location     Type
  3187 ;;		None
  3188 ;; Auto vars:     Size  Location     Type
  3189 ;;		None
  3190 ;; Return value:  Size  Location     Type
  3191 ;;                  1    wreg      void 
  3192 ;; Registers used:
  3193 ;;		wreg, status,2
  3194 ;; Tracked objects:
  3195 ;;		On entry : 0/0
  3196 ;;		On exit  : 0/0
  3197 ;;		Unchanged: 0/0
  3198 ;; Data sizes:     COMRAM   BANK0   BANK1   BANK2   BANK3   BANK4   BANK5   BANK6   BANK7
  3199 ;;      Params:         0       0       0       0       0       0       0       0       0
  3200 ;;      Locals:         0       0       0       0       0       0       0       0       0
  3201 ;;      Temps:          0       0       0       0       0       0       0       0       0
  3202 ;;      Totals:         0       0       0       0       0       0       0       0       0
  3203 ;;Total ram usage:        0 bytes
  3204 ;; Hardware stack levels used: 1
  3205 ;; Hardware stack levels required when called: 1
  3206 ;; This function calls:
  3207 ;;		Nothing
  3208 ;; This function is called by:
  3209 ;;		_main
  3210 ;; This function uses a non-reentrant model
  3211 ;;
  3212                           
  3213                           	psect	text10
  3214   0016CA                     __ptext10:
  3215                           	callstack 0
  3216   0016CA                     _setTimer0:
  3217                           	callstack 29
  3218   0016CA                     
  3219                           ;main.c: 465:     T0CON = 0xC3;
  3220   0016CA  0EC3               	movlw	195
  3221   0016CC  6ED5               	movwf	213,c	;volatile
  3222                           
  3223                           ;main.c: 466:     TMR0 = 0;
  3224   0016CE  0E00               	movlw	0
  3225   0016D0  6ED7               	movwf	215,c	;volatile
  3226   0016D2  0E00               	movlw	0
  3227   0016D4  6ED6               	movwf	214,c	;volatile
  3228   0016D6                     
  3229                           ;main.c: 467:     INTCONbits.TMR0IF = 0;
  3230   0016D6  94F2               	bcf	242,2,c	;volatile
  3231   0016D8                     
  3232                           ;main.c: 468:     INTCONbits.TMR0IE = 1;
  3233   0016D8  8AF2               	bsf	242,5,c	;volatile
  3234   0016DA  0012               	return		;funcret
  3235   0016DC                     __end_of_setTimer0:
  3236                           	callstack 0
  3237                           
  3238 ;; *************** function _setPinout *****************
  3239 ;; Defined at:
  3240 ;;		line 441 in file "main.c"
  3241 ;; Parameters:    Size  Location     Type
  3242 ;;		None
  3243 ;; Auto vars:     Size  Location     Type
  3244 ;;		None
  3245 ;; Return value:  Size  Location     Type
  3246 ;;                  1    wreg      void 
  3247 ;; Registers used:
  3248 ;;		wreg, status,2
  3249 ;; Tracked objects:
  3250 ;;		On entry : 0/0
  3251 ;;		On exit  : 0/0
  3252 ;;		Unchanged: 0/0
  3253 ;; Data sizes:     COMRAM   BANK0   BANK1   BANK2   BANK3   BANK4   BANK5   BANK6   BANK7
  3254 ;;      Params:         0       0       0       0       0       0       0       0       0
  3255 ;;      Locals:         0       0       0       0       0       0       0       0       0
  3256 ;;      Temps:          0       0       0       0       0       0       0       0       0
  3257 ;;      Totals:         0       0       0       0       0       0       0       0       0
  3258 ;;Total ram usage:        0 bytes
  3259 ;; Hardware stack levels used: 1
  3260 ;; Hardware stack levels required when called: 1
  3261 ;; This function calls:
  3262 ;;		Nothing
  3263 ;; This function is called by:
  3264 ;;		_main
  3265 ;; This function uses a non-reentrant model
  3266 ;;
  3267                           
  3268                           	psect	text11
  3269   0016EA                     __ptext11:
  3270                           	callstack 0
  3271   0016EA                     _setPinout:
  3272                           	callstack 29
  3273   0016EA                     
  3274                           ;main.c: 443:     TRISA = 0;
  3275   0016EA  6A92               	clrf	146,c	;volatile
  3276   0016EC                     
  3277                           ;main.c: 444:     TRISB = 0x3D;
  3278   0016EC  0E3D               	movlw	61
  3279   0016EE  6E93               	movwf	147,c	;volatile
  3280   0016F0                     
  3281                           ;main.c: 445:     TRISC = 0;
  3282   0016F0  6A94               	clrf	148,c	;volatile
  3283   0016F2                     
  3284                           ;main.c: 446:     TRISD = 0;
  3285   0016F2  6A95               	clrf	149,c	;volatile
  3286   0016F4                     
  3287                           ;main.c: 447:     TRISE = 0;
  3288   0016F4  6A96               	clrf	150,c	;volatile
  3289   0016F6  0012               	return		;funcret
  3290   0016F8                     __end_of_setPinout:
  3291                           	callstack 0
  3292                           
  3293 ;; *************** function _setInterrupt *****************
  3294 ;; Defined at:
  3295 ;;		line 433 in file "main.c"
  3296 ;; Parameters:    Size  Location     Type
  3297 ;;		None
  3298 ;; Auto vars:     Size  Location     Type
  3299 ;;		None
  3300 ;; Return value:  Size  Location     Type
  3301 ;;                  1    wreg      void 
  3302 ;; Registers used:
  3303 ;;		None
  3304 ;; Tracked objects:
  3305 ;;		On entry : 0/0
  3306 ;;		On exit  : 0/0
  3307 ;;		Unchanged: 0/0
  3308 ;; Data sizes:     COMRAM   BANK0   BANK1   BANK2   BANK3   BANK4   BANK5   BANK6   BANK7
  3309 ;;      Params:         0       0       0       0       0       0       0       0       0
  3310 ;;      Locals:         0       0       0       0       0       0       0       0       0
  3311 ;;      Temps:          0       0       0       0       0       0       0       0       0
  3312 ;;      Totals:         0       0       0       0       0       0       0       0       0
  3313 ;;Total ram usage:        0 bytes
  3314 ;; Hardware stack levels used: 1
  3315 ;; Hardware stack levels required when called: 1
  3316 ;; This function calls:
  3317 ;;		Nothing
  3318 ;; This function is called by:
  3319 ;;		_main
  3320 ;; This function uses a non-reentrant model
  3321 ;;
  3322                           
  3323                           	psect	text12
  3324   001712                     __ptext12:
  3325                           	callstack 0
  3326   001712                     _setInterrupt:
  3327                           	callstack 29
  3328   001712                     
  3329                           ;main.c: 435:     INTCONbits.PEIE = 1;
  3330   001712  8CF2               	bsf	242,6,c	;volatile
  3331                           
  3332                           ;main.c: 436:     INTCONbits.GIE = 1;
  3333   001714  8EF2               	bsf	242,7,c	;volatile
  3334   001716  0012               	return		;funcret
  3335   001718                     __end_of_setInterrupt:
  3336                           	callstack 0
  3337                           
  3338 ;; *************** function _initDisplay *****************
  3339 ;; Defined at:
  3340 ;;		line 24 in file "moduleDogm128.c"
  3341 ;; Parameters:    Size  Location     Type
  3342 ;;		None
  3343 ;; Auto vars:     Size  Location     Type
  3344 ;;		None
  3345 ;; Return value:  Size  Location     Type
  3346 ;;                  1    wreg      void 
  3347 ;; Registers used:
  3348 ;;		wreg, status,2, status,0, cstack
  3349 ;; Tracked objects:
  3350 ;;		On entry : 0/0
  3351 ;;		On exit  : 0/0
  3352 ;;		Unchanged: 0/0
  3353 ;; Data sizes:     COMRAM   BANK0   BANK1   BANK2   BANK3   BANK4   BANK5   BANK6   BANK7
  3354 ;;      Params:         0       0       0       0       0       0       0       0       0
  3355 ;;      Locals:         0       0       0       0       0       0       0       0       0
  3356 ;;      Temps:          0       0       0       0       0       0       0       0       0
  3357 ;;      Totals:         0       0       0       0       0       0       0       0       0
  3358 ;;Total ram usage:        0 bytes
  3359 ;; Hardware stack levels used: 1
  3360 ;; Hardware stack levels required when called: 6
  3361 ;; This function calls:
  3362 ;;		_clearAllDisplay
  3363 ;;		_initSpi
  3364 ;;		_sendCommandToDisplay
  3365 ;; This function is called by:
  3366 ;;		_main
  3367 ;; This function uses a non-reentrant model
  3368 ;;
  3369                           
  3370                           	psect	text13
  3371   0013BC                     __ptext13:
  3372                           	callstack 0
  3373   0013BC                     _initDisplay:
  3374                           	callstack 24
  3375   0013BC                     
  3376                           ;moduleDogm128.c: 26:     initSpi();
  3377   0013BC  EC7C  F00B         	call	_initSpi	;wreg free
  3378   0013C0                     
  3379                           ;moduleDogm128.c: 27:     (LATC |= (1<<2));
  3380   0013C0  848B               	bsf	139,2,c	;volatile
  3381   0013C2                     
  3382                           ;moduleDogm128.c: 28:     (LATC |= (1<<1));
  3383   0013C2  828B               	bsf	139,1,c	;volatile
  3384   0013C4                     
  3385                           ;moduleDogm128.c: 31:     sendCommandToDisplay(0x40);
  3386   0013C4  0E40               	movlw	64
  3387   0013C6  EC51  F00B         	call	_sendCommandToDisplay
  3388   0013CA                     
  3389                           ;moduleDogm128.c: 32:     sendCommandToDisplay(0xA1);
  3390   0013CA  0EA1               	movlw	161
  3391   0013CC  EC51  F00B         	call	_sendCommandToDisplay
  3392   0013D0                     
  3393                           ;moduleDogm128.c: 33:     sendCommandToDisplay(0xC0);
  3394   0013D0  0EC0               	movlw	192
  3395   0013D2  EC51  F00B         	call	_sendCommandToDisplay
  3396   0013D6                     
  3397                           ;moduleDogm128.c: 34:     sendCommandToDisplay(0xA6);
  3398   0013D6  0EA6               	movlw	166
  3399   0013D8  EC51  F00B         	call	_sendCommandToDisplay
  3400   0013DC                     
  3401                           ;moduleDogm128.c: 35:     sendCommandToDisplay(0xA2);
  3402   0013DC  0EA2               	movlw	162
  3403   0013DE  EC51  F00B         	call	_sendCommandToDisplay
  3404   0013E2                     
  3405                           ;moduleDogm128.c: 36:     sendCommandToDisplay(0x2F);
  3406   0013E2  0E2F               	movlw	47
  3407   0013E4  EC51  F00B         	call	_sendCommandToDisplay
  3408   0013E8                     
  3409                           ;moduleDogm128.c: 37:     sendCommandToDisplay(0xF8);
  3410   0013E8  0EF8               	movlw	248
  3411   0013EA  EC51  F00B         	call	_sendCommandToDisplay
  3412   0013EE                     
  3413                           ;moduleDogm128.c: 38:     sendCommandToDisplay(0x00);
  3414   0013EE  0E00               	movlw	0
  3415   0013F0  EC51  F00B         	call	_sendCommandToDisplay
  3416   0013F4                     
  3417                           ;moduleDogm128.c: 39:     sendCommandToDisplay(0x27);
  3418   0013F4  0E27               	movlw	39
  3419   0013F6  EC51  F00B         	call	_sendCommandToDisplay
  3420   0013FA                     
  3421                           ;moduleDogm128.c: 40:     sendCommandToDisplay(0x81);
  3422   0013FA  0E81               	movlw	129
  3423   0013FC  EC51  F00B         	call	_sendCommandToDisplay
  3424   001400                     
  3425                           ;moduleDogm128.c: 41:     sendCommandToDisplay(0x16);
  3426   001400  0E16               	movlw	22
  3427   001402  EC51  F00B         	call	_sendCommandToDisplay
  3428   001406                     
  3429                           ;moduleDogm128.c: 42:     sendCommandToDisplay(0xAC);
  3430   001406  0EAC               	movlw	172
  3431   001408  EC51  F00B         	call	_sendCommandToDisplay
  3432   00140C                     
  3433                           ;moduleDogm128.c: 43:     sendCommandToDisplay(0x00);
  3434   00140C  0E00               	movlw	0
  3435   00140E  EC51  F00B         	call	_sendCommandToDisplay
  3436   001412                     
  3437                           ;moduleDogm128.c: 44:     sendCommandToDisplay(0xAF);
  3438   001412  0EAF               	movlw	175
  3439   001414  EC51  F00B         	call	_sendCommandToDisplay
  3440   001418                     
  3441                           ;moduleDogm128.c: 46:     clearAllDisplay();
  3442   001418  EC36  F00B         	call	_clearAllDisplay	;wreg free
  3443   00141C  0012               	return		;funcret
  3444   00141E                     __end_of_initDisplay:
  3445                           	callstack 0
  3446                           
  3447 ;; *************** function _initSpi *****************
  3448 ;; Defined at:
  3449 ;;		line 13 in file "spi.c"
  3450 ;; Parameters:    Size  Location     Type
  3451 ;;		None
  3452 ;; Auto vars:     Size  Location     Type
  3453 ;;		None
  3454 ;; Return value:  Size  Location     Type
  3455 ;;                  1    wreg      void 
  3456 ;; Registers used:
  3457 ;;		wreg, status,2
  3458 ;; Tracked objects:
  3459 ;;		On entry : 0/0
  3460 ;;		On exit  : 0/0
  3461 ;;		Unchanged: 0/0
  3462 ;; Data sizes:     COMRAM   BANK0   BANK1   BANK2   BANK3   BANK4   BANK5   BANK6   BANK7
  3463 ;;      Params:         0       0       0       0       0       0       0       0       0
  3464 ;;      Locals:         0       0       0       0       0       0       0       0       0
  3465 ;;      Temps:          0       0       0       0       0       0       0       0       0
  3466 ;;      Totals:         0       0       0       0       0       0       0       0       0
  3467 ;;Total ram usage:        0 bytes
  3468 ;; Hardware stack levels used: 1
  3469 ;; Hardware stack levels required when called: 1
  3470 ;; This function calls:
  3471 ;;		Nothing
  3472 ;; This function is called by:
  3473 ;;		_initDisplay
  3474 ;; This function uses a non-reentrant model
  3475 ;;
  3476                           
  3477                           	psect	text14
  3478   0016F8                     __ptext14:
  3479                           	callstack 0
  3480   0016F8                     _initSpi:
  3481                           	callstack 28
  3482   0016F8                     
  3483                           ;spi.c: 15:     SSPSTAT = 0x00;
  3484   0016F8  6AC7               	clrf	199,c	;volatile
  3485   0016FA                     
  3486                           ;spi.c: 16:     SSPCON1 = 0x10;
  3487   0016FA  0E10               	movlw	16
  3488   0016FC  6EC6               	movwf	198,c	;volatile
  3489   0016FE                     
  3490                           ;spi.c: 17:     SSPCON1bits.SSPEN = 1;
  3491   0016FE  8AC6               	bsf	198,5,c	;volatile
  3492   001700                     
  3493                           ;spi.c: 18:     PIR1bits.SSPIF = 0;
  3494   001700  969E               	bcf	158,3,c	;volatile
  3495   001702                     
  3496                           ;spi.c: 19:     PIE1bits.SSPIE = 0;
  3497   001702  969D               	bcf	157,3,c	;volatile
  3498   001704  0012               	return		;funcret
  3499   001706                     __end_of_initSpi:
  3500                           	callstack 0
  3501                           
  3502 ;; *************** function _clearAllDisplay *****************
  3503 ;; Defined at:
  3504 ;;		line 51 in file "moduleDogm128.c"
  3505 ;; Parameters:    Size  Location     Type
  3506 ;;		None
  3507 ;; Auto vars:     Size  Location     Type
  3508 ;;  pg              1    7[COMRAM] unsigned char 
  3509 ;; Return value:  Size  Location     Type
  3510 ;;                  1    wreg      void 
  3511 ;; Registers used:
  3512 ;;		wreg, status,2, status,0, cstack
  3513 ;; Tracked objects:
  3514 ;;		On entry : 0/0
  3515 ;;		On exit  : 0/0
  3516 ;;		Unchanged: 0/0
  3517 ;; Data sizes:     COMRAM   BANK0   BANK1   BANK2   BANK3   BANK4   BANK5   BANK6   BANK7
  3518 ;;      Params:         0       0       0       0       0       0       0       0       0
  3519 ;;      Locals:         1       0       0       0       0       0       0       0       0
  3520 ;;      Temps:          0       0       0       0       0       0       0       0       0
  3521 ;;      Totals:         1       0       0       0       0       0       0       0       0
  3522 ;;Total ram usage:        1 bytes
  3523 ;; Hardware stack levels used: 1
  3524 ;; Hardware stack levels required when called: 5
  3525 ;; This function calls:
  3526 ;;		_clearPageDisplay
  3527 ;; This function is called by:
  3528 ;;		_initDisplay
  3529 ;; This function uses a non-reentrant model
  3530 ;;
  3531                           
  3532                           	psect	text15
  3533   00166C                     __ptext15:
  3534                           	callstack 0
  3535   00166C                     _clearAllDisplay:
  3536                           	callstack 24
  3537   00166C                     
  3538                           ;moduleDogm128.c: 53:     unsigned char pg;;moduleDogm128.c: 54:     for(pg=0; pg<8; pg+
      +                          +)
  3539   00166C  6A08               	clrf	clearAllDisplay@pg^0,c
  3540   00166E                     l2562:
  3541                           
  3542                           ;moduleDogm128.c: 55:     {;moduleDogm128.c: 56:         clearPageDisplay(pg);
  3543   00166E  5008               	movf	clearAllDisplay@pg^0,w,c
  3544   001670  ECD5  F00A         	call	_clearPageDisplay
  3545   001674                     
  3546                           ;moduleDogm128.c: 57:     }
  3547   001674  2A08               	incf	clearAllDisplay@pg^0,f,c
  3548   001676  0E07               	movlw	7
  3549   001678  6408               	cpfsgt	clearAllDisplay@pg^0,c
  3550   00167A  EF41  F00B         	goto	u1971
  3551   00167E  EF43  F00B         	goto	u1970
  3552   001682                     u1971:
  3553   001682  EF37  F00B         	goto	l2562
  3554   001686                     u1970:
  3555   001686  0012               	return		;funcret
  3556   001688                     __end_of_clearAllDisplay:
  3557                           	callstack 0
  3558                           
  3559 ;; *************** function _clearPageDisplay *****************
  3560 ;; Defined at:
  3561 ;;		line 62 in file "moduleDogm128.c"
  3562 ;; Parameters:    Size  Location     Type
  3563 ;;  page            1    wreg     unsigned char 
  3564 ;; Auto vars:     Size  Location     Type
  3565 ;;  page            1    4[COMRAM] unsigned char 
  3566 ;;  cl              2    5[COMRAM] int 
  3567 ;; Return value:  Size  Location     Type
  3568 ;;                  1    wreg      void 
  3569 ;; Registers used:
  3570 ;;		wreg, status,2, status,0, cstack
  3571 ;; Tracked objects:
  3572 ;;		On entry : 0/0
  3573 ;;		On exit  : 0/0
  3574 ;;		Unchanged: 0/0
  3575 ;; Data sizes:     COMRAM   BANK0   BANK1   BANK2   BANK3   BANK4   BANK5   BANK6   BANK7
  3576 ;;      Params:         0       0       0       0       0       0       0       0       0
  3577 ;;      Locals:         3       0       0       0       0       0       0       0       0
  3578 ;;      Temps:          0       0       0       0       0       0       0       0       0
  3579 ;;      Totals:         3       0       0       0       0       0       0       0       0
  3580 ;;Total ram usage:        3 bytes
  3581 ;; Hardware stack levels used: 1
  3582 ;; Hardware stack levels required when called: 4
  3583 ;; This function calls:
  3584 ;;		_sendDataToDisplay
  3585 ;;		_setColumnAddress
  3586 ;;		_setPageAddress
  3587 ;; This function is called by:
  3588 ;;		_clearAllDisplay
  3589 ;; This function uses a non-reentrant model
  3590 ;;
  3591                           
  3592                           	psect	text16
  3593   0015AA                     __ptext16:
  3594                           	callstack 0
  3595   0015AA                     _clearPageDisplay:
  3596                           	callstack 24
  3597                           
  3598                           ;incstack = 0
  3599                           ;clearPageDisplay@page stored from wreg
  3600   0015AA  6E05               	movwf	clearPageDisplay@page^0,c
  3601   0015AC                     
  3602                           ;moduleDogm128.c: 62: void clearPageDisplay(unsigned char page);moduleDogm128.c: 63: {;m
      +                          oduleDogm128.c: 64:     int cl;;moduleDogm128.c: 65:     setColumnAddress(0);
  3603   0015AC  0E00               	movlw	0
  3604   0015AE  EC0D  F00B         	call	_setColumnAddress
  3605                           
  3606                           ;moduleDogm128.c: 66:     setPageAddress(page);
  3607   0015B2  5005               	movf	clearPageDisplay@page^0,w,c
  3608   0015B4  EC26  F00B         	call	_setPageAddress
  3609   0015B8                     
  3610                           ;moduleDogm128.c: 67:     for(cl=0; cl<128;cl++)
  3611   0015B8  0E00               	movlw	0
  3612   0015BA  6E07               	movwf	(clearPageDisplay@cl+1)^0,c
  3613   0015BC  0E00               	movlw	0
  3614   0015BE  6E06               	movwf	clearPageDisplay@cl^0,c
  3615   0015C0                     l2122:
  3616                           
  3617                           ;moduleDogm128.c: 68:     {;moduleDogm128.c: 69:         sendDataToDisplay(0x00);
  3618   0015C0  0E00               	movlw	0
  3619   0015C2  EC5B  F00B         	call	_sendDataToDisplay
  3620   0015C6                     
  3621                           ;moduleDogm128.c: 70:     }
  3622   0015C6  4A06               	infsnz	clearPageDisplay@cl^0,f,c
  3623   0015C8  2A07               	incf	(clearPageDisplay@cl+1)^0,f,c
  3624   0015CA  BE07               	btfsc	(clearPageDisplay@cl+1)^0,7,c
  3625   0015CC  EFF1  F00A         	goto	u1351
  3626   0015D0  5007               	movf	(clearPageDisplay@cl+1)^0,w,c
  3627   0015D2  E109               	bnz	u1350
  3628   0015D4  0E80               	movlw	128
  3629   0015D6  5C06               	subwf	clearPageDisplay@cl^0,w,c
  3630   0015D8  A0D8               	btfss	status,0,c
  3631   0015DA  EFF1  F00A         	goto	u1351
  3632   0015DE  EFF3  F00A         	goto	u1350
  3633   0015E2                     u1351:
  3634   0015E2  EFE0  F00A         	goto	l2122
  3635   0015E6                     u1350:
  3636   0015E6  0012               	return		;funcret
  3637   0015E8                     __end_of_clearPageDisplay:
  3638                           	callstack 0
  3639                           
  3640 ;; *************** function _handleSwitches *****************
  3641 ;; Defined at:
  3642 ;;		line 194 in file "main.c"
  3643 ;; Parameters:    Size  Location     Type
  3644 ;;		None
  3645 ;; Auto vars:     Size  Location     Type
  3646 ;;		None
  3647 ;; Return value:  Size  Location     Type
  3648 ;;                  1    wreg      void 
  3649 ;; Registers used:
  3650 ;;		wreg, fsr2l, fsr2h, status,2, status,0, prodl, prodh, cstack
  3651 ;; Tracked objects:
  3652 ;;		On entry : 0/0
  3653 ;;		On exit  : 0/0
  3654 ;;		Unchanged: 0/0
  3655 ;; Data sizes:     COMRAM   BANK0   BANK1   BANK2   BANK3   BANK4   BANK5   BANK6   BANK7
  3656 ;;      Params:         0       0       0       0       0       0       0       0       0
  3657 ;;      Locals:         0       0       0       0       0       0       0       0       0
  3658 ;;      Temps:          0       0       0       0       0       0       0       0       0
  3659 ;;      Totals:         0       0       0       0       0       0       0       0       0
  3660 ;;Total ram usage:        0 bytes
  3661 ;; Hardware stack levels used: 1
  3662 ;; Hardware stack levels required when called: 6
  3663 ;; This function calls:
  3664 ;;		_checkHit
  3665 ;;		_resetGame
  3666 ;; This function is called by:
  3667 ;;		_main
  3668 ;; This function uses a non-reentrant model
  3669 ;;
  3670                           
  3671                           	psect	text17
  3672   0010C2                     __ptext17:
  3673                           	callstack 0
  3674   0010C2                     _handleSwitches:
  3675                           	callstack 24
  3676   0010C2                     
  3677                           ;main.c: 201:     if (!PORTBbits.RB5){
  3678   0010C2  BA81               	btfsc	129,5,c	;volatile
  3679   0010C4  EF66  F008         	goto	u2051
  3680   0010C8  EF68  F008         	goto	u2050
  3681   0010CC                     u2051:
  3682   0010CC  EF71  F008         	goto	l2598
  3683   0010D0                     u2050:
  3684   0010D0                     
  3685                           ;main.c: 202:         switches |= (1 << 0);
  3686   0010D0  8041               	bsf	_switches^0,0,c
  3687   0010D2                     
  3688                           ;main.c: 203:         checkHit(Col1, Col1cnt);
  3689   0010D2  0ED0               	movlw	low _Col1
  3690   0010D4  6E01               	movwf	checkHit@col^0,c
  3691   0010D6  C045  F002         	movff	_Col1cnt,checkHit@cnt
  3692   0010DA  ECB9  F007         	call	_checkHit	;wreg free
  3693                           
  3694                           ;main.c: 204:     } else {
  3695   0010DE  EF72  F008         	goto	l2600
  3696   0010E2                     l2598:
  3697                           
  3698                           ;main.c: 205:         switches &= ~(1 << 0);
  3699   0010E2  9041               	bcf	_switches^0,0,c
  3700   0010E4                     l2600:
  3701                           
  3702                           ;main.c: 207:     if (!PORTBbits.RB4){
  3703   0010E4  B881               	btfsc	129,4,c	;volatile
  3704   0010E6  EF77  F008         	goto	u2061
  3705   0010EA  EF79  F008         	goto	u2060
  3706   0010EE                     u2061:
  3707   0010EE  EF82  F008         	goto	l2606
  3708   0010F2                     u2060:
  3709   0010F2                     
  3710                           ;main.c: 208:         switches |= (1 << 1);
  3711   0010F2  8241               	bsf	_switches^0,1,c
  3712   0010F4                     
  3713                           ;main.c: 209:         checkHit(Col2, Col1cnt);
  3714   0010F4  0EB4               	movlw	low _Col2
  3715   0010F6  6E01               	movwf	checkHit@col^0,c
  3716   0010F8  C045  F002         	movff	_Col1cnt,checkHit@cnt
  3717   0010FC  ECB9  F007         	call	_checkHit	;wreg free
  3718                           
  3719                           ;main.c: 210:     } else {
  3720   001100  EF83  F008         	goto	l2608
  3721   001104                     l2606:
  3722                           
  3723                           ;main.c: 211:         switches &= ~(1 << 1);
  3724   001104  9241               	bcf	_switches^0,1,c
  3725   001106                     l2608:
  3726                           
  3727                           ;main.c: 213:     if (!PORTBbits.RB3){
  3728   001106  B681               	btfsc	129,3,c	;volatile
  3729   001108  EF88  F008         	goto	u2071
  3730   00110C  EF8A  F008         	goto	u2070
  3731   001110                     u2071:
  3732   001110  EF93  F008         	goto	l2614
  3733   001114                     u2070:
  3734   001114                     
  3735                           ;main.c: 214:         switches |= (1 << 2);
  3736   001114  8441               	bsf	_switches^0,2,c
  3737   001116                     
  3738                           ;main.c: 215:         checkHit(Col3, Col1cnt);
  3739   001116  0E98               	movlw	low _Col3
  3740   001118  6E01               	movwf	checkHit@col^0,c
  3741   00111A  C045  F002         	movff	_Col1cnt,checkHit@cnt
  3742   00111E  ECB9  F007         	call	_checkHit	;wreg free
  3743                           
  3744                           ;main.c: 216:     } else {
  3745   001122  EF94  F008         	goto	l2616
  3746   001126                     l2614:
  3747                           
  3748                           ;main.c: 217:         switches &= ~(1 << 2);
  3749   001126  9441               	bcf	_switches^0,2,c
  3750   001128                     l2616:
  3751                           
  3752                           ;main.c: 219:     if (!PORTBbits.RB0){
  3753   001128  B081               	btfsc	129,0,c	;volatile
  3754   00112A  EF99  F008         	goto	u2081
  3755   00112E  EF9B  F008         	goto	u2080
  3756   001132                     u2081:
  3757   001132  EFA4  F008         	goto	l2622
  3758   001136                     u2080:
  3759   001136                     
  3760                           ;main.c: 220:         switches |= (1 << 3);
  3761   001136  8641               	bsf	_switches^0,3,c
  3762   001138                     
  3763                           ;main.c: 221:         checkHit(Col4, Col1cnt);
  3764   001138  0E7C               	movlw	low _Col4
  3765   00113A  6E01               	movwf	checkHit@col^0,c
  3766   00113C  C045  F002         	movff	_Col1cnt,checkHit@cnt
  3767   001140  ECB9  F007         	call	_checkHit	;wreg free
  3768                           
  3769                           ;main.c: 222:     } else {
  3770   001144  EFA5  F008         	goto	l2624
  3771   001148                     l2622:
  3772                           
  3773                           ;main.c: 223:         switches &= ~(1 << 3);
  3774   001148  9641               	bcf	_switches^0,3,c
  3775   00114A                     l2624:
  3776                           
  3777                           ;main.c: 225:     if (!PORTBbits.RB2){
  3778   00114A  B481               	btfsc	129,2,c	;volatile
  3779   00114C  EFAA  F008         	goto	u2091
  3780   001150  EFAC  F008         	goto	u2090
  3781   001154                     u2091:
  3782   001154  EFAE  F008         	goto	l149
  3783   001158                     u2090:
  3784   001158                     
  3785                           ;main.c: 226:         resetGame();
  3786   001158  ECAF  F008         	call	_resetGame	;wreg free
  3787   00115C                     l149:
  3788   00115C  0012               	return		;funcret
  3789   00115E                     __end_of_handleSwitches:
  3790                           	callstack 0
  3791                           
  3792 ;; *************** function _resetGame *****************
  3793 ;; Defined at:
  3794 ;;		line 153 in file "main.c"
  3795 ;; Parameters:    Size  Location     Type
  3796 ;;		None
  3797 ;; Auto vars:     Size  Location     Type
  3798 ;;  i               1    8[COMRAM] unsigned char 
  3799 ;; Return value:  Size  Location     Type
  3800 ;;                  1    wreg      void 
  3801 ;; Registers used:
  3802 ;;		wreg, fsr2l, fsr2h, status,2, status,0, prodl, prodh, cstack
  3803 ;; Tracked objects:
  3804 ;;		On entry : 0/0
  3805 ;;		On exit  : 0/0
  3806 ;;		Unchanged: 0/0
  3807 ;; Data sizes:     COMRAM   BANK0   BANK1   BANK2   BANK3   BANK4   BANK5   BANK6   BANK7
  3808 ;;      Params:         0       0       0       0       0       0       0       0       0
  3809 ;;      Locals:         1       0       0       0       0       0       0       0       0
  3810 ;;      Temps:          0       0       0       0       0       0       0       0       0
  3811 ;;      Totals:         1       0       0       0       0       0       0       0       0
  3812 ;;Total ram usage:        1 bytes
  3813 ;; Hardware stack levels used: 1
  3814 ;; Hardware stack levels required when called: 5
  3815 ;; This function calls:
  3816 ;;		_clearBuffer
  3817 ;;		_updateDisplay
  3818 ;; This function is called by:
  3819 ;;		_handleSwitches
  3820 ;; This function uses a non-reentrant model
  3821 ;;
  3822                           
  3823                           	psect	text18
  3824   00115E                     __ptext18:
  3825                           	callstack 0
  3826   00115E                     _resetGame:
  3827                           	callstack 24
  3828   00115E                     
  3829                           ;main.c: 156:     INTCONbits.GIE = 0;
  3830   00115E  9EF2               	bcf	242,7,c	;volatile
  3831   001160                     
  3832                           ;main.c: 159:     millis = 0;
  3833   001160  0E00               	movlw	0
  3834   001162  6E2D               	movwf	_millis^0,c	;volatile
  3835   001164  0E00               	movlw	0
  3836   001166  6E2E               	movwf	(_millis+1)^0,c	;volatile
  3837   001168  0E00               	movlw	0
  3838   00116A  6E2F               	movwf	(_millis+2)^0,c	;volatile
  3839   00116C  0E00               	movlw	0
  3840   00116E  6E30               	movwf	(_millis+3)^0,c	;volatile
  3841                           
  3842                           ;main.c: 162:     chartIndex = 0;
  3843   001170  0E00               	movlw	0
  3844   001172  6E3C               	movwf	(_chartIndex+1)^0,c
  3845   001174  0E00               	movlw	0
  3846   001176  6E3B               	movwf	_chartIndex^0,c
  3847   001178                     
  3848                           ;main.c: 165:     Col1cnt = 0;
  3849   001178  6A45               	clrf	_Col1cnt^0,c
  3850   00117A                     
  3851                           ;main.c: 166:     Col2cnt = 0;
  3852   00117A  6A44               	clrf	_Col2cnt^0,c
  3853   00117C                     
  3854                           ;main.c: 167:     Col3cnt = 0;
  3855   00117C  6A43               	clrf	_Col3cnt^0,c
  3856   00117E                     
  3857                           ;main.c: 168:     Col4cnt = 0;
  3858   00117E  6A42               	clrf	_Col4cnt^0,c
  3859   001180                     
  3860                           ;main.c: 171:     for(uint8_t i = 0; i < 4; i++){
  3861   001180  6A09               	clrf	resetGame@i^0,c
  3862   001182                     l2374:
  3863                           
  3864                           ;main.c: 172:         Col1[i].len = 0;
  3865   001182  5009               	movf	resetGame@i^0,w,c
  3866   001184  0D07               	mullw	7
  3867   001186  50F3               	movf	243,w,c
  3868   001188  0FD4               	addlw	low (_Col1+4)
  3869   00118A  6ED9               	movwf	fsr2l,c
  3870   00118C  6ADA               	clrf	fsr2h,c
  3871   00118E  6ADE               	clrf	postinc2,c
  3872   001190  6ADD               	clrf	postdec2,c
  3873                           
  3874                           ;main.c: 173:         Col2[i].len = 0;
  3875   001192  5009               	movf	resetGame@i^0,w,c
  3876   001194  0D07               	mullw	7
  3877   001196  50F3               	movf	243,w,c
  3878   001198  0FB8               	addlw	low (_Col2+4)
  3879   00119A  6ED9               	movwf	fsr2l,c
  3880   00119C  6ADA               	clrf	fsr2h,c
  3881   00119E  6ADE               	clrf	postinc2,c
  3882   0011A0  6ADD               	clrf	postdec2,c
  3883                           
  3884                           ;main.c: 174:         Col3[i].len = 0;
  3885   0011A2  5009               	movf	resetGame@i^0,w,c
  3886   0011A4  0D07               	mullw	7
  3887   0011A6  50F3               	movf	243,w,c
  3888   0011A8  0F9C               	addlw	low (_Col3+4)
  3889   0011AA  6ED9               	movwf	fsr2l,c
  3890   0011AC  6ADA               	clrf	fsr2h,c
  3891   0011AE  6ADE               	clrf	postinc2,c
  3892   0011B0  6ADD               	clrf	postdec2,c
  3893                           
  3894                           ;main.c: 175:         Col4[i].len = 0;
  3895   0011B2  5009               	movf	resetGame@i^0,w,c
  3896   0011B4  0D07               	mullw	7
  3897   0011B6  50F3               	movf	243,w,c
  3898   0011B8  0F80               	addlw	low (_Col4+4)
  3899   0011BA  6ED9               	movwf	fsr2l,c
  3900   0011BC  6ADA               	clrf	fsr2h,c
  3901   0011BE  6ADE               	clrf	postinc2,c
  3902   0011C0  6ADD               	clrf	postdec2,c
  3903   0011C2                     
  3904                           ;main.c: 176:     }
  3905   0011C2  2A09               	incf	resetGame@i^0,f,c
  3906   0011C4  0E03               	movlw	3
  3907   0011C6  6409               	cpfsgt	resetGame@i^0,c
  3908   0011C8  EFE8  F008         	goto	u1741
  3909   0011CC  EFEA  F008         	goto	u1740
  3910   0011D0                     u1741:
  3911   0011D0  EFC1  F008         	goto	l2374
  3912   0011D4                     u1740:
  3913   0011D4                     
  3914                           ;main.c: 179:     switches = 0;
  3915   0011D4  6A41               	clrf	_switches^0,c
  3916   0011D6                     
  3917                           ;main.c: 180:     score = 0;
  3918   0011D6  0E00               	movlw	0
  3919   0011D8  6E40               	movwf	(_score+1)^0,c
  3920   0011DA  0E00               	movlw	0
  3921   0011DC  6E3F               	movwf	_score^0,c
  3922   0011DE                     
  3923                           ;main.c: 183:     clearBuffer();
  3924   0011DE  EC8F  F00A         	call	_clearBuffer	;wreg free
  3925   0011E2                     
  3926                           ;main.c: 184:     updateDisplay();
  3927   0011E2  EC3C  F00A         	call	_updateDisplay	;wreg free
  3928   0011E6                     
  3929                           ;main.c: 187:     PIR1bits.TMR2IF = 0;
  3930   0011E6  929E               	bcf	158,1,c	;volatile
  3931   0011E8                     
  3932                           ;main.c: 188:     INTCONbits.TMR0IF = 0;
  3933   0011E8  94F2               	bcf	242,2,c	;volatile
  3934   0011EA                     
  3935                           ;main.c: 191:     INTCONbits.GIE = 1;
  3936   0011EA  8EF2               	bsf	242,7,c	;volatile
  3937   0011EC  0012               	return		;funcret
  3938   0011EE                     __end_of_resetGame:
  3939                           	callstack 0
  3940                           
  3941 ;; *************** function _updateDisplay *****************
  3942 ;; Defined at:
  3943 ;;		line 193 in file "moduleDogm128.c"
  3944 ;; Parameters:    Size  Location     Type
  3945 ;;		None
  3946 ;; Auto vars:     Size  Location     Type
  3947 ;;  col             1    6[COMRAM] unsigned char 
  3948 ;;  pg              1    7[COMRAM] unsigned char 
  3949 ;; Return value:  Size  Location     Type
  3950 ;;                  1    wreg      void 
  3951 ;; Registers used:
  3952 ;;		wreg, fsr2l, fsr2h, status,2, status,0, prodl, prodh, cstack
  3953 ;; Tracked objects:
  3954 ;;		On entry : 0/0
  3955 ;;		On exit  : 0/0
  3956 ;;		Unchanged: 0/0
  3957 ;; Data sizes:     COMRAM   BANK0   BANK1   BANK2   BANK3   BANK4   BANK5   BANK6   BANK7
  3958 ;;      Params:         0       0       0       0       0       0       0       0       0
  3959 ;;      Locals:         2       0       0       0       0       0       0       0       0
  3960 ;;      Temps:          2       0       0       0       0       0       0       0       0
  3961 ;;      Totals:         4       0       0       0       0       0       0       0       0
  3962 ;;Total ram usage:        4 bytes
  3963 ;; Hardware stack levels used: 1
  3964 ;; Hardware stack levels required when called: 4
  3965 ;; This function calls:
  3966 ;;		_sendDataToDisplay
  3967 ;;		_setColumnAddress
  3968 ;;		_setPageAddress
  3969 ;; This function is called by:
  3970 ;;		_resetGame
  3971 ;;		_main
  3972 ;; This function uses a non-reentrant model
  3973 ;;
  3974                           
  3975                           	psect	text19
  3976   001478                     __ptext19:
  3977                           	callstack 0
  3978   001478                     _updateDisplay:
  3979                           	callstack 26
  3980   001478                     
  3981                           ;moduleDogm128.c: 195:     for (uint8_t pg = 0; pg < 8; pg++)
  3982   001478  6A08               	clrf	updateDisplay@pg^0,c
  3983   00147A                     l2076:
  3984                           
  3985                           ;moduleDogm128.c: 196:     {;moduleDogm128.c: 197:         setColumnAddress(0);
  3986   00147A  0E00               	movlw	0
  3987   00147C  EC0D  F00B         	call	_setColumnAddress
  3988                           
  3989                           ;moduleDogm128.c: 198:         setPageAddress(pg);
  3990   001480  5008               	movf	updateDisplay@pg^0,w,c
  3991   001482  EC26  F00B         	call	_setPageAddress
  3992   001486                     
  3993                           ;moduleDogm128.c: 200:         for (uint8_t col = 0; col < 128; col++)
  3994   001486  6A07               	clrf	updateDisplay@col^0,c
  3995   001488                     l2084:
  3996                           
  3997                           ;moduleDogm128.c: 201:         {;moduleDogm128.c: 202:             sendDataToDisplay(dis
      +                          playBuffer[pg][col]);
  3998   001488  5008               	movf	updateDisplay@pg^0,w,c
  3999   00148A  0D80               	mullw	128
  4000   00148C  0EEC               	movlw	low _displayBuffer
  4001   00148E  24F3               	addwf	243,w,c
  4002   001490  6E05               	movwf	??_updateDisplay^0,c
  4003   001492  0E00               	movlw	high _displayBuffer
  4004   001494  20F4               	addwfc	prodh,w,c
  4005   001496  6E06               	movwf	(??_updateDisplay+1)^0,c
  4006   001498  5007               	movf	updateDisplay@col^0,w,c
  4007   00149A  2405               	addwf	??_updateDisplay^0,w,c
  4008   00149C  6ED9               	movwf	fsr2l,c
  4009   00149E  0E00               	movlw	0
  4010   0014A0  2006               	addwfc	(??_updateDisplay+1)^0,w,c
  4011   0014A2  6EDA               	movwf	fsr2h,c
  4012   0014A4  50DF               	movf	indf2,w,c
  4013   0014A6  EC5B  F00B         	call	_sendDataToDisplay
  4014   0014AA                     
  4015                           ;moduleDogm128.c: 203:         }
  4016   0014AA  2A07               	incf	updateDisplay@col^0,f,c
  4017   0014AC  0E7F               	movlw	127
  4018   0014AE  6407               	cpfsgt	updateDisplay@col^0,c
  4019   0014B0  EF5C  F00A         	goto	u1281
  4020   0014B4  EF5E  F00A         	goto	u1280
  4021   0014B8                     u1281:
  4022   0014B8  EF44  F00A         	goto	l2084
  4023   0014BC                     u1280:
  4024   0014BC                     
  4025                           ;moduleDogm128.c: 204:     }
  4026   0014BC  2A08               	incf	updateDisplay@pg^0,f,c
  4027   0014BE  0E07               	movlw	7
  4028   0014C0  6408               	cpfsgt	updateDisplay@pg^0,c
  4029   0014C2  EF65  F00A         	goto	u1291
  4030   0014C6  EF67  F00A         	goto	u1290
  4031   0014CA                     u1291:
  4032   0014CA  EF3D  F00A         	goto	l2076
  4033   0014CE                     u1290:
  4034   0014CE  0012               	return		;funcret
  4035   0014D0                     __end_of_updateDisplay:
  4036                           	callstack 0
  4037                           
  4038 ;; *************** function _setPageAddress *****************
  4039 ;; Defined at:
  4040 ;;		line 159 in file "moduleDogm128.c"
  4041 ;; Parameters:    Size  Location     Type
  4042 ;;  page            1    wreg     unsigned char 
  4043 ;; Auto vars:     Size  Location     Type
  4044 ;;  page            1    2[COMRAM] unsigned char 
  4045 ;; Return value:  Size  Location     Type
  4046 ;;                  1    wreg      void 
  4047 ;; Registers used:
  4048 ;;		wreg, status,2, status,0, cstack
  4049 ;; Tracked objects:
  4050 ;;		On entry : 0/0
  4051 ;;		On exit  : 0/0
  4052 ;;		Unchanged: 0/0
  4053 ;; Data sizes:     COMRAM   BANK0   BANK1   BANK2   BANK3   BANK4   BANK5   BANK6   BANK7
  4054 ;;      Params:         0       0       0       0       0       0       0       0       0
  4055 ;;      Locals:         1       0       0       0       0       0       0       0       0
  4056 ;;      Temps:          0       0       0       0       0       0       0       0       0
  4057 ;;      Totals:         1       0       0       0       0       0       0       0       0
  4058 ;;Total ram usage:        1 bytes
  4059 ;; Hardware stack levels used: 1
  4060 ;; Hardware stack levels required when called: 3
  4061 ;; This function calls:
  4062 ;;		_sendCommandToDisplay
  4063 ;; This function is called by:
  4064 ;;		_clearPageDisplay
  4065 ;;		_updateDisplay
  4066 ;;		_fillChessBoardDisplay
  4067 ;;		_writeTextToDisplay
  4068 ;; This function uses a non-reentrant model
  4069 ;;
  4070                           
  4071                           	psect	text20
  4072   00164C                     __ptext20:
  4073                           	callstack 0
  4074   00164C                     _setPageAddress:
  4075                           	callstack 26
  4076                           
  4077                           ;incstack = 0
  4078                           ;setPageAddress@page stored from wreg
  4079   00164C  6E03               	movwf	setPageAddress@page^0,c
  4080   00164E                     
  4081                           ;moduleDogm128.c: 159: void setPageAddress(unsigned char page);moduleDogm128.c: 160: {;m
      +                          oduleDogm128.c: 161:     if(page > 7)
  4082   00164E  0E07               	movlw	7
  4083   001650  6403               	cpfsgt	setPageAddress@page^0,c
  4084   001652  EF2D  F00B         	goto	u1201
  4085   001656  EF2F  F00B         	goto	u1200
  4086   00165A                     u1201:
  4087   00165A  EF31  F00B         	goto	l2026
  4088   00165E                     u1200:
  4089   00165E                     
  4090                           ;moduleDogm128.c: 162:     {;moduleDogm128.c: 163:         page = 7;
  4091   00165E  0E07               	movlw	7
  4092   001660  6E03               	movwf	setPageAddress@page^0,c
  4093   001662                     l2026:
  4094                           
  4095                           ;moduleDogm128.c: 165:     sendCommandToDisplay(0xB0 | page);
  4096   001662  5003               	movf	setPageAddress@page^0,w,c
  4097   001664  09B0               	iorlw	176
  4098   001666  EC51  F00B         	call	_sendCommandToDisplay
  4099   00166A  0012               	return		;funcret
  4100   00166C                     __end_of_setPageAddress:
  4101                           	callstack 0
  4102                           
  4103 ;; *************** function _setColumnAddress *****************
  4104 ;; Defined at:
  4105 ;;		line 144 in file "moduleDogm128.c"
  4106 ;; Parameters:    Size  Location     Type
  4107 ;;  column          1    wreg     unsigned char 
  4108 ;; Auto vars:     Size  Location     Type
  4109 ;;  column          1    3[COMRAM] unsigned char 
  4110 ;;  col             1    2[COMRAM] unsigned char 
  4111 ;; Return value:  Size  Location     Type
  4112 ;;                  1    wreg      void 
  4113 ;; Registers used:
  4114 ;;		wreg, status,2, status,0, cstack
  4115 ;; Tracked objects:
  4116 ;;		On entry : 0/0
  4117 ;;		On exit  : 0/0
  4118 ;;		Unchanged: 0/0
  4119 ;; Data sizes:     COMRAM   BANK0   BANK1   BANK2   BANK3   BANK4   BANK5   BANK6   BANK7
  4120 ;;      Params:         0       0       0       0       0       0       0       0       0
  4121 ;;      Locals:         2       0       0       0       0       0       0       0       0
  4122 ;;      Temps:          0       0       0       0       0       0       0       0       0
  4123 ;;      Totals:         2       0       0       0       0       0       0       0       0
  4124 ;;Total ram usage:        2 bytes
  4125 ;; Hardware stack levels used: 1
  4126 ;; Hardware stack levels required when called: 3
  4127 ;; This function calls:
  4128 ;;		_sendCommandToDisplay
  4129 ;; This function is called by:
  4130 ;;		_clearPageDisplay
  4131 ;;		_updateDisplay
  4132 ;;		_fillChessBoardDisplay
  4133 ;;		_writeTextToDisplay
  4134 ;; This function uses a non-reentrant model
  4135 ;;
  4136                           
  4137                           	psect	text21
  4138   00161A                     __ptext21:
  4139                           	callstack 0
  4140   00161A                     _setColumnAddress:
  4141                           	callstack 26
  4142                           
  4143                           ;incstack = 0
  4144                           ;setColumnAddress@column stored from wreg
  4145   00161A  6E04               	movwf	setColumnAddress@column^0,c
  4146   00161C                     
  4147                           ;moduleDogm128.c: 144: void setColumnAddress(unsigned char column);moduleDogm128.c: 145:
      +                           {;moduleDogm128.c: 146:     unsigned char col;;moduleDogm128.c: 147:     if(column > 12
      +                          7)
  4148   00161C  0E7F               	movlw	127
  4149   00161E  6404               	cpfsgt	setColumnAddress@column^0,c
  4150   001620  EF14  F00B         	goto	u1191
  4151   001624  EF16  F00B         	goto	u1190
  4152   001628                     u1191:
  4153   001628  EF18  F00B         	goto	l2014
  4154   00162C                     u1190:
  4155   00162C                     
  4156                           ;moduleDogm128.c: 148:     {;moduleDogm128.c: 149:         column = 127;
  4157   00162C  0E7F               	movlw	127
  4158   00162E  6E04               	movwf	setColumnAddress@column^0,c
  4159   001630                     l2014:
  4160                           
  4161                           ;moduleDogm128.c: 151:     col = (column & 0x0F) | 0x00;
  4162   001630  5004               	movf	setColumnAddress@column^0,w,c
  4163   001632  0B0F               	andlw	15
  4164   001634  6E03               	movwf	setColumnAddress@col^0,c
  4165   001636                     
  4166                           ;moduleDogm128.c: 152:     sendCommandToDisplay(col);
  4167   001636  5003               	movf	setColumnAddress@col^0,w,c
  4168   001638  EC51  F00B         	call	_sendCommandToDisplay
  4169   00163C                     
  4170                           ;moduleDogm128.c: 153:     col = (column >> 4) | 0x10;
  4171   00163C  3804               	swapf	setColumnAddress@column^0,w,c
  4172   00163E  0B0F               	andlw	15
  4173   001640  0910               	iorlw	16
  4174   001642  6E03               	movwf	setColumnAddress@col^0,c
  4175   001644                     
  4176                           ;moduleDogm128.c: 154:     sendCommandToDisplay(col);
  4177   001644  5003               	movf	setColumnAddress@col^0,w,c
  4178   001646  EC51  F00B         	call	_sendCommandToDisplay
  4179   00164A  0012               	return		;funcret
  4180   00164C                     __end_of_setColumnAddress:
  4181                           	callstack 0
  4182                           
  4183 ;; *************** function _sendCommandToDisplay *****************
  4184 ;; Defined at:
  4185 ;;		line 120 in file "moduleDogm128.c"
  4186 ;; Parameters:    Size  Location     Type
  4187 ;;  comm            1    wreg     unsigned char 
  4188 ;; Auto vars:     Size  Location     Type
  4189 ;;  comm            1    1[COMRAM] unsigned char 
  4190 ;; Return value:  Size  Location     Type
  4191 ;;                  1    wreg      void 
  4192 ;; Registers used:
  4193 ;;		wreg, status,2, status,0, cstack
  4194 ;; Tracked objects:
  4195 ;;		On entry : 0/0
  4196 ;;		On exit  : 0/0
  4197 ;;		Unchanged: 0/0
  4198 ;; Data sizes:     COMRAM   BANK0   BANK1   BANK2   BANK3   BANK4   BANK5   BANK6   BANK7
  4199 ;;      Params:         0       0       0       0       0       0       0       0       0
  4200 ;;      Locals:         1       0       0       0       0       0       0       0       0
  4201 ;;      Temps:          0       0       0       0       0       0       0       0       0
  4202 ;;      Totals:         1       0       0       0       0       0       0       0       0
  4203 ;;Total ram usage:        1 bytes
  4204 ;; Hardware stack levels used: 1
  4205 ;; Hardware stack levels required when called: 2
  4206 ;; This function calls:
  4207 ;;		_sendByteSpi
  4208 ;; This function is called by:
  4209 ;;		_initDisplay
  4210 ;;		_setColumnAddress
  4211 ;;		_setPageAddress
  4212 ;; This function uses a non-reentrant model
  4213 ;;
  4214                           
  4215                           	psect	text22
  4216   0016A2                     __ptext22:
  4217                           	callstack 0
  4218   0016A2                     _sendCommandToDisplay:
  4219                           	callstack 26
  4220                           
  4221                           ;incstack = 0
  4222                           ;sendCommandToDisplay@comm stored from wreg
  4223   0016A2  6E02               	movwf	sendCommandToDisplay@comm^0,c
  4224   0016A4                     
  4225                           ;moduleDogm128.c: 120: void sendCommandToDisplay(unsigned char comm);moduleDogm128.c: 12
      +                          1: {;moduleDogm128.c: 122:     (LATD &= ~(1<<0));
  4226   0016A4  908C               	bcf	140,0,c	;volatile
  4227                           
  4228                           ;moduleDogm128.c: 123:     (LATC &= ~(1<<0));
  4229   0016A6  908B               	bcf	139,0,c	;volatile
  4230   0016A8                     
  4231                           ;moduleDogm128.c: 124:     __nop();
  4232   0016A8  0000               	nop	
  4233   0016AA                     
  4234                           ;moduleDogm128.c: 125:     sendByteSpi(comm);
  4235   0016AA  5002               	movf	sendCommandToDisplay@comm^0,w,c
  4236   0016AC  EC44  F00B         	call	_sendByteSpi
  4237   0016B0                     
  4238                           ;moduleDogm128.c: 126:     __nop();
  4239   0016B0  0000               	nop	
  4240   0016B2                     
  4241                           ;moduleDogm128.c: 127:     (LATC |= (1<<0));
  4242   0016B2  808B               	bsf	139,0,c	;volatile
  4243   0016B4  0012               	return		;funcret
  4244   0016B6                     __end_of_sendCommandToDisplay:
  4245                           	callstack 0
  4246                           
  4247 ;; *************** function _sendDataToDisplay *****************
  4248 ;; Defined at:
  4249 ;;		line 132 in file "moduleDogm128.c"
  4250 ;; Parameters:    Size  Location     Type
  4251 ;;  dat             1    wreg     unsigned char 
  4252 ;; Auto vars:     Size  Location     Type
  4253 ;;  dat             1    1[COMRAM] unsigned char 
  4254 ;; Return value:  Size  Location     Type
  4255 ;;                  1    wreg      void 
  4256 ;; Registers used:
  4257 ;;		wreg, status,2, status,0, cstack
  4258 ;; Tracked objects:
  4259 ;;		On entry : 0/0
  4260 ;;		On exit  : 0/0
  4261 ;;		Unchanged: 0/0
  4262 ;; Data sizes:     COMRAM   BANK0   BANK1   BANK2   BANK3   BANK4   BANK5   BANK6   BANK7
  4263 ;;      Params:         0       0       0       0       0       0       0       0       0
  4264 ;;      Locals:         1       0       0       0       0       0       0       0       0
  4265 ;;      Temps:          0       0       0       0       0       0       0       0       0
  4266 ;;      Totals:         1       0       0       0       0       0       0       0       0
  4267 ;;Total ram usage:        1 bytes
  4268 ;; Hardware stack levels used: 1
  4269 ;; Hardware stack levels required when called: 2
  4270 ;; This function calls:
  4271 ;;		_sendByteSpi
  4272 ;; This function is called by:
  4273 ;;		_clearPageDisplay
  4274 ;;		_updateDisplay
  4275 ;;		_fillChessBoardDisplay
  4276 ;;		_writeTextToDisplay
  4277 ;; This function uses a non-reentrant model
  4278 ;;
  4279                           
  4280                           	psect	text23
  4281   0016B6                     __ptext23:
  4282                           	callstack 0
  4283   0016B6                     _sendDataToDisplay:
  4284                           	callstack 27
  4285                           
  4286                           ;incstack = 0
  4287                           ;sendDataToDisplay@dat stored from wreg
  4288   0016B6  6E02               	movwf	sendDataToDisplay@dat^0,c
  4289   0016B8                     
  4290                           ;moduleDogm128.c: 132: void sendDataToDisplay(unsigned char dat);moduleDogm128.c: 133: {
      +                          ;moduleDogm128.c: 134:     (LATD |= (1<<0));
  4291   0016B8  808C               	bsf	140,0,c	;volatile
  4292                           
  4293                           ;moduleDogm128.c: 135:     (LATC &= ~(1<<0));
  4294   0016BA  908B               	bcf	139,0,c	;volatile
  4295   0016BC                     
  4296                           ;moduleDogm128.c: 136:     __nop();
  4297   0016BC  0000               	nop	
  4298   0016BE                     
  4299                           ;moduleDogm128.c: 137:     sendByteSpi(dat);
  4300   0016BE  5002               	movf	sendDataToDisplay@dat^0,w,c
  4301   0016C0  EC44  F00B         	call	_sendByteSpi
  4302   0016C4                     
  4303                           ;moduleDogm128.c: 138:     __nop();
  4304   0016C4  0000               	nop	
  4305   0016C6                     
  4306                           ;moduleDogm128.c: 139:     (LATC |= (1<<0));
  4307   0016C6  808B               	bsf	139,0,c	;volatile
  4308   0016C8  0012               	return		;funcret
  4309   0016CA                     __end_of_sendDataToDisplay:
  4310                           	callstack 0
  4311                           
  4312 ;; *************** function _sendByteSpi *****************
  4313 ;; Defined at:
  4314 ;;		line 22 in file "spi.c"
  4315 ;; Parameters:    Size  Location     Type
  4316 ;;  dat             1    wreg     unsigned char 
  4317 ;; Auto vars:     Size  Location     Type
  4318 ;;  dat             1    0[COMRAM] unsigned char 
  4319 ;; Return value:  Size  Location     Type
  4320 ;;                  1    wreg      unsigned char 
  4321 ;; Registers used:
  4322 ;;		wreg
  4323 ;; Tracked objects:
  4324 ;;		On entry : 0/0
  4325 ;;		On exit  : 0/0
  4326 ;;		Unchanged: 0/0
  4327 ;; Data sizes:     COMRAM   BANK0   BANK1   BANK2   BANK3   BANK4   BANK5   BANK6   BANK7
  4328 ;;      Params:         0       0       0       0       0       0       0       0       0
  4329 ;;      Locals:         1       0       0       0       0       0       0       0       0
  4330 ;;      Temps:          0       0       0       0       0       0       0       0       0
  4331 ;;      Totals:         1       0       0       0       0       0       0       0       0
  4332 ;;Total ram usage:        1 bytes
  4333 ;; Hardware stack levels used: 1
  4334 ;; Hardware stack levels required when called: 1
  4335 ;; This function calls:
  4336 ;;		Nothing
  4337 ;; This function is called by:
  4338 ;;		_sendCommandToDisplay
  4339 ;;		_sendDataToDisplay
  4340 ;; This function uses a non-reentrant model
  4341 ;;
  4342                           
  4343                           	psect	text24
  4344   001688                     __ptext24:
  4345                           	callstack 0
  4346   001688                     _sendByteSpi:
  4347                           	callstack 26
  4348                           
  4349                           ;incstack = 0
  4350                           ;sendByteSpi@dat stored from wreg
  4351   001688  6E01               	movwf	sendByteSpi@dat^0,c
  4352   00168A                     
  4353                           ;spi.c: 22: unsigned char sendByteSpi(unsigned char dat);spi.c: 23: {;spi.c: 24:     SSP
      +                          BUF = dat;
  4354   00168A  C001  FFC9         	movff	sendByteSpi@dat,4041	;volatile
  4355   00168E                     l231:
  4356   00168E  A69E               	btfss	158,3,c	;volatile
  4357   001690  EF4C  F00B         	goto	u1181
  4358   001694  EF4E  F00B         	goto	u1180
  4359   001698                     u1181:
  4360   001698  EF47  F00B         	goto	l231
  4361   00169C                     u1180:
  4362   00169C                     
  4363                           ;spi.c: 26:     PIR1bits.SSPIF = 0;
  4364   00169C  969E               	bcf	158,3,c	;volatile
  4365                           
  4366                           ;spi.c: 27:     return SSPBUF;;	Return value of _sendByteSpi is never used
  4367   00169E  50C9               	movf	201,w,c	;volatile
  4368   0016A0  0012               	return		;funcret
  4369   0016A2                     __end_of_sendByteSpi:
  4370                           	callstack 0
  4371                           
  4372 ;; *************** function _clearBuffer *****************
  4373 ;; Defined at:
  4374 ;;		line 282 in file "moduleDogm128.c"
  4375 ;; Parameters:    Size  Location     Type
  4376 ;;		None
  4377 ;; Auto vars:     Size  Location     Type
  4378 ;;  col             1    3[COMRAM] unsigned char 
  4379 ;;  pg              1    2[COMRAM] unsigned char 
  4380 ;; Return value:  Size  Location     Type
  4381 ;;                  1    wreg      void 
  4382 ;; Registers used:
  4383 ;;		wreg, fsr2l, fsr2h, status,2, status,0, prodl, prodh
  4384 ;; Tracked objects:
  4385 ;;		On entry : 0/0
  4386 ;;		On exit  : 0/0
  4387 ;;		Unchanged: 0/0
  4388 ;; Data sizes:     COMRAM   BANK0   BANK1   BANK2   BANK3   BANK4   BANK5   BANK6   BANK7
  4389 ;;      Params:         0       0       0       0       0       0       0       0       0
  4390 ;;      Locals:         2       0       0       0       0       0       0       0       0
  4391 ;;      Temps:          2       0       0       0       0       0       0       0       0
  4392 ;;      Totals:         4       0       0       0       0       0       0       0       0
  4393 ;;Total ram usage:        4 bytes
  4394 ;; Hardware stack levels used: 1
  4395 ;; Hardware stack levels required when called: 1
  4396 ;; This function calls:
  4397 ;;		Nothing
  4398 ;; This function is called by:
  4399 ;;		_resetGame
  4400 ;;		_main
  4401 ;; This function uses a non-reentrant model
  4402 ;;
  4403                           
  4404                           	psect	text25
  4405   00151E                     __ptext25:
  4406                           	callstack 0
  4407   00151E                     _clearBuffer:
  4408                           	callstack 27
  4409   00151E                     
  4410                           ;moduleDogm128.c: 284:     for (uint8_t pg = 0; pg < 8; pg++)
  4411   00151E  6A03               	clrf	clearBuffer@pg^0,c
  4412   001520                     l371:
  4413                           
  4414                           ;moduleDogm128.c: 285:     {;moduleDogm128.c: 286:         for (uint8_t col = 0; col < 1
      +                          28; col++)
  4415   001520  6A04               	clrf	clearBuffer@col^0,c
  4416   001522                     l2060:
  4417                           
  4418                           ;moduleDogm128.c: 287:         {;moduleDogm128.c: 288:             displayBuffer[pg][col
      +                          ] = 0x00;
  4419   001522  5003               	movf	clearBuffer@pg^0,w,c
  4420   001524  0D80               	mullw	128
  4421   001526  0EEC               	movlw	low _displayBuffer
  4422   001528  24F3               	addwf	243,w,c
  4423   00152A  6E01               	movwf	??_clearBuffer^0,c
  4424   00152C  0E00               	movlw	high _displayBuffer
  4425   00152E  20F4               	addwfc	prodh,w,c
  4426   001530  6E02               	movwf	(??_clearBuffer+1)^0,c
  4427   001532  5004               	movf	clearBuffer@col^0,w,c
  4428   001534  2401               	addwf	??_clearBuffer^0,w,c
  4429   001536  6ED9               	movwf	fsr2l,c
  4430   001538  0E00               	movlw	0
  4431   00153A  2002               	addwfc	(??_clearBuffer+1)^0,w,c
  4432   00153C  6EDA               	movwf	fsr2h,c
  4433   00153E  6ADF               	clrf	indf2,c
  4434   001540                     
  4435                           ;moduleDogm128.c: 289:         }
  4436   001540  2A04               	incf	clearBuffer@col^0,f,c
  4437   001542  0E7F               	movlw	127
  4438   001544  6404               	cpfsgt	clearBuffer@col^0,c
  4439   001546  EFA7  F00A         	goto	u1261
  4440   00154A  EFA9  F00A         	goto	u1260
  4441   00154E                     u1261:
  4442   00154E  EF91  F00A         	goto	l2060
  4443   001552                     u1260:
  4444   001552                     
  4445                           ;moduleDogm128.c: 290:     }
  4446   001552  2A03               	incf	clearBuffer@pg^0,f,c
  4447   001554  0E07               	movlw	7
  4448   001556  6403               	cpfsgt	clearBuffer@pg^0,c
  4449   001558  EFB0  F00A         	goto	u1271
  4450   00155C  EFB2  F00A         	goto	u1270
  4451   001560                     u1271:
  4452   001560  EF90  F00A         	goto	l371
  4453   001564                     u1270:
  4454   001564  0012               	return		;funcret
  4455   001566                     __end_of_clearBuffer:
  4456                           	callstack 0
  4457                           
  4458 ;; *************** function _checkHit *****************
  4459 ;; Defined at:
  4460 ;;		line 92 in file "main.c"
  4461 ;; Parameters:    Size  Location     Type
  4462 ;;  col             1    0[COMRAM] PTR struct tile
  4463 ;;		 -> Col4(28), Col3(28), Col2(28), Col1(28), 
  4464 ;;  cnt             1    1[COMRAM] unsigned char 
  4465 ;; Auto vars:     Size  Location     Type
  4466 ;;  error           4    6[COMRAM] long 
  4467 ;;  i               1   10[COMRAM] unsigned char 
  4468 ;; Return value:  Size  Location     Type
  4469 ;;                  1    wreg      void 
  4470 ;; Registers used:
  4471 ;;		wreg, fsr2l, fsr2h, status,2, status,0, prodl, prodh
  4472 ;; Tracked objects:
  4473 ;;		On entry : 0/0
  4474 ;;		On exit  : 0/0
  4475 ;;		Unchanged: 0/0
  4476 ;; Data sizes:     COMRAM   BANK0   BANK1   BANK2   BANK3   BANK4   BANK5   BANK6   BANK7
  4477 ;;      Params:         2       0       0       0       0       0       0       0       0
  4478 ;;      Locals:         5       0       0       0       0       0       0       0       0
  4479 ;;      Temps:          4       0       0       0       0       0       0       0       0
  4480 ;;      Totals:        11       0       0       0       0       0       0       0       0
  4481 ;;Total ram usage:       11 bytes
  4482 ;; Hardware stack levels used: 1
  4483 ;; Hardware stack levels required when called: 1
  4484 ;; This function calls:
  4485 ;;		Nothing
  4486 ;; This function is called by:
  4487 ;;		_handleSwitches
  4488 ;; This function uses a non-reentrant model
  4489 ;;
  4490                           
  4491                           	psect	text26
  4492   000F72                     __ptext26:
  4493                           	callstack 0
  4494   000F72                     _checkHit:
  4495                           	callstack 28
  4496   000F72                     
  4497                           ;main.c: 93:     for(uint8_t i=0; i<cnt; i++){
  4498   000F72  6A0B               	clrf	checkHit@i^0,c
  4499   000F74  EF05  F008         	goto	l2328
  4500   000F78                     l2316:
  4501                           
  4502                           ;main.c: 94:         int32_t error = millis - col[i].start;
  4503   000F78  500B               	movf	checkHit@i^0,w,c
  4504   000F7A  0D07               	mullw	7
  4505   000F7C  5001               	movf	checkHit@col^0,w,c
  4506   000F7E  24F3               	addwf	243,w,c
  4507   000F80  6ED9               	movwf	fsr2l,c
  4508   000F82  6ADA               	clrf	fsr2h,c
  4509   000F84  CFDE F003          	movff	postinc2,??_checkHit
  4510   000F88  CFDE F004          	movff	postinc2,??_checkHit+1
  4511   000F8C  CFDE F005          	movff	postinc2,??_checkHit+2
  4512   000F90  CFDE F006          	movff	postinc2,??_checkHit+3
  4513   000F94  5003               	movf	??_checkHit^0,w,c
  4514   000F96  5C2D               	subwf	_millis^0,w,c	;volatile
  4515   000F98  6E07               	movwf	checkHit@error^0,c
  4516   000F9A  5004               	movf	(??_checkHit+1)^0,w,c
  4517   000F9C  582E               	subwfb	(_millis+1)^0,w,c	;volatile
  4518   000F9E  6E08               	movwf	(checkHit@error+1)^0,c
  4519   000FA0  5005               	movf	(??_checkHit+2)^0,w,c
  4520   000FA2  582F               	subwfb	(_millis+2)^0,w,c	;volatile
  4521   000FA4  6E09               	movwf	(checkHit@error+2)^0,c
  4522   000FA6  5006               	movf	(??_checkHit+3)^0,w,c
  4523   000FA8  5830               	subwfb	(_millis+3)^0,w,c	;volatile
  4524   000FAA  6E0A               	movwf	(checkHit@error+3)^0,c
  4525   000FAC                     
  4526                           ;main.c: 96:         if (error > -150 && error < 150){
  4527   000FAC  AE0A               	btfss	(checkHit@error+3)^0,7,c
  4528   000FAE  EFE8  F007         	goto	u1650
  4529   000FB2  0E6B               	movlw	107
  4530   000FB4  5C07               	subwf	checkHit@error^0,w,c
  4531   000FB6  0EFF               	movlw	255
  4532   000FB8  5808               	subwfb	(checkHit@error+1)^0,w,c
  4533   000FBA  0EFF               	movlw	255
  4534   000FBC  5809               	subwfb	(checkHit@error+2)^0,w,c
  4535   000FBE  0EFF               	movlw	255
  4536   000FC0  580A               	subwfb	(checkHit@error+3)^0,w,c
  4537   000FC2  A0D8               	btfss	status,0,c
  4538   000FC4  EFE6  F007         	goto	u1651
  4539   000FC8  EFE8  F007         	goto	u1650
  4540   000FCC                     u1651:
  4541   000FCC  EF04  F008         	goto	l2326
  4542   000FD0                     u1650:
  4543   000FD0  BE0A               	btfsc	(checkHit@error+3)^0,7,c
  4544   000FD2  EFF8  F007         	goto	u1660
  4545   000FD6  500A               	movf	(checkHit@error+3)^0,w,c
  4546   000FD8  1009               	iorwf	(checkHit@error+2)^0,w,c
  4547   000FDA  1008               	iorwf	(checkHit@error+1)^0,w,c
  4548   000FDC  E107               	bnz	u1661
  4549   000FDE  0E96               	movlw	150
  4550   000FE0  5C07               	subwf	checkHit@error^0,w,c
  4551   000FE2  B0D8               	btfsc	status,0,c
  4552   000FE4  EFF6  F007         	goto	u1661
  4553   000FE8  EFF8  F007         	goto	u1660
  4554   000FEC                     u1661:
  4555   000FEC  EF04  F008         	goto	l2326
  4556   000FF0                     u1660:
  4557   000FF0                     
  4558                           ;main.c: 97:             score++;
  4559   000FF0  4A3F               	infsnz	_score^0,f,c
  4560   000FF2  2A40               	incf	(_score+1)^0,f,c
  4561   000FF4                     
  4562                           ;main.c: 98:             col[i].len = 0;
  4563   000FF4  500B               	movf	checkHit@i^0,w,c
  4564   000FF6  0D07               	mullw	7
  4565   000FF8  5001               	movf	checkHit@col^0,w,c
  4566   000FFA  24F3               	addwf	243,w,c
  4567   000FFC  6ED9               	movwf	fsr2l,c
  4568   000FFE  6ADA               	clrf	fsr2h,c
  4569   001000  0E04               	movlw	4
  4570   001002  26D9               	addwf	fsr2l,f,c
  4571   001004  6ADE               	clrf	postinc2,c
  4572   001006  6ADD               	clrf	postdec2,c
  4573   001008                     l2326:
  4574                           
  4575                           ;main.c: 100:     }
  4576   001008  2A0B               	incf	checkHit@i^0,f,c
  4577   00100A                     l2328:
  4578   00100A  5002               	movf	checkHit@cnt^0,w,c
  4579   00100C  5C0B               	subwf	checkHit@i^0,w,c
  4580   00100E  A0D8               	btfss	status,0,c
  4581   001010  EF0C  F008         	goto	u1671
  4582   001014  EF0E  F008         	goto	u1670
  4583   001018                     u1671:
  4584   001018  EFBC  F007         	goto	l2316
  4585   00101C                     u1670:
  4586   00101C  0012               	return		;funcret
  4587   00101E                     __end_of_checkHit:
  4588                           	callstack 0
  4589                           
  4590 ;; *************** function _drawUi *****************
  4591 ;; Defined at:
  4592 ;;		line 307 in file "main.c"
  4593 ;; Parameters:    Size  Location     Type
  4594 ;;		None
  4595 ;; Auto vars:     Size  Location     Type
  4596 ;;		None
  4597 ;; Return value:  Size  Location     Type
  4598 ;;                  1    wreg      void 
  4599 ;; Registers used:
  4600 ;;		wreg, fsr1l, fsr1h, fsr2l, fsr2h, status,2, status,0, tblptrl, tblptrh, tblptru, prodl, prodh, cstack
  4601 ;; Tracked objects:
  4602 ;;		On entry : 0/0
  4603 ;;		On exit  : 0/0
  4604 ;;		Unchanged: 0/0
  4605 ;; Data sizes:     COMRAM   BANK0   BANK1   BANK2   BANK3   BANK4   BANK5   BANK6   BANK7
  4606 ;;      Params:         0       0       0       0       0       0       0       0       0
  4607 ;;      Locals:         0       0       0       0       0       0       0       0       0
  4608 ;;      Temps:          0       0       0       0       0       0       0       0       0
  4609 ;;      Totals:         0       0       0       0       0       0       0       0       0
  4610 ;;Total ram usage:        0 bytes
  4611 ;; Hardware stack levels used: 1
  4612 ;; Hardware stack levels required when called: 4
  4613 ;; This function calls:
  4614 ;;		_drawColl
  4615 ;;		_drawRect
  4616 ;;		_drawText
  4617 ;;		_fillRect
  4618 ;;		_utoa32
  4619 ;; This function is called by:
  4620 ;;		_main
  4621 ;; This function uses a non-reentrant model
  4622 ;;
  4623                           
  4624                           	psect	text27
  4625   000288                     __ptext27:
  4626                           	callstack 0
  4627   000288                     _drawUi:
  4628                           	callstack 26
  4629   000288                     
  4630                           ;main.c: 308:     if (switches & 0x01){
  4631   000288  A041               	btfss	_switches^0,0,c
  4632   00028A  EF49  F001         	goto	u2111
  4633   00028E  EF4B  F001         	goto	u2110
  4634   000292                     u2111:
  4635   000292  EF61  F001         	goto	l2646
  4636   000296                     u2110:
  4637   000296                     
  4638                           ;main.c: 309:         drawRect(2, 60, 28, 4);
  4639   000296  0E3C               	movlw	60
  4640   000298  6E0B               	movwf	drawRect@y^0,c
  4641   00029A  0E1C               	movlw	28
  4642   00029C  6E0C               	movwf	drawRect@w^0,c
  4643   00029E  0E04               	movlw	4
  4644   0002A0  6E0D               	movwf	drawRect@h^0,c
  4645   0002A2  0E02               	movlw	2
  4646   0002A4  EC09  F007         	call	_drawRect
  4647                           
  4648                           ;main.c: 310:         fillRect(3, 61, 26, 2, 1);
  4649   0002A8  0E3D               	movlw	61
  4650   0002AA  6E0B               	movwf	fillRect@y^0,c
  4651   0002AC  0E1A               	movlw	26
  4652   0002AE  6E0C               	movwf	fillRect@w^0,c
  4653   0002B0  0E02               	movlw	2
  4654   0002B2  6E0D               	movwf	fillRect@h^0,c
  4655   0002B4  0E01               	movlw	1
  4656   0002B6  6E0E               	movwf	fillRect@color^0,c
  4657   0002B8  0E03               	movlw	3
  4658   0002BA  EC75  F009         	call	_fillRect
  4659                           
  4660                           ;main.c: 311:     } else {
  4661   0002BE  EF75  F001         	goto	l2648
  4662   0002C2                     l2646:
  4663                           
  4664                           ;main.c: 312:         drawRect(2, 60, 28, 4);
  4665   0002C2  0E3C               	movlw	60
  4666   0002C4  6E0B               	movwf	drawRect@y^0,c
  4667   0002C6  0E1C               	movlw	28
  4668   0002C8  6E0C               	movwf	drawRect@w^0,c
  4669   0002CA  0E04               	movlw	4
  4670   0002CC  6E0D               	movwf	drawRect@h^0,c
  4671   0002CE  0E02               	movlw	2
  4672   0002D0  EC09  F007         	call	_drawRect
  4673                           
  4674                           ;main.c: 313:         fillRect(3, 61, 26, 2, 0);
  4675   0002D4  0E3D               	movlw	61
  4676   0002D6  6E0B               	movwf	fillRect@y^0,c
  4677   0002D8  0E1A               	movlw	26
  4678   0002DA  6E0C               	movwf	fillRect@w^0,c
  4679   0002DC  0E02               	movlw	2
  4680   0002DE  6E0D               	movwf	fillRect@h^0,c
  4681   0002E0  0E00               	movlw	0
  4682   0002E2  6E0E               	movwf	fillRect@color^0,c
  4683   0002E4  0E03               	movlw	3
  4684   0002E6  EC75  F009         	call	_fillRect
  4685   0002EA                     l2648:
  4686                           
  4687                           ;main.c: 316:     if (switches & 0x02){
  4688   0002EA  A241               	btfss	_switches^0,1,c
  4689   0002EC  EF7A  F001         	goto	u2121
  4690   0002F0  EF7C  F001         	goto	u2120
  4691   0002F4                     u2121:
  4692   0002F4  EF92  F001         	goto	l2652
  4693   0002F8                     u2120:
  4694   0002F8                     
  4695                           ;main.c: 317:         drawRect(34, 60, 28, 4);
  4696   0002F8  0E3C               	movlw	60
  4697   0002FA  6E0B               	movwf	drawRect@y^0,c
  4698   0002FC  0E1C               	movlw	28
  4699   0002FE  6E0C               	movwf	drawRect@w^0,c
  4700   000300  0E04               	movlw	4
  4701   000302  6E0D               	movwf	drawRect@h^0,c
  4702   000304  0E22               	movlw	34
  4703   000306  EC09  F007         	call	_drawRect
  4704                           
  4705                           ;main.c: 318:         fillRect(35, 61, 26, 2, 1);
  4706   00030A  0E3D               	movlw	61
  4707   00030C  6E0B               	movwf	fillRect@y^0,c
  4708   00030E  0E1A               	movlw	26
  4709   000310  6E0C               	movwf	fillRect@w^0,c
  4710   000312  0E02               	movlw	2
  4711   000314  6E0D               	movwf	fillRect@h^0,c
  4712   000316  0E01               	movlw	1
  4713   000318  6E0E               	movwf	fillRect@color^0,c
  4714   00031A  0E23               	movlw	35
  4715   00031C  EC75  F009         	call	_fillRect
  4716                           
  4717                           ;main.c: 319:     } else {
  4718   000320  EFA6  F001         	goto	l2654
  4719   000324                     l2652:
  4720                           
  4721                           ;main.c: 320:         drawRect(34, 60, 28, 4);
  4722   000324  0E3C               	movlw	60
  4723   000326  6E0B               	movwf	drawRect@y^0,c
  4724   000328  0E1C               	movlw	28
  4725   00032A  6E0C               	movwf	drawRect@w^0,c
  4726   00032C  0E04               	movlw	4
  4727   00032E  6E0D               	movwf	drawRect@h^0,c
  4728   000330  0E22               	movlw	34
  4729   000332  EC09  F007         	call	_drawRect
  4730                           
  4731                           ;main.c: 321:         fillRect(35, 61, 26, 2, 0);
  4732   000336  0E3D               	movlw	61
  4733   000338  6E0B               	movwf	fillRect@y^0,c
  4734   00033A  0E1A               	movlw	26
  4735   00033C  6E0C               	movwf	fillRect@w^0,c
  4736   00033E  0E02               	movlw	2
  4737   000340  6E0D               	movwf	fillRect@h^0,c
  4738   000342  0E00               	movlw	0
  4739   000344  6E0E               	movwf	fillRect@color^0,c
  4740   000346  0E23               	movlw	35
  4741   000348  EC75  F009         	call	_fillRect
  4742   00034C                     l2654:
  4743                           
  4744                           ;main.c: 324:     if (switches & 0x04){
  4745   00034C  A441               	btfss	_switches^0,2,c
  4746   00034E  EFAB  F001         	goto	u2131
  4747   000352  EFAD  F001         	goto	u2130
  4748   000356                     u2131:
  4749   000356  EFC3  F001         	goto	l2658
  4750   00035A                     u2130:
  4751   00035A                     
  4752                           ;main.c: 325:         drawRect(66, 60, 28, 4);
  4753   00035A  0E3C               	movlw	60
  4754   00035C  6E0B               	movwf	drawRect@y^0,c
  4755   00035E  0E1C               	movlw	28
  4756   000360  6E0C               	movwf	drawRect@w^0,c
  4757   000362  0E04               	movlw	4
  4758   000364  6E0D               	movwf	drawRect@h^0,c
  4759   000366  0E42               	movlw	66
  4760   000368  EC09  F007         	call	_drawRect
  4761                           
  4762                           ;main.c: 326:         fillRect(67, 61, 26, 2, 1);
  4763   00036C  0E3D               	movlw	61
  4764   00036E  6E0B               	movwf	fillRect@y^0,c
  4765   000370  0E1A               	movlw	26
  4766   000372  6E0C               	movwf	fillRect@w^0,c
  4767   000374  0E02               	movlw	2
  4768   000376  6E0D               	movwf	fillRect@h^0,c
  4769   000378  0E01               	movlw	1
  4770   00037A  6E0E               	movwf	fillRect@color^0,c
  4771   00037C  0E43               	movlw	67
  4772   00037E  EC75  F009         	call	_fillRect
  4773                           
  4774                           ;main.c: 327:     } else {
  4775   000382  EFD7  F001         	goto	l2660
  4776   000386                     l2658:
  4777                           
  4778                           ;main.c: 328:         drawRect(66, 60, 28, 4);
  4779   000386  0E3C               	movlw	60
  4780   000388  6E0B               	movwf	drawRect@y^0,c
  4781   00038A  0E1C               	movlw	28
  4782   00038C  6E0C               	movwf	drawRect@w^0,c
  4783   00038E  0E04               	movlw	4
  4784   000390  6E0D               	movwf	drawRect@h^0,c
  4785   000392  0E42               	movlw	66
  4786   000394  EC09  F007         	call	_drawRect
  4787                           
  4788                           ;main.c: 329:         fillRect(67, 61, 26, 2, 0);
  4789   000398  0E3D               	movlw	61
  4790   00039A  6E0B               	movwf	fillRect@y^0,c
  4791   00039C  0E1A               	movlw	26
  4792   00039E  6E0C               	movwf	fillRect@w^0,c
  4793   0003A0  0E02               	movlw	2
  4794   0003A2  6E0D               	movwf	fillRect@h^0,c
  4795   0003A4  0E00               	movlw	0
  4796   0003A6  6E0E               	movwf	fillRect@color^0,c
  4797   0003A8  0E43               	movlw	67
  4798   0003AA  EC75  F009         	call	_fillRect
  4799   0003AE                     l2660:
  4800                           
  4801                           ;main.c: 332:     if (switches & 0x08){
  4802   0003AE  A641               	btfss	_switches^0,3,c
  4803   0003B0  EFDC  F001         	goto	u2141
  4804   0003B4  EFDE  F001         	goto	u2140
  4805   0003B8                     u2141:
  4806   0003B8  EFF4  F001         	goto	l2664
  4807   0003BC                     u2140:
  4808   0003BC                     
  4809                           ;main.c: 333:         drawRect(98, 60, 28, 4);
  4810   0003BC  0E3C               	movlw	60
  4811   0003BE  6E0B               	movwf	drawRect@y^0,c
  4812   0003C0  0E1C               	movlw	28
  4813   0003C2  6E0C               	movwf	drawRect@w^0,c
  4814   0003C4  0E04               	movlw	4
  4815   0003C6  6E0D               	movwf	drawRect@h^0,c
  4816   0003C8  0E62               	movlw	98
  4817   0003CA  EC09  F007         	call	_drawRect
  4818                           
  4819                           ;main.c: 334:         fillRect(99, 61, 26, 2, 1);
  4820   0003CE  0E3D               	movlw	61
  4821   0003D0  6E0B               	movwf	fillRect@y^0,c
  4822   0003D2  0E1A               	movlw	26
  4823   0003D4  6E0C               	movwf	fillRect@w^0,c
  4824   0003D6  0E02               	movlw	2
  4825   0003D8  6E0D               	movwf	fillRect@h^0,c
  4826   0003DA  0E01               	movlw	1
  4827   0003DC  6E0E               	movwf	fillRect@color^0,c
  4828   0003DE  0E63               	movlw	99
  4829   0003E0  EC75  F009         	call	_fillRect
  4830                           
  4831                           ;main.c: 335:     } else {
  4832   0003E4  EF08  F002         	goto	l170
  4833   0003E8                     l2664:
  4834                           
  4835                           ;main.c: 336:         drawRect(98, 60, 28, 4);
  4836   0003E8  0E3C               	movlw	60
  4837   0003EA  6E0B               	movwf	drawRect@y^0,c
  4838   0003EC  0E1C               	movlw	28
  4839   0003EE  6E0C               	movwf	drawRect@w^0,c
  4840   0003F0  0E04               	movlw	4
  4841   0003F2  6E0D               	movwf	drawRect@h^0,c
  4842   0003F4  0E62               	movlw	98
  4843   0003F6  EC09  F007         	call	_drawRect
  4844                           
  4845                           ;main.c: 337:         fillRect(99, 61, 26, 2, 0);
  4846   0003FA  0E3D               	movlw	61
  4847   0003FC  6E0B               	movwf	fillRect@y^0,c
  4848   0003FE  0E1A               	movlw	26
  4849   000400  6E0C               	movwf	fillRect@w^0,c
  4850   000402  0E02               	movlw	2
  4851   000404  6E0D               	movwf	fillRect@h^0,c
  4852   000406  0E00               	movlw	0
  4853   000408  6E0E               	movwf	fillRect@color^0,c
  4854   00040A  0E63               	movlw	99
  4855   00040C  EC75  F009         	call	_fillRect
  4856   000410                     l170:
  4857                           
  4858                           ;main.c: 340:     drawColl(3, Col1, Col1cnt);
  4859   000410  0ED0               	movlw	low _Col1
  4860   000412  6E12               	movwf	drawColl@activeCol^0,c
  4861   000414  C045  F013         	movff	_Col1cnt,drawColl@cnt
  4862   000418  0E03               	movlw	3
  4863   00041A  ECB5  F005         	call	_drawColl
  4864                           
  4865                           ;main.c: 341:     drawColl(34, Col2, Col2cnt);
  4866   00041E  0EB4               	movlw	low _Col2
  4867   000420  6E12               	movwf	drawColl@activeCol^0,c
  4868   000422  C044  F013         	movff	_Col2cnt,drawColl@cnt
  4869   000426  0E22               	movlw	34
  4870   000428  ECB5  F005         	call	_drawColl
  4871                           
  4872                           ;main.c: 342:     drawColl(67, Col3, Col3cnt);
  4873   00042C  0E98               	movlw	low _Col3
  4874   00042E  6E12               	movwf	drawColl@activeCol^0,c
  4875   000430  C043  F013         	movff	_Col3cnt,drawColl@cnt
  4876   000434  0E43               	movlw	67
  4877   000436  ECB5  F005         	call	_drawColl
  4878                           
  4879                           ;main.c: 343:     drawColl(99, Col4, Col4cnt);
  4880   00043A  0E7C               	movlw	low _Col4
  4881   00043C  6E12               	movwf	drawColl@activeCol^0,c
  4882   00043E  C042  F013         	movff	_Col4cnt,drawColl@cnt
  4883   000442  0E63               	movlw	99
  4884   000444  ECB5  F005         	call	_drawColl
  4885   000448                     
  4886                           ;main.c: 346:     utoa32(score, DispCtrStr);
  4887   000448  C03F  F00E         	movff	_score,utoa32@value
  4888   00044C  C040  F00F         	movff	_score+1,utoa32@value+1
  4889   000450  6A10               	clrf	(utoa32@value+2)^0,c
  4890   000452  6A11               	clrf	(utoa32@value+3)^0,c
  4891   000454  0E46               	movlw	low _DispCtrStr
  4892   000456  6E12               	movwf	utoa32@buffer^0,c
  4893   000458  EC31  F005         	call	_utoa32	;wreg free
  4894   00045C                     
  4895                           ;main.c: 347:     drawText(0,0, DispCtrStr);
  4896   00045C  0E00               	movlw	0
  4897   00045E  6E01               	movwf	drawText@column^0,c
  4898   000460  0E46               	movlw	low _DispCtrStr
  4899   000462  6E02               	movwf	drawText@txt^0,c
  4900   000464  0E00               	movlw	0
  4901   000466  EC34  F006         	call	_drawText
  4902   00046A  0012               	return		;funcret
  4903   00046C                     __end_of_drawUi:
  4904                           	callstack 0
  4905                           
  4906 ;; *************** function _utoa32 *****************
  4907 ;; Defined at:
  4908 ;;		line 481 in file "main.c"
  4909 ;; Parameters:    Size  Location     Type
  4910 ;;  value           4   13[COMRAM] unsigned long 
  4911 ;;  buffer          1   17[COMRAM] PTR unsigned char 
  4912 ;;		 -> DispCtrStr(5), 
  4913 ;; Auto vars:     Size  Location     Type
  4914 ;;  temp           10   18[COMRAM] unsigned char [10]
  4915 ;;  i               2   30[COMRAM] int 
  4916 ;;  j               2   28[COMRAM] int 
  4917 ;; Return value:  Size  Location     Type
  4918 ;;                  1   13[COMRAM] PTR unsigned char 
  4919 ;; Registers used:
  4920 ;;		wreg, fsr1l, fsr1h, fsr2l, fsr2h, status,2, status,0, cstack
  4921 ;; Tracked objects:
  4922 ;;		On entry : 0/0
  4923 ;;		On exit  : 0/0
  4924 ;;		Unchanged: 0/0
  4925 ;; Data sizes:     COMRAM   BANK0   BANK1   BANK2   BANK3   BANK4   BANK5   BANK6   BANK7
  4926 ;;      Params:         5       0       0       0       0       0       0       0       0
  4927 ;;      Locals:        14       0       0       0       0       0       0       0       0
  4928 ;;      Temps:          0       0       0       0       0       0       0       0       0
  4929 ;;      Totals:        19       0       0       0       0       0       0       0       0
  4930 ;;Total ram usage:       19 bytes
  4931 ;; Hardware stack levels used: 1
  4932 ;; Hardware stack levels required when called: 2
  4933 ;; This function calls:
  4934 ;;		___lldiv
  4935 ;;		___llmod
  4936 ;; This function is called by:
  4937 ;;		_drawUi
  4938 ;; This function uses a non-reentrant model
  4939 ;;
  4940                           
  4941                           	psect	text28
  4942   000A62                     __ptext28:
  4943                           	callstack 0
  4944   000A62                     _utoa32:
  4945                           	callstack 27
  4946   000A62                     
  4947                           ;main.c: 481: char* utoa32(uint32_t value, char* buffer);main.c: 482: {;main.c: 483:    
      +                           char temp[10];;main.c: 484:     int i = 0;
  4948   000A62  0E00               	movlw	0
  4949   000A64  6E20               	movwf	(utoa32@i+1)^0,c
  4950   000A66  0E00               	movlw	0
  4951   000A68  6E1F               	movwf	utoa32@i^0,c
  4952   000A6A                     
  4953                           ;main.c: 487:     if (value == 0)
  4954   000A6A  500E               	movf	utoa32@value^0,w,c
  4955   000A6C  100F               	iorwf	(utoa32@value+1)^0,w,c
  4956   000A6E  1010               	iorwf	(utoa32@value+2)^0,w,c
  4957   000A70  1011               	iorwf	(utoa32@value+3)^0,w,c
  4958   000A72  A4D8               	btfss	status,2,c
  4959   000A74  EF3E  F005         	goto	u1891
  4960   000A78  EF40  F005         	goto	u1890
  4961   000A7C                     u1891:
  4962   000A7C  EF82  F005         	goto	l2496
  4963   000A80                     u1890:
  4964   000A80                     
  4965                           ;main.c: 488:     {;main.c: 489:         buffer[0] = '0';
  4966   000A80  5012               	movf	utoa32@buffer^0,w,c
  4967   000A82  6ED9               	movwf	fsr2l,c
  4968   000A84  6ADA               	clrf	fsr2h,c
  4969   000A86  0E30               	movlw	48
  4970   000A88  6EDF               	movwf	indf2,c
  4971   000A8A                     
  4972                           ;main.c: 490:         buffer[1] = '\0';
  4973   000A8A  5012               	movf	utoa32@buffer^0,w,c
  4974   000A8C  6ED9               	movwf	fsr2l,c
  4975   000A8E  6ADA               	clrf	fsr2h,c
  4976   000A90  0E01               	movlw	1
  4977   000A92  26D9               	addwf	fsr2l,f,c
  4978   000A94  6ADF               	clrf	indf2,c
  4979   000A96  EFB4  F005         	goto	l207
  4980   000A9A                     l2490:
  4981                           
  4982                           ;main.c: 496:     {;main.c: 497:         temp[i++] = (value % 10) + '0';
  4983   000A9A  501F               	movf	utoa32@i^0,w,c
  4984   000A9C  0F13               	addlw	low utoa32@temp
  4985   000A9E  6ED9               	movwf	fsr2l,c
  4986   000AA0  6ADA               	clrf	fsr2h,c
  4987   000AA2  C00E  F001         	movff	utoa32@value,___llmod@dividend
  4988   000AA6  C00F  F002         	movff	utoa32@value+1,___llmod@dividend+1
  4989   000AAA  C010  F003         	movff	utoa32@value+2,___llmod@dividend+2
  4990   000AAE  C011  F004         	movff	utoa32@value+3,___llmod@dividend+3
  4991   000AB2  0E0A               	movlw	10
  4992   000AB4  6E05               	movwf	___llmod@divisor^0,c
  4993   000AB6  0E00               	movlw	0
  4994   000AB8  6E06               	movwf	(___llmod@divisor+1)^0,c
  4995   000ABA  0E00               	movlw	0
  4996   000ABC  6E07               	movwf	(___llmod@divisor+2)^0,c
  4997   000ABE  0E00               	movlw	0
  4998   000AC0  6E08               	movwf	(___llmod@divisor+3)^0,c
  4999   000AC2  ECF7  F008         	call	___llmod	;wreg free
  5000   000AC6  5001               	movf	?___llmod^0,w,c
  5001   000AC8  0F30               	addlw	48
  5002   000ACA  6EDF               	movwf	indf2,c
  5003   000ACC  4A1F               	infsnz	utoa32@i^0,f,c
  5004   000ACE  2A20               	incf	(utoa32@i+1)^0,f,c
  5005   000AD0                     
  5006                           ;main.c: 498:         value /= 10;
  5007   000AD0  C00E  F001         	movff	utoa32@value,___lldiv@dividend
  5008   000AD4  C00F  F002         	movff	utoa32@value+1,___lldiv@dividend+1
  5009   000AD8  C010  F003         	movff	utoa32@value+2,___lldiv@dividend+2
  5010   000ADC  C011  F004         	movff	utoa32@value+3,___lldiv@dividend+3
  5011   000AE0  0E0A               	movlw	10
  5012   000AE2  6E05               	movwf	___lldiv@divisor^0,c
  5013   000AE4  0E00               	movlw	0
  5014   000AE6  6E06               	movwf	(___lldiv@divisor+1)^0,c
  5015   000AE8  0E00               	movlw	0
  5016   000AEA  6E07               	movwf	(___lldiv@divisor+2)^0,c
  5017   000AEC  0E00               	movlw	0
  5018   000AEE  6E08               	movwf	(___lldiv@divisor+3)^0,c
  5019   000AF0  EC0F  F008         	call	___lldiv	;wreg free
  5020   000AF4  C001  F00E         	movff	?___lldiv,utoa32@value
  5021   000AF8  C002  F00F         	movff	?___lldiv+1,utoa32@value+1
  5022   000AFC  C003  F010         	movff	?___lldiv+2,utoa32@value+2
  5023   000B00  C004  F011         	movff	?___lldiv+3,utoa32@value+3
  5024   000B04                     l2496:
  5025                           
  5026                           ;main.c: 495:     while (value > 0)
  5027   000B04  500E               	movf	utoa32@value^0,w,c
  5028   000B06  100F               	iorwf	(utoa32@value+1)^0,w,c
  5029   000B08  1010               	iorwf	(utoa32@value+2)^0,w,c
  5030   000B0A  1011               	iorwf	(utoa32@value+3)^0,w,c
  5031   000B0C  A4D8               	btfss	status,2,c
  5032   000B0E  EF8B  F005         	goto	u1901
  5033   000B12  EF8D  F005         	goto	u1900
  5034   000B16                     u1901:
  5035   000B16  EF4D  F005         	goto	l2490
  5036   000B1A                     u1900:
  5037   000B1A                     
  5038                           ;main.c: 502:     int j = 0;
  5039   000B1A  0E00               	movlw	0
  5040   000B1C  6E1E               	movwf	(utoa32@j+1)^0,c
  5041   000B1E  0E00               	movlw	0
  5042   000B20  6E1D               	movwf	utoa32@j^0,c
  5043                           
  5044                           ;main.c: 503:     while (i > 0)
  5045   000B22  EFA2  F005         	goto	l2504
  5046   000B26                     l2500:
  5047                           
  5048                           ;main.c: 504:     {;main.c: 505:         buffer[j++] = temp[--i];
  5049   000B26  061F               	decf	utoa32@i^0,f,c
  5050   000B28  A0D8               	btfss	status,0,c
  5051   000B2A  0620               	decf	(utoa32@i+1)^0,f,c
  5052   000B2C  501F               	movf	utoa32@i^0,w,c
  5053   000B2E  0F13               	addlw	low utoa32@temp
  5054   000B30  6ED9               	movwf	fsr2l,c
  5055   000B32  6ADA               	clrf	fsr2h,c
  5056   000B34  5012               	movf	utoa32@buffer^0,w,c
  5057   000B36  241D               	addwf	utoa32@j^0,w,c
  5058   000B38  6EE1               	movwf	fsr1l,c
  5059   000B3A  6AE2               	clrf	fsr1h,c
  5060   000B3C  CFDF FFE7          	movff	indf2,indf1
  5061   000B40  4A1D               	infsnz	utoa32@j^0,f,c
  5062   000B42  2A1E               	incf	(utoa32@j+1)^0,f,c
  5063   000B44                     l2504:
  5064                           
  5065                           ;main.c: 503:     while (i > 0)
  5066   000B44  BE20               	btfsc	(utoa32@i+1)^0,7,c
  5067   000B46  EFAF  F005         	goto	u1910
  5068   000B4A  5020               	movf	(utoa32@i+1)^0,w,c
  5069   000B4C  E106               	bnz	u1911
  5070   000B4E  041F               	decf	utoa32@i^0,w,c
  5071   000B50  B0D8               	btfsc	status,0,c
  5072   000B52  EFAD  F005         	goto	u1911
  5073   000B56  EFAF  F005         	goto	u1910
  5074   000B5A                     u1911:
  5075   000B5A  EF93  F005         	goto	l2500
  5076   000B5E                     u1910:
  5077   000B5E                     
  5078                           ;main.c: 508:     buffer[j] = '\0';
  5079   000B5E  5012               	movf	utoa32@buffer^0,w,c
  5080   000B60  241D               	addwf	utoa32@j^0,w,c
  5081   000B62  6ED9               	movwf	fsr2l,c
  5082   000B64  6ADA               	clrf	fsr2h,c
  5083   000B66  6ADF               	clrf	indf2,c
  5084   000B68                     l207:
  5085   000B68  0012               	return		;funcret
  5086   000B6A                     __end_of_utoa32:
  5087                           	callstack 0
  5088                           
  5089 ;; *************** function ___llmod *****************
  5090 ;; Defined at:
  5091 ;;		line 7 in file "C:\Program Files\Microchip\xc8\v2.50\pic\sources\c99\common\llmod.c"
  5092 ;; Parameters:    Size  Location     Type
  5093 ;;  dividend        4    0[COMRAM] unsigned long 
  5094 ;;  divisor         4    4[COMRAM] unsigned long 
  5095 ;; Auto vars:     Size  Location     Type
  5096 ;;  counter         1    8[COMRAM] unsigned char 
  5097 ;; Return value:  Size  Location     Type
  5098 ;;                  4    0[COMRAM] unsigned long 
  5099 ;; Registers used:
  5100 ;;		wreg, status,2, status,0
  5101 ;; Tracked objects:
  5102 ;;		On entry : 0/0
  5103 ;;		On exit  : 0/0
  5104 ;;		Unchanged: 0/0
  5105 ;; Data sizes:     COMRAM   BANK0   BANK1   BANK2   BANK3   BANK4   BANK5   BANK6   BANK7
  5106 ;;      Params:         8       0       0       0       0       0       0       0       0
  5107 ;;      Locals:         1       0       0       0       0       0       0       0       0
  5108 ;;      Temps:          0       0       0       0       0       0       0       0       0
  5109 ;;      Totals:         9       0       0       0       0       0       0       0       0
  5110 ;;Total ram usage:        9 bytes
  5111 ;; Hardware stack levels used: 1
  5112 ;; Hardware stack levels required when called: 1
  5113 ;; This function calls:
  5114 ;;		Nothing
  5115 ;; This function is called by:
  5116 ;;		_main
  5117 ;;		_utoa32
  5118 ;; This function uses a non-reentrant model
  5119 ;;
  5120                           
  5121                           	psect	text29
  5122   0011EE                     __ptext29:
  5123                           	callstack 0
  5124   0011EE                     ___llmod:
  5125                           	callstack 27
  5126   0011EE  5005               	movf	___llmod@divisor^0,w,c
  5127   0011F0  1006               	iorwf	(___llmod@divisor+1)^0,w,c
  5128   0011F2  1007               	iorwf	(___llmod@divisor+2)^0,w,c
  5129   0011F4  1008               	iorwf	(___llmod@divisor+3)^0,w,c
  5130   0011F6  B4D8               	btfsc	status,2,c
  5131   0011F8  EF00  F009         	goto	u1451
  5132   0011FC  EF02  F009         	goto	u1450
  5133   001200                     u1451:
  5134   001200  EF32  F009         	goto	l798
  5135   001204                     u1450:
  5136   001204  0E01               	movlw	1
  5137   001206  6E09               	movwf	___llmod@counter^0,c
  5138   001208  EF0C  F009         	goto	l2200
  5139   00120C                     l2198:
  5140   00120C  90D8               	bcf	status,0,c
  5141   00120E  3605               	rlcf	___llmod@divisor^0,f,c
  5142   001210  3606               	rlcf	(___llmod@divisor+1)^0,f,c
  5143   001212  3607               	rlcf	(___llmod@divisor+2)^0,f,c
  5144   001214  3608               	rlcf	(___llmod@divisor+3)^0,f,c
  5145   001216  2A09               	incf	___llmod@counter^0,f,c
  5146   001218                     l2200:
  5147   001218  AE08               	btfss	(___llmod@divisor+3)^0,7,c
  5148   00121A  EF11  F009         	goto	u1461
  5149   00121E  EF13  F009         	goto	u1460
  5150   001222                     u1461:
  5151   001222  EF06  F009         	goto	l2198
  5152   001226                     u1460:
  5153   001226                     l2202:
  5154   001226  5005               	movf	___llmod@divisor^0,w,c
  5155   001228  5C01               	subwf	___llmod@dividend^0,w,c
  5156   00122A  5006               	movf	(___llmod@divisor+1)^0,w,c
  5157   00122C  5802               	subwfb	(___llmod@dividend+1)^0,w,c
  5158   00122E  5007               	movf	(___llmod@divisor+2)^0,w,c
  5159   001230  5803               	subwfb	(___llmod@dividend+2)^0,w,c
  5160   001232  5008               	movf	(___llmod@divisor+3)^0,w,c
  5161   001234  5804               	subwfb	(___llmod@dividend+3)^0,w,c
  5162   001236  A0D8               	btfss	status,0,c
  5163   001238  EF20  F009         	goto	u1471
  5164   00123C  EF22  F009         	goto	u1470
  5165   001240                     u1471:
  5166   001240  EF2A  F009         	goto	l2206
  5167   001244                     u1470:
  5168   001244  5005               	movf	___llmod@divisor^0,w,c
  5169   001246  5E01               	subwf	___llmod@dividend^0,f,c
  5170   001248  5006               	movf	(___llmod@divisor+1)^0,w,c
  5171   00124A  5A02               	subwfb	(___llmod@dividend+1)^0,f,c
  5172   00124C  5007               	movf	(___llmod@divisor+2)^0,w,c
  5173   00124E  5A03               	subwfb	(___llmod@dividend+2)^0,f,c
  5174   001250  5008               	movf	(___llmod@divisor+3)^0,w,c
  5175   001252  5A04               	subwfb	(___llmod@dividend+3)^0,f,c
  5176   001254                     l2206:
  5177   001254  90D8               	bcf	status,0,c
  5178   001256  3208               	rrcf	(___llmod@divisor+3)^0,f,c
  5179   001258  3207               	rrcf	(___llmod@divisor+2)^0,f,c
  5180   00125A  3206               	rrcf	(___llmod@divisor+1)^0,f,c
  5181   00125C  3205               	rrcf	___llmod@divisor^0,f,c
  5182   00125E  2E09               	decfsz	___llmod@counter^0,f,c
  5183   001260  EF13  F009         	goto	l2202
  5184   001264                     l798:
  5185   001264  C001  F001         	movff	___llmod@dividend,?___llmod
  5186   001268  C002  F002         	movff	___llmod@dividend+1,?___llmod+1
  5187   00126C  C003  F003         	movff	___llmod@dividend+2,?___llmod+2
  5188   001270  C004  F004         	movff	___llmod@dividend+3,?___llmod+3
  5189   001274  0012               	return		;funcret
  5190   001276                     __end_of___llmod:
  5191                           	callstack 0
  5192                           
  5193 ;; *************** function ___lldiv *****************
  5194 ;; Defined at:
  5195 ;;		line 7 in file "C:\Program Files\Microchip\xc8\v2.50\pic\sources\c99\common\__lldiv.c"
  5196 ;; Parameters:    Size  Location     Type
  5197 ;;  dividend        4    0[COMRAM] unsigned long 
  5198 ;;  divisor         4    4[COMRAM] unsigned long 
  5199 ;; Auto vars:     Size  Location     Type
  5200 ;;  quotient        4    8[COMRAM] unsigned long 
  5201 ;;  counter         1   12[COMRAM] unsigned char 
  5202 ;; Return value:  Size  Location     Type
  5203 ;;                  4    0[COMRAM] unsigned long 
  5204 ;; Registers used:
  5205 ;;		wreg, status,2, status,0
  5206 ;; Tracked objects:
  5207 ;;		On entry : 0/0
  5208 ;;		On exit  : 0/0
  5209 ;;		Unchanged: 0/0
  5210 ;; Data sizes:     COMRAM   BANK0   BANK1   BANK2   BANK3   BANK4   BANK5   BANK6   BANK7
  5211 ;;      Params:         8       0       0       0       0       0       0       0       0
  5212 ;;      Locals:         5       0       0       0       0       0       0       0       0
  5213 ;;      Temps:          0       0       0       0       0       0       0       0       0
  5214 ;;      Totals:        13       0       0       0       0       0       0       0       0
  5215 ;;Total ram usage:       13 bytes
  5216 ;; Hardware stack levels used: 1
  5217 ;; Hardware stack levels required when called: 1
  5218 ;; This function calls:
  5219 ;;		Nothing
  5220 ;; This function is called by:
  5221 ;;		_utoa32
  5222 ;; This function uses a non-reentrant model
  5223 ;;
  5224                           
  5225                           	psect	text30
  5226   00101E                     __ptext30:
  5227                           	callstack 0
  5228   00101E                     ___lldiv:
  5229                           	callstack 27
  5230   00101E  0E00               	movlw	0
  5231   001020  6E09               	movwf	___lldiv@quotient^0,c
  5232   001022  0E00               	movlw	0
  5233   001024  6E0A               	movwf	(___lldiv@quotient+1)^0,c
  5234   001026  0E00               	movlw	0
  5235   001028  6E0B               	movwf	(___lldiv@quotient+2)^0,c
  5236   00102A  0E00               	movlw	0
  5237   00102C  6E0C               	movwf	(___lldiv@quotient+3)^0,c
  5238   00102E  5005               	movf	___lldiv@divisor^0,w,c
  5239   001030  1006               	iorwf	(___lldiv@divisor+1)^0,w,c
  5240   001032  1007               	iorwf	(___lldiv@divisor+2)^0,w,c
  5241   001034  1008               	iorwf	(___lldiv@divisor+3)^0,w,c
  5242   001036  B4D8               	btfsc	status,2,c
  5243   001038  EF20  F008         	goto	u1361
  5244   00103C  EF22  F008         	goto	u1360
  5245   001040                     u1361:
  5246   001040  EF58  F008         	goto	l405
  5247   001044                     u1360:
  5248   001044  0E01               	movlw	1
  5249   001046  6E0D               	movwf	___lldiv@counter^0,c
  5250   001048  EF2C  F008         	goto	l2136
  5251   00104C                     l2134:
  5252   00104C  90D8               	bcf	status,0,c
  5253   00104E  3605               	rlcf	___lldiv@divisor^0,f,c
  5254   001050  3606               	rlcf	(___lldiv@divisor+1)^0,f,c
  5255   001052  3607               	rlcf	(___lldiv@divisor+2)^0,f,c
  5256   001054  3608               	rlcf	(___lldiv@divisor+3)^0,f,c
  5257   001056  2A0D               	incf	___lldiv@counter^0,f,c
  5258   001058                     l2136:
  5259   001058  AE08               	btfss	(___lldiv@divisor+3)^0,7,c
  5260   00105A  EF31  F008         	goto	u1371
  5261   00105E  EF33  F008         	goto	u1370
  5262   001062                     u1371:
  5263   001062  EF26  F008         	goto	l2134
  5264   001066                     u1370:
  5265   001066                     l2138:
  5266   001066  90D8               	bcf	status,0,c
  5267   001068  3609               	rlcf	___lldiv@quotient^0,f,c
  5268   00106A  360A               	rlcf	(___lldiv@quotient+1)^0,f,c
  5269   00106C  360B               	rlcf	(___lldiv@quotient+2)^0,f,c
  5270   00106E  360C               	rlcf	(___lldiv@quotient+3)^0,f,c
  5271   001070  5005               	movf	___lldiv@divisor^0,w,c
  5272   001072  5C01               	subwf	___lldiv@dividend^0,w,c
  5273   001074  5006               	movf	(___lldiv@divisor+1)^0,w,c
  5274   001076  5802               	subwfb	(___lldiv@dividend+1)^0,w,c
  5275   001078  5007               	movf	(___lldiv@divisor+2)^0,w,c
  5276   00107A  5803               	subwfb	(___lldiv@dividend+2)^0,w,c
  5277   00107C  5008               	movf	(___lldiv@divisor+3)^0,w,c
  5278   00107E  5804               	subwfb	(___lldiv@dividend+3)^0,w,c
  5279   001080  A0D8               	btfss	status,0,c
  5280   001082  EF45  F008         	goto	u1381
  5281   001086  EF47  F008         	goto	u1380
  5282   00108A                     u1381:
  5283   00108A  EF50  F008         	goto	l2146
  5284   00108E                     u1380:
  5285   00108E  5005               	movf	___lldiv@divisor^0,w,c
  5286   001090  5E01               	subwf	___lldiv@dividend^0,f,c
  5287   001092  5006               	movf	(___lldiv@divisor+1)^0,w,c
  5288   001094  5A02               	subwfb	(___lldiv@dividend+1)^0,f,c
  5289   001096  5007               	movf	(___lldiv@divisor+2)^0,w,c
  5290   001098  5A03               	subwfb	(___lldiv@dividend+2)^0,f,c
  5291   00109A  5008               	movf	(___lldiv@divisor+3)^0,w,c
  5292   00109C  5A04               	subwfb	(___lldiv@dividend+3)^0,f,c
  5293   00109E  8009               	bsf	___lldiv@quotient^0,0,c
  5294   0010A0                     l2146:
  5295   0010A0  90D8               	bcf	status,0,c
  5296   0010A2  3208               	rrcf	(___lldiv@divisor+3)^0,f,c
  5297   0010A4  3207               	rrcf	(___lldiv@divisor+2)^0,f,c
  5298   0010A6  3206               	rrcf	(___lldiv@divisor+1)^0,f,c
  5299   0010A8  3205               	rrcf	___lldiv@divisor^0,f,c
  5300   0010AA  2E0D               	decfsz	___lldiv@counter^0,f,c
  5301   0010AC  EF33  F008         	goto	l2138
  5302   0010B0                     l405:
  5303   0010B0  C009  F001         	movff	___lldiv@quotient,?___lldiv
  5304   0010B4  C00A  F002         	movff	___lldiv@quotient+1,?___lldiv+1
  5305   0010B8  C00B  F003         	movff	___lldiv@quotient+2,?___lldiv+2
  5306   0010BC  C00C  F004         	movff	___lldiv@quotient+3,?___lldiv+3
  5307   0010C0  0012               	return		;funcret
  5308   0010C2                     __end_of___lldiv:
  5309                           	callstack 0
  5310                           
  5311 ;; *************** function _fillRect *****************
  5312 ;; Defined at:
  5313 ;;		line 267 in file "moduleDogm128.c"
  5314 ;; Parameters:    Size  Location     Type
  5315 ;;  x               1    wreg     unsigned char 
  5316 ;;  y               1   10[COMRAM] unsigned char 
  5317 ;;  w               1   11[COMRAM] unsigned char 
  5318 ;;  h               1   12[COMRAM] unsigned char 
  5319 ;;  color           1   13[COMRAM] unsigned char 
  5320 ;; Auto vars:     Size  Location     Type
  5321 ;;  x               1   14[COMRAM] unsigned char 
  5322 ;;  j               1   16[COMRAM] unsigned char 
  5323 ;;  i               1   15[COMRAM] unsigned char 
  5324 ;; Return value:  Size  Location     Type
  5325 ;;                  1    wreg      void 
  5326 ;; Registers used:
  5327 ;;		wreg, fsr2l, fsr2h, status,2, status,0, prodl, prodh, cstack
  5328 ;; Tracked objects:
  5329 ;;		On entry : 0/0
  5330 ;;		On exit  : 0/0
  5331 ;;		Unchanged: 0/0
  5332 ;; Data sizes:     COMRAM   BANK0   BANK1   BANK2   BANK3   BANK4   BANK5   BANK6   BANK7
  5333 ;;      Params:         4       0       0       0       0       0       0       0       0
  5334 ;;      Locals:         3       0       0       0       0       0       0       0       0
  5335 ;;      Temps:          0       0       0       0       0       0       0       0       0
  5336 ;;      Totals:         7       0       0       0       0       0       0       0       0
  5337 ;;Total ram usage:        7 bytes
  5338 ;; Hardware stack levels used: 1
  5339 ;; Hardware stack levels required when called: 2
  5340 ;; This function calls:
  5341 ;;		_drawPixel
  5342 ;; This function is called by:
  5343 ;;		_drawUi
  5344 ;; This function uses a non-reentrant model
  5345 ;;
  5346                           
  5347                           	psect	text31
  5348   0012EA                     __ptext31:
  5349                           	callstack 0
  5350   0012EA                     _fillRect:
  5351                           	callstack 27
  5352                           
  5353                           ;incstack = 0
  5354                           ;fillRect@x stored from wreg
  5355   0012EA  6E0F               	movwf	fillRect@x^0,c
  5356   0012EC                     
  5357                           ;moduleDogm128.c: 267: void fillRect(uint8_t x, uint8_t y, uint8_t w, uint8_t h, uint8_t
      +                           color);moduleDogm128.c: 268: {;moduleDogm128.c: 270:     if(h>=2 && w>=2 ){
  5358   0012EC  0E01               	movlw	1
  5359   0012EE  640D               	cpfsgt	fillRect@h^0,c
  5360   0012F0  EF7C  F009         	goto	u1851
  5361   0012F4  EF7E  F009         	goto	u1850
  5362   0012F8                     u1851:
  5363   0012F8  EFA9  F009         	goto	l368
  5364   0012FC                     u1850:
  5365   0012FC  0E01               	movlw	1
  5366   0012FE  640C               	cpfsgt	fillRect@w^0,c
  5367   001300  EF84  F009         	goto	u1861
  5368   001304  EF86  F009         	goto	u1860
  5369   001308                     u1861:
  5370   001308  EFA9  F009         	goto	l368
  5371   00130C                     u1860:
  5372   00130C                     
  5373                           ;moduleDogm128.c: 271:         for (uint8_t i = 0; i < h; i++)
  5374   00130C  6A10               	clrf	fillRect@i^0,c
  5375   00130E  EFA0  F009         	goto	l2478
  5376   001312                     l363:
  5377                           
  5378                           ;moduleDogm128.c: 272:         {;moduleDogm128.c: 273:             for (uint8_t j = 0; j
      +                           < w; j++)
  5379   001312  6A11               	clrf	fillRect@j^0,c
  5380   001314  EF96  F009         	goto	l2474
  5381   001318                     l2470:
  5382                           
  5383                           ;moduleDogm128.c: 274:             {;moduleDogm128.c: 275:                 drawPixel(x +
      +                           j, y + i, color);
  5384   001318  500B               	movf	fillRect@y^0,w,c
  5385   00131A  2410               	addwf	fillRect@i^0,w,c
  5386   00131C  6E01               	movwf	drawPixel@y^0,c
  5387   00131E  C00E  F002         	movff	fillRect@color,drawPixel@color
  5388   001322  500F               	movf	fillRect@x^0,w,c
  5389   001324  2411               	addwf	fillRect@j^0,w,c
  5390   001326  ECA9  F006         	call	_drawPixel
  5391   00132A                     
  5392                           ;moduleDogm128.c: 276:             }
  5393   00132A  2A11               	incf	fillRect@j^0,f,c
  5394   00132C                     l2474:
  5395   00132C  500C               	movf	fillRect@w^0,w,c
  5396   00132E  5C11               	subwf	fillRect@j^0,w,c
  5397   001330  A0D8               	btfss	status,0,c
  5398   001332  EF9D  F009         	goto	u1871
  5399   001336  EF9F  F009         	goto	u1870
  5400   00133A                     u1871:
  5401   00133A  EF8C  F009         	goto	l2470
  5402   00133E                     u1870:
  5403   00133E                     
  5404                           ;moduleDogm128.c: 277:         }
  5405   00133E  2A10               	incf	fillRect@i^0,f,c
  5406   001340                     l2478:
  5407   001340  500D               	movf	fillRect@h^0,w,c
  5408   001342  5C10               	subwf	fillRect@i^0,w,c
  5409   001344  A0D8               	btfss	status,0,c
  5410   001346  EFA7  F009         	goto	u1881
  5411   00134A  EFA9  F009         	goto	u1880
  5412   00134E                     u1881:
  5413   00134E  EF89  F009         	goto	l363
  5414   001352                     u1880:
  5415   001352                     l368:
  5416   001352  0012               	return		;funcret
  5417   001354                     __end_of_fillRect:
  5418                           	callstack 0
  5419                           
  5420 ;; *************** function _drawText *****************
  5421 ;; Defined at:
  5422 ;;		line 168 in file "moduleDogm128.c"
  5423 ;; Parameters:    Size  Location     Type
  5424 ;;  page            1    wreg     unsigned char 
  5425 ;;  column          1    0[COMRAM] unsigned char 
  5426 ;;  txt             1    1[COMRAM] PTR const unsigned char 
  5427 ;;		 -> DispCtrStr(5), 
  5428 ;; Auto vars:     Size  Location     Type
  5429 ;;  page            1    7[COMRAM] unsigned char 
  5430 ;;  col             1    9[COMRAM] unsigned char 
  5431 ;;  i               1    8[COMRAM] unsigned char 
  5432 ;;  c               1    6[COMRAM] unsigned char 
  5433 ;;  x               1    5[COMRAM] unsigned char 
  5434 ;;  d               1    4[COMRAM] unsigned char 
  5435 ;; Return value:  Size  Location     Type
  5436 ;;                  1    wreg      void 
  5437 ;; Registers used:
  5438 ;;		wreg, fsr2l, fsr2h, status,2, status,0, tblptrl, tblptrh, tblptru, prodl, prodh
  5439 ;; Tracked objects:
  5440 ;;		On entry : 0/0
  5441 ;;		On exit  : 0/0
  5442 ;;		Unchanged: 0/0
  5443 ;; Data sizes:     COMRAM   BANK0   BANK1   BANK2   BANK3   BANK4   BANK5   BANK6   BANK7
  5444 ;;      Params:         2       0       0       0       0       0       0       0       0
  5445 ;;      Locals:         6       0       0       0       0       0       0       0       0
  5446 ;;      Temps:          2       0       0       0       0       0       0       0       0
  5447 ;;      Totals:        10       0       0       0       0       0       0       0       0
  5448 ;;Total ram usage:       10 bytes
  5449 ;; Hardware stack levels used: 1
  5450 ;; Hardware stack levels required when called: 1
  5451 ;; This function calls:
  5452 ;;		Nothing
  5453 ;; This function is called by:
  5454 ;;		_drawUi
  5455 ;; This function uses a non-reentrant model
  5456 ;;
  5457                           
  5458                           	psect	text32
  5459   000C68                     __ptext32:
  5460                           	callstack 0
  5461   000C68                     _drawText:
  5462                           	callstack 28
  5463                           
  5464                           ;incstack = 0
  5465                           ;drawText@page stored from wreg
  5466   000C68  6E08               	movwf	drawText@page^0,c
  5467   000C6A                     
  5468                           ;moduleDogm128.c: 168: void drawText(uint8_t page, uint8_t column, const char* txt);modu
      +                          leDogm128.c: 169: {;moduleDogm128.c: 170:     uint8_t c, i, d, x;;moduleDogm128.c: 171: 
      +                              uint8_t col = column;
  5469   000C6A  C001  F00A         	movff	drawText@column,drawText@col
  5470   000C6E                     
  5471                           ;moduleDogm128.c: 173:     if (page > 7 || column > 127) return;
  5472   000C6E  0E08               	movlw	8
  5473   000C70  6008               	cpfslt	drawText@page^0,c
  5474   000C72  EF3D  F006         	goto	u1921
  5475   000C76  EF3F  F006         	goto	u1920
  5476   000C7A                     u1921:
  5477   000C7A  EFA8  F006         	goto	l310
  5478   000C7E                     u1920:
  5479   000C7E  0E7F               	movlw	127
  5480   000C80  6401               	cpfsgt	drawText@column^0,c
  5481   000C82  EF45  F006         	goto	u1931
  5482   000C86  EF47  F006         	goto	u1930
  5483   000C8A                     u1931:
  5484   000C8A  EF49  F006         	goto	l307
  5485   000C8E                     u1930:
  5486   000C8E  EFA8  F006         	goto	l310
  5487   000C92                     l307:
  5488                           
  5489                           ;moduleDogm128.c: 175:     for (c = 0; txt[c] != '\0'; c++)
  5490   000C92  6A07               	clrf	drawText@c^0,c
  5491   000C94  EF9C  F006         	goto	l2544
  5492   000C98                     l2516:
  5493                           
  5494                           ;moduleDogm128.c: 176:     {;moduleDogm128.c: 177:         if (col > 122) break;
  5495   000C98  0E7A               	movlw	122
  5496   000C9A  640A               	cpfsgt	drawText@col^0,c
  5497   000C9C  EF52  F006         	goto	u1941
  5498   000CA0  EF54  F006         	goto	u1940
  5499   000CA4                     u1941:
  5500   000CA4  EF56  F006         	goto	l2520
  5501   000CA8                     u1940:
  5502   000CA8  EFA8  F006         	goto	l310
  5503   000CAC                     l2520:
  5504                           
  5505                           ;moduleDogm128.c: 179:         x = txt[c] - 0x20;
  5506   000CAC  5002               	movf	drawText@txt^0,w,c
  5507   000CAE  2407               	addwf	drawText@c^0,w,c
  5508   000CB0  6ED9               	movwf	fsr2l,c
  5509   000CB2  6ADA               	clrf	fsr2h,c
  5510   000CB4  50DF               	movf	indf2,w,c
  5511   000CB6  0FE0               	addlw	224
  5512   000CB8  6E06               	movwf	drawText@x^0,c
  5513   000CBA                     
  5514                           ;moduleDogm128.c: 182:         for (i = 0; i < 5; i++)
  5515   000CBA  6A09               	clrf	drawText@i^0,c
  5516   000CBC                     l2528:
  5517                           
  5518                           ;moduleDogm128.c: 183:         {;moduleDogm128.c: 184:             d = font5x7[x][i];
  5519   000CBC  5006               	movf	drawText@x^0,w,c
  5520   000CBE  0D05               	mullw	5
  5521   000CC0  0EED               	movlw	low _font5x7
  5522   000CC2  24F3               	addwf	243,w,c
  5523   000CC4  6E03               	movwf	??_drawText^0,c
  5524   000CC6  0E7D               	movlw	high _font5x7
  5525   000CC8  20F4               	addwfc	prodh,w,c
  5526   000CCA  6E04               	movwf	(??_drawText+1)^0,c
  5527   000CCC  5009               	movf	drawText@i^0,w,c
  5528   000CCE  2603               	addwf	??_drawText^0,f,c
  5529   000CD0  0E00               	movlw	0
  5530   000CD2  2204               	addwfc	(??_drawText+1)^0,f,c
  5531   000CD4  C003  FFF6         	movff	??_drawText,tblptrl
  5532   000CD8  C004  FFF7         	movff	??_drawText+1,tblptrh
  5533   000CDC                     	if	0	;tblptru may be non-zero
  5534   000CDC                     	endif
  5535   000CDC                     	if	0	;tblptru may be non-zero
  5536   000CDC                     	endif
  5537   000CDC  0008               	tblrd		*
  5538   000CDE  CFF5 F005          	movff	tablat,drawText@d
  5539   000CE2                     
  5540                           ;moduleDogm128.c: 185:             displayBuffer[page][col++] = d;
  5541   000CE2  5008               	movf	drawText@page^0,w,c
  5542   000CE4  0D80               	mullw	128
  5543   000CE6  0EEC               	movlw	low _displayBuffer
  5544   000CE8  24F3               	addwf	243,w,c
  5545   000CEA  6E03               	movwf	??_drawText^0,c
  5546   000CEC  0E00               	movlw	high _displayBuffer
  5547   000CEE  20F4               	addwfc	prodh,w,c
  5548   000CF0  6E04               	movwf	(??_drawText+1)^0,c
  5549   000CF2  500A               	movf	drawText@col^0,w,c
  5550   000CF4  2403               	addwf	??_drawText^0,w,c
  5551   000CF6  6ED9               	movwf	fsr2l,c
  5552   000CF8  0E00               	movlw	0
  5553   000CFA  2004               	addwfc	(??_drawText+1)^0,w,c
  5554   000CFC  6EDA               	movwf	fsr2h,c
  5555   000CFE  C005  FFDF         	movff	drawText@d,indf2
  5556   000D02  2A0A               	incf	drawText@col^0,f,c
  5557   000D04                     
  5558                           ;moduleDogm128.c: 186:         }
  5559   000D04  2A09               	incf	drawText@i^0,f,c
  5560   000D06  0E04               	movlw	4
  5561   000D08  6409               	cpfsgt	drawText@i^0,c
  5562   000D0A  EF89  F006         	goto	u1951
  5563   000D0E  EF8B  F006         	goto	u1950
  5564   000D12                     u1951:
  5565   000D12  EF5E  F006         	goto	l2528
  5566   000D16                     u1950:
  5567   000D16                     
  5568                           ;moduleDogm128.c: 189:         displayBuffer[page][col++] = 0x00;
  5569   000D16  5008               	movf	drawText@page^0,w,c
  5570   000D18  0D80               	mullw	128
  5571   000D1A  0EEC               	movlw	low _displayBuffer
  5572   000D1C  24F3               	addwf	243,w,c
  5573   000D1E  6E03               	movwf	??_drawText^0,c
  5574   000D20  0E00               	movlw	high _displayBuffer
  5575   000D22  20F4               	addwfc	prodh,w,c
  5576   000D24  6E04               	movwf	(??_drawText+1)^0,c
  5577   000D26  500A               	movf	drawText@col^0,w,c
  5578   000D28  2403               	addwf	??_drawText^0,w,c
  5579   000D2A  6ED9               	movwf	fsr2l,c
  5580   000D2C  0E00               	movlw	0
  5581   000D2E  2004               	addwfc	(??_drawText+1)^0,w,c
  5582   000D30  6EDA               	movwf	fsr2h,c
  5583   000D32  6ADF               	clrf	indf2,c
  5584   000D34  2A0A               	incf	drawText@col^0,f,c
  5585   000D36                     
  5586                           ;moduleDogm128.c: 190:     }
  5587   000D36  2A07               	incf	drawText@c^0,f,c
  5588   000D38                     l2544:
  5589   000D38  5002               	movf	drawText@txt^0,w,c
  5590   000D3A  2407               	addwf	drawText@c^0,w,c
  5591   000D3C  6ED9               	movwf	fsr2l,c
  5592   000D3E  6ADA               	clrf	fsr2h,c
  5593   000D40  50DF               	movf	indf2,w,c
  5594   000D42  A4D8               	btfss	status,2,c
  5595   000D44  EFA6  F006         	goto	u1961
  5596   000D48  EFA8  F006         	goto	u1960
  5597   000D4C                     u1961:
  5598   000D4C  EF4C  F006         	goto	l2516
  5599   000D50                     u1960:
  5600   000D50                     l310:
  5601   000D50  0012               	return		;funcret
  5602   000D52                     __end_of_drawText:
  5603                           	callstack 0
  5604                           
  5605 ;; *************** function _drawColl *****************
  5606 ;; Defined at:
  5607 ;;		line 294 in file "main.c"
  5608 ;; Parameters:    Size  Location     Type
  5609 ;;  x               1    wreg     unsigned char 
  5610 ;;  activeCol       1   17[COMRAM] PTR struct tile
  5611 ;;		 -> Col4(28), Col3(28), Col2(28), Col1(28), 
  5612 ;;  cnt             1   18[COMRAM] unsigned char 
  5613 ;; Auto vars:     Size  Location     Type
  5614 ;;  x               1   27[COMRAM] unsigned char 
  5615 ;;  dt              4   23[COMRAM] long 
  5616 ;;  y               2   29[COMRAM] short 
  5617 ;;  height          1   28[COMRAM] unsigned char 
  5618 ;;  i               1   31[COMRAM] unsigned char 
  5619 ;; Return value:  Size  Location     Type
  5620 ;;                  1    wreg      void 
  5621 ;; Registers used:
  5622 ;;		wreg, fsr2l, fsr2h, status,2, status,0, prodl, prodh, cstack
  5623 ;; Tracked objects:
  5624 ;;		On entry : 0/0
  5625 ;;		On exit  : 0/0
  5626 ;;		Unchanged: 0/0
  5627 ;; Data sizes:     COMRAM   BANK0   BANK1   BANK2   BANK3   BANK4   BANK5   BANK6   BANK7
  5628 ;;      Params:         2       0       0       0       0       0       0       0       0
  5629 ;;      Locals:         9       0       0       0       0       0       0       0       0
  5630 ;;      Temps:          4       0       0       0       0       0       0       0       0
  5631 ;;      Totals:        15       0       0       0       0       0       0       0       0
  5632 ;;Total ram usage:       15 bytes
  5633 ;; Hardware stack levels used: 1
  5634 ;; Hardware stack levels required when called: 3
  5635 ;; This function calls:
  5636 ;;		___aldiv
  5637 ;;		___lwdiv
  5638 ;;		_drawRect
  5639 ;; This function is called by:
  5640 ;;		_drawUi
  5641 ;; This function uses a non-reentrant model
  5642 ;;
  5643                           
  5644                           	psect	text33
  5645   000B6A                     __ptext33:
  5646                           	callstack 0
  5647   000B6A                     _drawColl:
  5648                           	callstack 26
  5649                           
  5650                           ;incstack = 0
  5651                           ;drawColl@x stored from wreg
  5652   000B6A  6E1C               	movwf	drawColl@x^0,c
  5653   000B6C                     
  5654                           ;main.c: 295:     for(uint8_t i=0; i<cnt; i++){
  5655   000B6C  6A20               	clrf	drawColl@i^0,c
  5656   000B6E  EF2A  F006         	goto	l2462
  5657   000B72                     l2450:
  5658                           
  5659                           ;main.c: 296:         int32_t dt = millis - activeCol[i].start;
  5660   000B72  5020               	movf	drawColl@i^0,w,c
  5661   000B74  0D07               	mullw	7
  5662   000B76  5012               	movf	drawColl@activeCol^0,w,c
  5663   000B78  24F3               	addwf	243,w,c
  5664   000B7A  6ED9               	movwf	fsr2l,c
  5665   000B7C  6ADA               	clrf	fsr2h,c
  5666   000B7E  CFDE F014          	movff	postinc2,??_drawColl
  5667   000B82  CFDE F015          	movff	postinc2,??_drawColl+1
  5668   000B86  CFDE F016          	movff	postinc2,??_drawColl+2
  5669   000B8A  CFDE F017          	movff	postinc2,??_drawColl+3
  5670   000B8E  5014               	movf	??_drawColl^0,w,c
  5671   000B90  5C2D               	subwf	_millis^0,w,c	;volatile
  5672   000B92  6E18               	movwf	drawColl@dt^0,c
  5673   000B94  5015               	movf	(??_drawColl+1)^0,w,c
  5674   000B96  582E               	subwfb	(_millis+1)^0,w,c	;volatile
  5675   000B98  6E19               	movwf	(drawColl@dt+1)^0,c
  5676   000B9A  5016               	movf	(??_drawColl+2)^0,w,c
  5677   000B9C  582F               	subwfb	(_millis+2)^0,w,c	;volatile
  5678   000B9E  6E1A               	movwf	(drawColl@dt+2)^0,c
  5679   000BA0  5017               	movf	(??_drawColl+3)^0,w,c
  5680   000BA2  5830               	subwfb	(_millis+3)^0,w,c	;volatile
  5681   000BA4  6E1B               	movwf	(drawColl@dt+3)^0,c
  5682   000BA6                     
  5683                           ;main.c: 298:         int16_t y = dt / 100 + 60;
  5684   000BA6  C018  F001         	movff	drawColl@dt,___aldiv@dividend
  5685   000BAA  C019  F002         	movff	drawColl@dt+1,___aldiv@dividend+1
  5686   000BAE  C01A  F003         	movff	drawColl@dt+2,___aldiv@dividend+2
  5687   000BB2  C01B  F004         	movff	drawColl@dt+3,___aldiv@dividend+3
  5688   000BB6  0E64               	movlw	100
  5689   000BB8  6E05               	movwf	___aldiv@divisor^0,c
  5690   000BBA  0E00               	movlw	0
  5691   000BBC  6E06               	movwf	(___aldiv@divisor+1)^0,c
  5692   000BBE  0E00               	movlw	0
  5693   000BC0  6E07               	movwf	(___aldiv@divisor+2)^0,c
  5694   000BC2  0E00               	movlw	0
  5695   000BC4  6E08               	movwf	(___aldiv@divisor+3)^0,c
  5696   000BC6  ECAC  F004         	call	___aldiv	;wreg free
  5697   000BCA  0E3C               	movlw	60
  5698   000BCC  2401               	addwf	?___aldiv^0,w,c
  5699   000BCE  6E1E               	movwf	drawColl@y^0,c
  5700   000BD0  0E00               	movlw	0
  5701   000BD2  2002               	addwfc	(?___aldiv+1)^0,w,c
  5702   000BD4  6E1F               	movwf	(drawColl@y+1)^0,c
  5703   000BD6                     
  5704                           ;main.c: 299:         uint8_t height = activeCol[i].len / 100;
  5705   000BD6  5020               	movf	drawColl@i^0,w,c
  5706   000BD8  0D07               	mullw	7
  5707   000BDA  5012               	movf	drawColl@activeCol^0,w,c
  5708   000BDC  24F3               	addwf	243,w,c
  5709   000BDE  6ED9               	movwf	fsr2l,c
  5710   000BE0  6ADA               	clrf	fsr2h,c
  5711   000BE2  0E04               	movlw	4
  5712   000BE4  26D9               	addwf	fsr2l,f,c
  5713   000BE6  CFDE F001          	movff	postinc2,___lwdiv@dividend
  5714   000BEA  CFDD F002          	movff	postdec2,___lwdiv@dividend+1
  5715   000BEE  0E00               	movlw	0
  5716   000BF0  6E04               	movwf	(___lwdiv@divisor+1)^0,c
  5717   000BF2  0E64               	movlw	100
  5718   000BF4  6E03               	movwf	___lwdiv@divisor^0,c
  5719   000BF6  EC3B  F009         	call	___lwdiv	;wreg free
  5720   000BFA  5001               	movf	?___lwdiv^0,w,c
  5721   000BFC  6E1D               	movwf	drawColl@height^0,c
  5722                           
  5723                           ;main.c: 301:         if (y < 64 && (y + height) > 0){
  5724   000BFE  BE1F               	btfsc	(drawColl@y+1)^0,7,c
  5725   000C00  EF0D  F006         	goto	u1820
  5726   000C04  501F               	movf	(drawColl@y+1)^0,w,c
  5727   000C06  E107               	bnz	u1821
  5728   000C08  0E40               	movlw	64
  5729   000C0A  5C1E               	subwf	drawColl@y^0,w,c
  5730   000C0C  B0D8               	btfsc	status,0,c
  5731   000C0E  EF0B  F006         	goto	u1821
  5732   000C12  EF0D  F006         	goto	u1820
  5733   000C16                     u1821:
  5734   000C16  EF29  F006         	goto	l2460
  5735   000C1A                     u1820:
  5736   000C1A  501D               	movf	drawColl@height^0,w,c
  5737   000C1C  241E               	addwf	drawColl@y^0,w,c
  5738   000C1E  6E14               	movwf	??_drawColl^0,c
  5739   000C20  0E00               	movlw	0
  5740   000C22  201F               	addwfc	(drawColl@y+1)^0,w,c
  5741   000C24  6E15               	movwf	(??_drawColl+1)^0,c
  5742   000C26  BE15               	btfsc	(??_drawColl+1)^0,7,c
  5743   000C28  EF1E  F006         	goto	u1831
  5744   000C2C  5015               	movf	(??_drawColl+1)^0,w,c
  5745   000C2E  E108               	bnz	u1830
  5746   000C30  0414               	decf	??_drawColl^0,w,c
  5747   000C32  A0D8               	btfss	status,0,c
  5748   000C34  EF1E  F006         	goto	u1831
  5749   000C38  EF20  F006         	goto	u1830
  5750   000C3C                     u1831:
  5751   000C3C  EF29  F006         	goto	l2460
  5752   000C40                     u1830:
  5753   000C40                     
  5754                           ;main.c: 302:             drawRect(x, y, 26, height);
  5755   000C40  C01E  F00B         	movff	drawColl@y,drawRect@y
  5756   000C44  0E1A               	movlw	26
  5757   000C46  6E0C               	movwf	drawRect@w^0,c
  5758   000C48  C01D  F00D         	movff	drawColl@height,drawRect@h
  5759   000C4C  501C               	movf	drawColl@x^0,w,c
  5760   000C4E  EC09  F007         	call	_drawRect
  5761   000C52                     l2460:
  5762                           
  5763                           ;main.c: 304:     }
  5764   000C52  2A20               	incf	drawColl@i^0,f,c
  5765   000C54                     l2462:
  5766   000C54  5013               	movf	drawColl@cnt^0,w,c
  5767   000C56  5C20               	subwf	drawColl@i^0,w,c
  5768   000C58  A0D8               	btfss	status,0,c
  5769   000C5A  EF31  F006         	goto	u1841
  5770   000C5E  EF33  F006         	goto	u1840
  5771   000C62                     u1841:
  5772   000C62  EFB9  F005         	goto	l2450
  5773   000C66                     u1840:
  5774   000C66  0012               	return		;funcret
  5775   000C68                     __end_of_drawColl:
  5776                           	callstack 0
  5777                           
  5778 ;; *************** function _drawRect *****************
  5779 ;; Defined at:
  5780 ;;		line 249 in file "moduleDogm128.c"
  5781 ;; Parameters:    Size  Location     Type
  5782 ;;  x               1    wreg     unsigned char 
  5783 ;;  y               1   10[COMRAM] unsigned char 
  5784 ;;  w               1   11[COMRAM] unsigned char 
  5785 ;;  h               1   12[COMRAM] unsigned char 
  5786 ;; Auto vars:     Size  Location     Type
  5787 ;;  x               1   16[COMRAM] unsigned char 
  5788 ;;  i               1   15[COMRAM] unsigned char 
  5789 ;;  i               1   14[COMRAM] unsigned char 
  5790 ;; Return value:  Size  Location     Type
  5791 ;;                  1    wreg      void 
  5792 ;; Registers used:
  5793 ;;		wreg, fsr2l, fsr2h, status,2, status,0, prodl, prodh, cstack
  5794 ;; Tracked objects:
  5795 ;;		On entry : 0/0
  5796 ;;		On exit  : 0/0
  5797 ;;		Unchanged: 0/0
  5798 ;; Data sizes:     COMRAM   BANK0   BANK1   BANK2   BANK3   BANK4   BANK5   BANK6   BANK7
  5799 ;;      Params:         3       0       0       0       0       0       0       0       0
  5800 ;;      Locals:         3       0       0       0       0       0       0       0       0
  5801 ;;      Temps:          1       0       0       0       0       0       0       0       0
  5802 ;;      Totals:         7       0       0       0       0       0       0       0       0
  5803 ;;Total ram usage:        7 bytes
  5804 ;; Hardware stack levels used: 1
  5805 ;; Hardware stack levels required when called: 2
  5806 ;; This function calls:
  5807 ;;		_drawPixel
  5808 ;; This function is called by:
  5809 ;;		_drawColl
  5810 ;;		_drawUi
  5811 ;; This function uses a non-reentrant model
  5812 ;;
  5813                           
  5814                           	psect	text34
  5815   000E12                     __ptext34:
  5816                           	callstack 0
  5817   000E12                     _drawRect:
  5818                           	callstack 27
  5819                           
  5820                           ;incstack = 0
  5821                           ;drawRect@x stored from wreg
  5822   000E12  6E11               	movwf	drawRect@x^0,c
  5823   000E14                     
  5824                           ;moduleDogm128.c: 249: void drawRect(uint8_t x, uint8_t y, uint8_t w, uint8_t h);moduleD
      +                          ogm128.c: 250: {;moduleDogm128.c: 252:     if(x <=128 && y <= 128 && x)
  5825   000E14  0E81               	movlw	129
  5826   000E16  6011               	cpfslt	drawRect@x^0,c
  5827   000E18  EF10  F007         	goto	u1301
  5828   000E1C  EF12  F007         	goto	u1300
  5829   000E20                     u1301:
  5830   000E20  EF42  F007         	goto	l351
  5831   000E24                     u1300:
  5832   000E24  0E81               	movlw	129
  5833   000E26  600B               	cpfslt	drawRect@y^0,c
  5834   000E28  EF18  F007         	goto	u1311
  5835   000E2C  EF1A  F007         	goto	u1310
  5836   000E30                     u1311:
  5837   000E30  EF42  F007         	goto	l351
  5838   000E34                     u1310:
  5839   000E34  5011               	movf	drawRect@x^0,w,c
  5840   000E36  B4D8               	btfsc	status,2,c
  5841   000E38  EF20  F007         	goto	u1321
  5842   000E3C  EF22  F007         	goto	u1320
  5843   000E40                     u1321:
  5844   000E40  EF42  F007         	goto	l351
  5845   000E44                     u1320:
  5846   000E44                     
  5847                           ;moduleDogm128.c: 253:     for (uint8_t i = 0; i < w; i++)
  5848   000E44  6A0F               	clrf	drawRect@i^0,c
  5849   000E46  EF39  F007         	goto	l2106
  5850   000E4A                     l2102:
  5851                           
  5852                           ;moduleDogm128.c: 254:     {;moduleDogm128.c: 255:         drawPixel(x + i, y, 1);
  5853   000E4A  C00B  F001         	movff	drawRect@y,drawPixel@y
  5854   000E4E  0E01               	movlw	1
  5855   000E50  6E02               	movwf	drawPixel@color^0,c
  5856   000E52  5011               	movf	drawRect@x^0,w,c
  5857   000E54  240F               	addwf	drawRect@i^0,w,c
  5858   000E56  ECA9  F006         	call	_drawPixel
  5859                           
  5860                           ;moduleDogm128.c: 256:         drawPixel(x + i, y + h - 1, 1);
  5861   000E5A  500B               	movf	drawRect@y^0,w,c
  5862   000E5C  240D               	addwf	drawRect@h^0,w,c
  5863   000E5E  6E0E               	movwf	??_drawRect^0,c
  5864   000E60  040E               	decf	??_drawRect^0,w,c
  5865   000E62  6E01               	movwf	drawPixel@y^0,c
  5866   000E64  0E01               	movlw	1
  5867   000E66  6E02               	movwf	drawPixel@color^0,c
  5868   000E68  5011               	movf	drawRect@x^0,w,c
  5869   000E6A  240F               	addwf	drawRect@i^0,w,c
  5870   000E6C  ECA9  F006         	call	_drawPixel
  5871   000E70                     
  5872                           ;moduleDogm128.c: 257:     }
  5873   000E70  2A0F               	incf	drawRect@i^0,f,c
  5874   000E72                     l2106:
  5875   000E72  500C               	movf	drawRect@w^0,w,c
  5876   000E74  5C0F               	subwf	drawRect@i^0,w,c
  5877   000E76  A0D8               	btfss	status,0,c
  5878   000E78  EF40  F007         	goto	u1331
  5879   000E7C  EF42  F007         	goto	u1330
  5880   000E80                     u1331:
  5881   000E80  EF25  F007         	goto	l2102
  5882   000E84                     u1330:
  5883   000E84                     l351:
  5884                           
  5885                           ;moduleDogm128.c: 260:     for (uint8_t i = 0; i < h; i++)
  5886   000E84  6A10               	clrf	drawRect@i_618^0,c
  5887   000E86  EF59  F007         	goto	l2112
  5888   000E8A                     l2108:
  5889                           
  5890                           ;moduleDogm128.c: 261:     {;moduleDogm128.c: 262:         drawPixel(x, y + i, 1);
  5891   000E8A  500B               	movf	drawRect@y^0,w,c
  5892   000E8C  2410               	addwf	drawRect@i_618^0,w,c
  5893   000E8E  6E01               	movwf	drawPixel@y^0,c
  5894   000E90  0E01               	movlw	1
  5895   000E92  6E02               	movwf	drawPixel@color^0,c
  5896   000E94  5011               	movf	drawRect@x^0,w,c
  5897   000E96  ECA9  F006         	call	_drawPixel
  5898                           
  5899                           ;moduleDogm128.c: 263:         drawPixel(x + w - 1, y + i, 1);
  5900   000E9A  500B               	movf	drawRect@y^0,w,c
  5901   000E9C  2410               	addwf	drawRect@i_618^0,w,c
  5902   000E9E  6E01               	movwf	drawPixel@y^0,c
  5903   000EA0  0E01               	movlw	1
  5904   000EA2  6E02               	movwf	drawPixel@color^0,c
  5905   000EA4  5011               	movf	drawRect@x^0,w,c
  5906   000EA6  240C               	addwf	drawRect@w^0,w,c
  5907   000EA8  6E0E               	movwf	??_drawRect^0,c
  5908   000EAA  040E               	decf	??_drawRect^0,w,c
  5909   000EAC  ECA9  F006         	call	_drawPixel
  5910   000EB0                     
  5911                           ;moduleDogm128.c: 264:     }
  5912   000EB0  2A10               	incf	drawRect@i_618^0,f,c
  5913   000EB2                     l2112:
  5914   000EB2  500D               	movf	drawRect@h^0,w,c
  5915   000EB4  5C10               	subwf	drawRect@i_618^0,w,c
  5916   000EB6  A0D8               	btfss	status,0,c
  5917   000EB8  EF60  F007         	goto	u1341
  5918   000EBC  EF62  F007         	goto	u1340
  5919   000EC0                     u1341:
  5920   000EC0  EF45  F007         	goto	l2108
  5921   000EC4                     u1340:
  5922   000EC4  0012               	return		;funcret
  5923   000EC6                     __end_of_drawRect:
  5924                           	callstack 0
  5925                           
  5926 ;; *************** function _drawPixel *****************
  5927 ;; Defined at:
  5928 ;;		line 207 in file "moduleDogm128.c"
  5929 ;; Parameters:    Size  Location     Type
  5930 ;;  x               1    wreg     unsigned char 
  5931 ;;  y               1    0[COMRAM] unsigned char 
  5932 ;;  color           1    1[COMRAM] unsigned char 
  5933 ;; Auto vars:     Size  Location     Type
  5934 ;;  x               1    9[COMRAM] unsigned char 
  5935 ;;  bit             1    8[COMRAM] unsigned char 
  5936 ;;  page            1    7[COMRAM] unsigned char 
  5937 ;; Return value:  Size  Location     Type
  5938 ;;                  1    wreg      void 
  5939 ;; Registers used:
  5940 ;;		wreg, fsr2l, fsr2h, status,2, status,0, prodl, prodh
  5941 ;; Tracked objects:
  5942 ;;		On entry : 0/0
  5943 ;;		On exit  : 0/0
  5944 ;;		Unchanged: 0/0
  5945 ;; Data sizes:     COMRAM   BANK0   BANK1   BANK2   BANK3   BANK4   BANK5   BANK6   BANK7
  5946 ;;      Params:         2       0       0       0       0       0       0       0       0
  5947 ;;      Locals:         3       0       0       0       0       0       0       0       0
  5948 ;;      Temps:          5       0       0       0       0       0       0       0       0
  5949 ;;      Totals:        10       0       0       0       0       0       0       0       0
  5950 ;;Total ram usage:       10 bytes
  5951 ;; Hardware stack levels used: 1
  5952 ;; Hardware stack levels required when called: 1
  5953 ;; This function calls:
  5954 ;;		Nothing
  5955 ;; This function is called by:
  5956 ;;		_drawRect
  5957 ;;		_fillRect
  5958 ;;		_drawLine
  5959 ;; This function uses a non-reentrant model
  5960 ;;
  5961                           
  5962                           	psect	text35
  5963   000D52                     __ptext35:
  5964                           	callstack 0
  5965   000D52                     _drawPixel:
  5966                           	callstack 27
  5967                           
  5968                           ;incstack = 0
  5969                           ;drawPixel@x stored from wreg
  5970   000D52  6E0A               	movwf	drawPixel@x^0,c
  5971   000D54                     
  5972                           ;moduleDogm128.c: 207: void drawPixel(uint8_t x, uint8_t y, uint8_t color);moduleDogm128
      +                          .c: 208: {;moduleDogm128.c: 209:     if (x >= 128 || y >= 64) return;
  5973   000D54  0E80               	movlw	128
  5974   000D56  600A               	cpfslt	drawPixel@x^0,c
  5975   000D58  EFB0  F006         	goto	u1211
  5976   000D5C  EFB2  F006         	goto	u1210
  5977   000D60                     u1211:
  5978   000D60  EF08  F007         	goto	l329
  5979   000D64                     u1210:
  5980   000D64  0E3F               	movlw	63
  5981   000D66  6401               	cpfsgt	drawPixel@y^0,c
  5982   000D68  EFB8  F006         	goto	u1221
  5983   000D6C  EFBA  F006         	goto	u1220
  5984   000D70                     u1221:
  5985   000D70  EFBC  F006         	goto	l2042
  5986   000D74                     u1220:
  5987   000D74  EF08  F007         	goto	l329
  5988   000D78                     l2042:
  5989                           
  5990                           ;moduleDogm128.c: 211:     uint8_t page = y >> 3;
  5991   000D78  3801               	swapf	drawPixel@y^0,w,c
  5992   000D7A  46E8               	rlncf	wreg,f,c
  5993   000D7C  0B1F               	andlw	31
  5994   000D7E  6E08               	movwf	drawPixel@page^0,c
  5995                           
  5996                           ;moduleDogm128.c: 212:     uint8_t bit = y & 0x07;
  5997   000D80  5001               	movf	drawPixel@y^0,w,c
  5998   000D82  0B07               	andlw	7
  5999   000D84  6E09               	movwf	drawPixel@bit^0,c
  6000   000D86                     
  6001                           ;moduleDogm128.c: 214:     if (color)
  6002   000D86  5002               	movf	drawPixel@color^0,w,c
  6003   000D88  B4D8               	btfsc	status,2,c
  6004   000D8A  EFC9  F006         	goto	u1231
  6005   000D8E  EFCB  F006         	goto	u1230
  6006   000D92                     u1231:
  6007   000D92  EFE9  F006         	goto	l2048
  6008   000D96                     u1230:
  6009   000D96                     
  6010                           ;moduleDogm128.c: 215:         displayBuffer[page][x] |= (1 << bit);
  6011   000D96  C009  F003         	movff	drawPixel@bit,??_drawPixel
  6012   000D9A  0E01               	movlw	1
  6013   000D9C  6E04               	movwf	(??_drawPixel+1)^0,c
  6014   000D9E  2A03               	incf	??_drawPixel^0,f,c
  6015   000DA0  EFD4  F006         	goto	u1244
  6016   000DA4                     u1245:
  6017   000DA4  90D8               	bcf	status,0,c
  6018   000DA6  3604               	rlcf	(??_drawPixel+1)^0,f,c
  6019   000DA8                     u1244:
  6020   000DA8  2E03               	decfsz	??_drawPixel^0,f,c
  6021   000DAA  EFD2  F006         	goto	u1245
  6022   000DAE  5008               	movf	drawPixel@page^0,w,c
  6023   000DB0  0D80               	mullw	128
  6024   000DB2  0EEC               	movlw	low _displayBuffer
  6025   000DB4  24F3               	addwf	243,w,c
  6026   000DB6  6E05               	movwf	(??_drawPixel+2)^0,c
  6027   000DB8  0E00               	movlw	high _displayBuffer
  6028   000DBA  20F4               	addwfc	prodh,w,c
  6029   000DBC  6E06               	movwf	(??_drawPixel+3)^0,c
  6030   000DBE  500A               	movf	drawPixel@x^0,w,c
  6031   000DC0  2405               	addwf	(??_drawPixel+2)^0,w,c
  6032   000DC2  6ED9               	movwf	fsr2l,c
  6033   000DC4  0E00               	movlw	0
  6034   000DC6  2006               	addwfc	(??_drawPixel+3)^0,w,c
  6035   000DC8  6EDA               	movwf	fsr2h,c
  6036   000DCA  5004               	movf	(??_drawPixel+1)^0,w,c
  6037   000DCC  12DF               	iorwf	indf2,f,c
  6038   000DCE  EF08  F007         	goto	l329
  6039   000DD2                     l2048:
  6040                           
  6041                           ;moduleDogm128.c: 217:         displayBuffer[page][x] &= ~(1 << bit);
  6042   000DD2  C009  F003         	movff	drawPixel@bit,??_drawPixel
  6043   000DD6  0E01               	movlw	1
  6044   000DD8  6E04               	movwf	(??_drawPixel+1)^0,c
  6045   000DDA  2A03               	incf	??_drawPixel^0,f,c
  6046   000DDC  EFF2  F006         	goto	u1254
  6047   000DE0                     u1255:
  6048   000DE0  90D8               	bcf	status,0,c
  6049   000DE2  3604               	rlcf	(??_drawPixel+1)^0,f,c
  6050   000DE4                     u1254:
  6051   000DE4  2E03               	decfsz	??_drawPixel^0,f,c
  6052   000DE6  EFF0  F006         	goto	u1255
  6053   000DEA  5004               	movf	(??_drawPixel+1)^0,w,c
  6054   000DEC  0AFF               	xorlw	255
  6055   000DEE  6E05               	movwf	(??_drawPixel+2)^0,c
  6056   000DF0  5008               	movf	drawPixel@page^0,w,c
  6057   000DF2  0D80               	mullw	128
  6058   000DF4  0EEC               	movlw	low _displayBuffer
  6059   000DF6  24F3               	addwf	243,w,c
  6060   000DF8  6E06               	movwf	(??_drawPixel+3)^0,c
  6061   000DFA  0E00               	movlw	high _displayBuffer
  6062   000DFC  20F4               	addwfc	prodh,w,c
  6063   000DFE  6E07               	movwf	(??_drawPixel+4)^0,c
  6064   000E00  500A               	movf	drawPixel@x^0,w,c
  6065   000E02  2406               	addwf	(??_drawPixel+3)^0,w,c
  6066   000E04  6ED9               	movwf	fsr2l,c
  6067   000E06  0E00               	movlw	0
  6068   000E08  2007               	addwfc	(??_drawPixel+4)^0,w,c
  6069   000E0A  6EDA               	movwf	fsr2h,c
  6070   000E0C  5005               	movf	(??_drawPixel+2)^0,w,c
  6071   000E0E  16DF               	andwf	indf2,f,c
  6072   000E10                     l329:
  6073   000E10  0012               	return		;funcret
  6074   000E12                     __end_of_drawPixel:
  6075                           	callstack 0
  6076                           
  6077 ;; *************** function ___lwdiv *****************
  6078 ;; Defined at:
  6079 ;;		line 7 in file "C:\Program Files\Microchip\xc8\v2.50\pic\sources\c99\common\lwdiv.c"
  6080 ;; Parameters:    Size  Location     Type
  6081 ;;  dividend        2    0[COMRAM] unsigned int 
  6082 ;;  divisor         2    2[COMRAM] unsigned int 
  6083 ;; Auto vars:     Size  Location     Type
  6084 ;;  quotient        2    4[COMRAM] unsigned int 
  6085 ;;  counter         1    6[COMRAM] unsigned char 
  6086 ;; Return value:  Size  Location     Type
  6087 ;;                  2    0[COMRAM] unsigned int 
  6088 ;; Registers used:
  6089 ;;		wreg, status,2, status,0
  6090 ;; Tracked objects:
  6091 ;;		On entry : 0/0
  6092 ;;		On exit  : 0/0
  6093 ;;		Unchanged: 0/0
  6094 ;; Data sizes:     COMRAM   BANK0   BANK1   BANK2   BANK3   BANK4   BANK5   BANK6   BANK7
  6095 ;;      Params:         4       0       0       0       0       0       0       0       0
  6096 ;;      Locals:         3       0       0       0       0       0       0       0       0
  6097 ;;      Temps:          0       0       0       0       0       0       0       0       0
  6098 ;;      Totals:         7       0       0       0       0       0       0       0       0
  6099 ;;Total ram usage:        7 bytes
  6100 ;; Hardware stack levels used: 1
  6101 ;; Hardware stack levels required when called: 1
  6102 ;; This function calls:
  6103 ;;		Nothing
  6104 ;; This function is called by:
  6105 ;;		_drawColl
  6106 ;; This function uses a non-reentrant model
  6107 ;;
  6108                           
  6109                           	psect	text36
  6110   001276                     __ptext36:
  6111                           	callstack 0
  6112   001276                     ___lwdiv:
  6113                           	callstack 27
  6114   001276  0E00               	movlw	0
  6115   001278  6E06               	movwf	(___lwdiv@quotient+1)^0,c
  6116   00127A  0E00               	movlw	0
  6117   00127C  6E05               	movwf	___lwdiv@quotient^0,c
  6118   00127E  5003               	movf	___lwdiv@divisor^0,w,c
  6119   001280  1004               	iorwf	(___lwdiv@divisor+1)^0,w,c
  6120   001282  B4D8               	btfsc	status,2,c
  6121   001284  EF46  F009         	goto	u1481
  6122   001288  EF48  F009         	goto	u1480
  6123   00128C                     u1481:
  6124   00128C  EF70  F009         	goto	l869
  6125   001290                     u1480:
  6126   001290  0E01               	movlw	1
  6127   001292  6E07               	movwf	___lwdiv@counter^0,c
  6128   001294  EF50  F009         	goto	l2218
  6129   001298                     l2216:
  6130   001298  90D8               	bcf	status,0,c
  6131   00129A  3603               	rlcf	___lwdiv@divisor^0,f,c
  6132   00129C  3604               	rlcf	(___lwdiv@divisor+1)^0,f,c
  6133   00129E  2A07               	incf	___lwdiv@counter^0,f,c
  6134   0012A0                     l2218:
  6135   0012A0  AE04               	btfss	(___lwdiv@divisor+1)^0,7,c
  6136   0012A2  EF55  F009         	goto	u1491
  6137   0012A6  EF57  F009         	goto	u1490
  6138   0012AA                     u1491:
  6139   0012AA  EF4C  F009         	goto	l2216
  6140   0012AE                     u1490:
  6141   0012AE                     l2220:
  6142   0012AE  90D8               	bcf	status,0,c
  6143   0012B0  3605               	rlcf	___lwdiv@quotient^0,f,c
  6144   0012B2  3606               	rlcf	(___lwdiv@quotient+1)^0,f,c
  6145   0012B4  5003               	movf	___lwdiv@divisor^0,w,c
  6146   0012B6  5C01               	subwf	___lwdiv@dividend^0,w,c
  6147   0012B8  5004               	movf	(___lwdiv@divisor+1)^0,w,c
  6148   0012BA  5802               	subwfb	(___lwdiv@dividend+1)^0,w,c
  6149   0012BC  A0D8               	btfss	status,0,c
  6150   0012BE  EF63  F009         	goto	u1501
  6151   0012C2  EF65  F009         	goto	u1500
  6152   0012C6                     u1501:
  6153   0012C6  EF6A  F009         	goto	l2228
  6154   0012CA                     u1500:
  6155   0012CA  5003               	movf	___lwdiv@divisor^0,w,c
  6156   0012CC  5E01               	subwf	___lwdiv@dividend^0,f,c
  6157   0012CE  5004               	movf	(___lwdiv@divisor+1)^0,w,c
  6158   0012D0  5A02               	subwfb	(___lwdiv@dividend+1)^0,f,c
  6159   0012D2  8005               	bsf	___lwdiv@quotient^0,0,c
  6160   0012D4                     l2228:
  6161   0012D4  90D8               	bcf	status,0,c
  6162   0012D6  3204               	rrcf	(___lwdiv@divisor+1)^0,f,c
  6163   0012D8  3203               	rrcf	___lwdiv@divisor^0,f,c
  6164   0012DA  2E07               	decfsz	___lwdiv@counter^0,f,c
  6165   0012DC  EF57  F009         	goto	l2220
  6166   0012E0                     l869:
  6167   0012E0  C005  F001         	movff	___lwdiv@quotient,?___lwdiv
  6168   0012E4  C006  F002         	movff	___lwdiv@quotient+1,?___lwdiv+1
  6169   0012E8  0012               	return		;funcret
  6170   0012EA                     __end_of___lwdiv:
  6171                           	callstack 0
  6172                           
  6173 ;; *************** function ___aldiv *****************
  6174 ;; Defined at:
  6175 ;;		line 7 in file "C:\Program Files\Microchip\xc8\v2.50\pic\sources\c99\common\aldiv.c"
  6176 ;; Parameters:    Size  Location     Type
  6177 ;;  dividend        4    0[COMRAM] long 
  6178 ;;  divisor         4    4[COMRAM] long 
  6179 ;; Auto vars:     Size  Location     Type
  6180 ;;  quotient        4   10[COMRAM] long 
  6181 ;;  sign            1    9[COMRAM] unsigned char 
  6182 ;;  counter         1    8[COMRAM] unsigned char 
  6183 ;; Return value:  Size  Location     Type
  6184 ;;                  4    0[COMRAM] long 
  6185 ;; Registers used:
  6186 ;;		wreg, status,2, status,0
  6187 ;; Tracked objects:
  6188 ;;		On entry : 0/0
  6189 ;;		On exit  : 0/0
  6190 ;;		Unchanged: 0/0
  6191 ;; Data sizes:     COMRAM   BANK0   BANK1   BANK2   BANK3   BANK4   BANK5   BANK6   BANK7
  6192 ;;      Params:         8       0       0       0       0       0       0       0       0
  6193 ;;      Locals:         6       0       0       0       0       0       0       0       0
  6194 ;;      Temps:          0       0       0       0       0       0       0       0       0
  6195 ;;      Totals:        14       0       0       0       0       0       0       0       0
  6196 ;;Total ram usage:       14 bytes
  6197 ;; Hardware stack levels used: 1
  6198 ;; Hardware stack levels required when called: 1
  6199 ;; This function calls:
  6200 ;;		Nothing
  6201 ;; This function is called by:
  6202 ;;		_drawColl
  6203 ;; This function uses a non-reentrant model
  6204 ;;
  6205                           
  6206                           	psect	text37
  6207   000958                     __ptext37:
  6208                           	callstack 0
  6209   000958                     ___aldiv:
  6210                           	callstack 27
  6211   000958  6A0A               	clrf	___aldiv@sign^0,c
  6212   00095A  BE08               	btfsc	(___aldiv@divisor+3)^0,7,c
  6213   00095C  EFB4  F004         	goto	u1390
  6214   000960  EFB2  F004         	goto	u1391
  6215   000964                     u1391:
  6216   000964  EFBE  F004         	goto	l2158
  6217   000968                     u1390:
  6218   000968  1E08               	comf	(___aldiv@divisor+3)^0,f,c
  6219   00096A  1E07               	comf	(___aldiv@divisor+2)^0,f,c
  6220   00096C  1E06               	comf	(___aldiv@divisor+1)^0,f,c
  6221   00096E  6C05               	negf	___aldiv@divisor^0,c
  6222   000970  0E00               	movlw	0
  6223   000972  2206               	addwfc	(___aldiv@divisor+1)^0,f,c
  6224   000974  2207               	addwfc	(___aldiv@divisor+2)^0,f,c
  6225   000976  2208               	addwfc	(___aldiv@divisor+3)^0,f,c
  6226   000978  0E01               	movlw	1
  6227   00097A  6E0A               	movwf	___aldiv@sign^0,c
  6228   00097C                     l2158:
  6229   00097C  BE04               	btfsc	(___aldiv@dividend+3)^0,7,c
  6230   00097E  EFC5  F004         	goto	u1400
  6231   000982  EFC3  F004         	goto	u1401
  6232   000986                     u1401:
  6233   000986  EFCF  F004         	goto	l2164
  6234   00098A                     u1400:
  6235   00098A  1E04               	comf	(___aldiv@dividend+3)^0,f,c
  6236   00098C  1E03               	comf	(___aldiv@dividend+2)^0,f,c
  6237   00098E  1E02               	comf	(___aldiv@dividend+1)^0,f,c
  6238   000990  6C01               	negf	___aldiv@dividend^0,c
  6239   000992  0E00               	movlw	0
  6240   000994  2202               	addwfc	(___aldiv@dividend+1)^0,f,c
  6241   000996  2203               	addwfc	(___aldiv@dividend+2)^0,f,c
  6242   000998  2204               	addwfc	(___aldiv@dividend+3)^0,f,c
  6243   00099A  0E01               	movlw	1
  6244   00099C  1A0A               	xorwf	___aldiv@sign^0,f,c
  6245   00099E                     l2164:
  6246   00099E  0E00               	movlw	0
  6247   0009A0  6E0B               	movwf	___aldiv@quotient^0,c
  6248   0009A2  0E00               	movlw	0
  6249   0009A4  6E0C               	movwf	(___aldiv@quotient+1)^0,c
  6250   0009A6  0E00               	movlw	0
  6251   0009A8  6E0D               	movwf	(___aldiv@quotient+2)^0,c
  6252   0009AA  0E00               	movlw	0
  6253   0009AC  6E0E               	movwf	(___aldiv@quotient+3)^0,c
  6254   0009AE  5005               	movf	___aldiv@divisor^0,w,c
  6255   0009B0  1006               	iorwf	(___aldiv@divisor+1)^0,w,c
  6256   0009B2  1007               	iorwf	(___aldiv@divisor+2)^0,w,c
  6257   0009B4  1008               	iorwf	(___aldiv@divisor+3)^0,w,c
  6258   0009B6  B4D8               	btfsc	status,2,c
  6259   0009B8  EFE0  F004         	goto	u1411
  6260   0009BC  EFE2  F004         	goto	u1410
  6261   0009C0                     u1411:
  6262   0009C0  EF18  F005         	goto	l2186
  6263   0009C4                     u1410:
  6264   0009C4  0E01               	movlw	1
  6265   0009C6  6E09               	movwf	___aldiv@counter^0,c
  6266   0009C8  EFEC  F004         	goto	l2172
  6267   0009CC                     l2170:
  6268   0009CC  90D8               	bcf	status,0,c
  6269   0009CE  3605               	rlcf	___aldiv@divisor^0,f,c
  6270   0009D0  3606               	rlcf	(___aldiv@divisor+1)^0,f,c
  6271   0009D2  3607               	rlcf	(___aldiv@divisor+2)^0,f,c
  6272   0009D4  3608               	rlcf	(___aldiv@divisor+3)^0,f,c
  6273   0009D6  2A09               	incf	___aldiv@counter^0,f,c
  6274   0009D8                     l2172:
  6275   0009D8  AE08               	btfss	(___aldiv@divisor+3)^0,7,c
  6276   0009DA  EFF1  F004         	goto	u1421
  6277   0009DE  EFF3  F004         	goto	u1420
  6278   0009E2                     u1421:
  6279   0009E2  EFE6  F004         	goto	l2170
  6280   0009E6                     u1420:
  6281   0009E6                     l2174:
  6282   0009E6  90D8               	bcf	status,0,c
  6283   0009E8  360B               	rlcf	___aldiv@quotient^0,f,c
  6284   0009EA  360C               	rlcf	(___aldiv@quotient+1)^0,f,c
  6285   0009EC  360D               	rlcf	(___aldiv@quotient+2)^0,f,c
  6286   0009EE  360E               	rlcf	(___aldiv@quotient+3)^0,f,c
  6287   0009F0  5005               	movf	___aldiv@divisor^0,w,c
  6288   0009F2  5C01               	subwf	___aldiv@dividend^0,w,c
  6289   0009F4  5006               	movf	(___aldiv@divisor+1)^0,w,c
  6290   0009F6  5802               	subwfb	(___aldiv@dividend+1)^0,w,c
  6291   0009F8  5007               	movf	(___aldiv@divisor+2)^0,w,c
  6292   0009FA  5803               	subwfb	(___aldiv@dividend+2)^0,w,c
  6293   0009FC  5008               	movf	(___aldiv@divisor+3)^0,w,c
  6294   0009FE  5804               	subwfb	(___aldiv@dividend+3)^0,w,c
  6295   000A00  A0D8               	btfss	status,0,c
  6296   000A02  EF05  F005         	goto	u1431
  6297   000A06  EF07  F005         	goto	u1430
  6298   000A0A                     u1431:
  6299   000A0A  EF10  F005         	goto	l2182
  6300   000A0E                     u1430:
  6301   000A0E  5005               	movf	___aldiv@divisor^0,w,c
  6302   000A10  5E01               	subwf	___aldiv@dividend^0,f,c
  6303   000A12  5006               	movf	(___aldiv@divisor+1)^0,w,c
  6304   000A14  5A02               	subwfb	(___aldiv@dividend+1)^0,f,c
  6305   000A16  5007               	movf	(___aldiv@divisor+2)^0,w,c
  6306   000A18  5A03               	subwfb	(___aldiv@dividend+2)^0,f,c
  6307   000A1A  5008               	movf	(___aldiv@divisor+3)^0,w,c
  6308   000A1C  5A04               	subwfb	(___aldiv@dividend+3)^0,f,c
  6309   000A1E  800B               	bsf	___aldiv@quotient^0,0,c
  6310   000A20                     l2182:
  6311   000A20  90D8               	bcf	status,0,c
  6312   000A22  3208               	rrcf	(___aldiv@divisor+3)^0,f,c
  6313   000A24  3207               	rrcf	(___aldiv@divisor+2)^0,f,c
  6314   000A26  3206               	rrcf	(___aldiv@divisor+1)^0,f,c
  6315   000A28  3205               	rrcf	___aldiv@divisor^0,f,c
  6316   000A2A  2E09               	decfsz	___aldiv@counter^0,f,c
  6317   000A2C  EFF3  F004         	goto	l2174
  6318   000A30                     l2186:
  6319   000A30  500A               	movf	___aldiv@sign^0,w,c
  6320   000A32  B4D8               	btfsc	status,2,c
  6321   000A34  EF1E  F005         	goto	u1441
  6322   000A38  EF20  F005         	goto	u1440
  6323   000A3C                     u1441:
  6324   000A3C  EF28  F005         	goto	l2190
  6325   000A40                     u1440:
  6326   000A40  1E0E               	comf	(___aldiv@quotient+3)^0,f,c
  6327   000A42  1E0D               	comf	(___aldiv@quotient+2)^0,f,c
  6328   000A44  1E0C               	comf	(___aldiv@quotient+1)^0,f,c
  6329   000A46  6C0B               	negf	___aldiv@quotient^0,c
  6330   000A48  0E00               	movlw	0
  6331   000A4A  220C               	addwfc	(___aldiv@quotient+1)^0,f,c
  6332   000A4C  220D               	addwfc	(___aldiv@quotient+2)^0,f,c
  6333   000A4E  220E               	addwfc	(___aldiv@quotient+3)^0,f,c
  6334   000A50                     l2190:
  6335   000A50  C00B  F001         	movff	___aldiv@quotient,?___aldiv
  6336   000A54  C00C  F002         	movff	___aldiv@quotient+1,?___aldiv+1
  6337   000A58  C00D  F003         	movff	___aldiv@quotient+2,?___aldiv+2
  6338   000A5C  C00E  F004         	movff	___aldiv@quotient+3,?___aldiv+3
  6339   000A60  0012               	return		;funcret
  6340   000A62                     __end_of___aldiv:
  6341                           	callstack 0
  6342                           
  6343 ;; *************** function _clearLeds *****************
  6344 ;; Defined at:
  6345 ;;		line 452 in file "main.c"
  6346 ;; Parameters:    Size  Location     Type
  6347 ;;		None
  6348 ;; Auto vars:     Size  Location     Type
  6349 ;;		None
  6350 ;; Return value:  Size  Location     Type
  6351 ;;                  1    wreg      void 
  6352 ;; Registers used:
  6353 ;;		status,2, status,0
  6354 ;; Tracked objects:
  6355 ;;		On entry : 0/0
  6356 ;;		On exit  : 0/0
  6357 ;;		Unchanged: 0/0
  6358 ;; Data sizes:     COMRAM   BANK0   BANK1   BANK2   BANK3   BANK4   BANK5   BANK6   BANK7
  6359 ;;      Params:         0       0       0       0       0       0       0       0       0
  6360 ;;      Locals:         0       0       0       0       0       0       0       0       0
  6361 ;;      Temps:          0       0       0       0       0       0       0       0       0
  6362 ;;      Totals:         0       0       0       0       0       0       0       0       0
  6363 ;;Total ram usage:        0 bytes
  6364 ;; Hardware stack levels used: 1
  6365 ;; Hardware stack levels required when called: 1
  6366 ;; This function calls:
  6367 ;;		Nothing
  6368 ;; This function is called by:
  6369 ;;		_main
  6370 ;; This function uses a non-reentrant model
  6371 ;;
  6372                           
  6373                           	psect	text38
  6374   001706                     __ptext38:
  6375                           	callstack 0
  6376   001706                     _clearLeds:
  6377                           	callstack 29
  6378   001706                     
  6379                           ;main.c: 454:     (LATA &= ~(1<<0));
  6380   001706  9089               	bcf	137,0,c	;volatile
  6381                           
  6382                           ;main.c: 455:     (LATA &= ~(1<<1));
  6383   001708  9289               	bcf	137,1,c	;volatile
  6384                           
  6385                           ;main.c: 456:     (LATA &= ~(1<<2));
  6386   00170A  9489               	bcf	137,2,c	;volatile
  6387                           
  6388                           ;main.c: 457:     (LATA &= ~(1<<3));
  6389   00170C  9689               	bcf	137,3,c	;volatile
  6390                           
  6391                           ;main.c: 458:     (LATA &= ~(1<<4));
  6392   00170E  9889               	bcf	137,4,c	;volatile
  6393   001710  0012               	return		;funcret
  6394   001712                     __end_of_clearLeds:
  6395                           	callstack 0
  6396                           
  6397 ;; *************** function _isr *****************
  6398 ;; Defined at:
  6399 ;;		line 413 in file "main.c"
  6400 ;; Parameters:    Size  Location     Type
  6401 ;;		None
  6402 ;; Auto vars:     Size  Location     Type
  6403 ;;		None
  6404 ;; Return value:  Size  Location     Type
  6405 ;;                  1    wreg      void 
  6406 ;; Registers used:
  6407 ;;		wreg, status,2, status,0
  6408 ;; Tracked objects:
  6409 ;;		On entry : 0/0
  6410 ;;		On exit  : 0/0
  6411 ;;		Unchanged: 0/0
  6412 ;; Data sizes:     COMRAM   BANK0   BANK1   BANK2   BANK3   BANK4   BANK5   BANK6   BANK7
  6413 ;;      Params:         0       0       0       0       0       0       0       0       0
  6414 ;;      Locals:         0       0       0       0       0       0       0       0       0
  6415 ;;      Temps:          0       0       0       0       0       0       0       0       0
  6416 ;;      Totals:         0       0       0       0       0       0       0       0       0
  6417 ;;Total ram usage:        0 bytes
  6418 ;; Hardware stack levels used: 1
  6419 ;; This function calls:
  6420 ;;		Nothing
  6421 ;; This function is called by:
  6422 ;;		Interrupt level 2
  6423 ;; This function uses a non-reentrant model
  6424 ;;
  6425                           
  6426                           	psect	intcode
  6427   000008                     __pintcode:
  6428                           	callstack 0
  6429   000008                     _isr:
  6430                           	callstack 24
  6431                           
  6432                           ;incstack = 0
  6433   000008  824B               	bsf	int$flags,1,c	;set compiler interrupt flag (level 2)
  6434   00000A  ED68  F00A         	call	int_func,f	;refresh shadow registers
  6435                           
  6436                           	psect	intcode_body
  6437   0014D0                     __pintcode_body:
  6438                           	callstack 24
  6439   0014D0                     int_func:
  6440                           	callstack 24
  6441   0014D0  0006               	pop		; remove dummy address from shadow register refresh
  6442   0014D2                     
  6443                           ;main.c: 416:     if(TMR0IF && TMR0IE)
  6444   0014D2  A4F2               	btfss	4082,2,c	;volatile
  6445   0014D4  EF6E  F00A         	goto	i2u103_41
  6446   0014D8  EF70  F00A         	goto	i2u103_40
  6447   0014DC                     i2u103_41:
  6448   0014DC  EF78  F00A         	goto	i2l186
  6449   0014E0                     i2u103_40:
  6450   0014E0  AAF2               	btfss	4082,5,c	;volatile
  6451   0014E2  EF75  F00A         	goto	i2u104_41
  6452   0014E6  EF77  F00A         	goto	i2u104_40
  6453   0014EA                     i2u104_41:
  6454   0014EA  EF78  F00A         	goto	i2l186
  6455   0014EE                     i2u104_40:
  6456   0014EE                     
  6457                           ;main.c: 417:     {;main.c: 419:         TMR0IF = 0;
  6458   0014EE  94F2               	bcf	4082,2,c	;volatile
  6459   0014F0                     i2l186:
  6460                           
  6461                           ;main.c: 422:     if(TMR2IF && TMR2IE)
  6462   0014F0  A29E               	btfss	3998,1,c	;volatile
  6463   0014F2  EF7D  F00A         	goto	i2u105_41
  6464   0014F6  EF7F  F00A         	goto	i2u105_40
  6465   0014FA                     i2u105_41:
  6466   0014FA  EF8D  F00A         	goto	i2l188
  6467   0014FE                     i2u105_40:
  6468   0014FE  A29D               	btfss	3997,1,c	;volatile
  6469   001500  EF84  F00A         	goto	i2u106_41
  6470   001504  EF86  F00A         	goto	i2u106_40
  6471   001508                     i2u106_41:
  6472   001508  EF8D  F00A         	goto	i2l188
  6473   00150C                     i2u106_40:
  6474   00150C                     
  6475                           ;main.c: 423:     {;main.c: 425:        millis++;
  6476   00150C  0E01               	movlw	1
  6477   00150E  262D               	addwf	_millis^0,f,c	;volatile
  6478   001510  0E00               	movlw	0
  6479   001512  222E               	addwfc	(_millis+1)^0,f,c	;volatile
  6480   001514  222F               	addwfc	(_millis+2)^0,f,c	;volatile
  6481   001516  2230               	addwfc	(_millis+3)^0,f,c	;volatile
  6482   001518                     
  6483                           ;main.c: 426:         TMR2IF = 0;
  6484   001518  929E               	bcf	3998,1,c	;volatile
  6485   00151A                     i2l188:
  6486   00151A  924B               	bcf	int$flags,1,c	;clear compiler interrupt flag (level 2)
  6487   00151C  0011               	retfie		f
  6488   00151E                     __end_of_isr:
  6489                           	callstack 0
  6490                           
  6491                           	psect	rparam
  6492   000001                     ___rparam_used  equ	1
  6493   000000                     ___param_bank   equ	0
  6494   000000                     __Lparam        equ	__Lrparam
  6495   000000                     __Hparam        equ	__Hrparam
  6496                           
  6497                           	psect	temp
  6498   00004B                     btemp:
  6499                           	callstack 0
  6500   00004B                     	ds	1
  6501   00004B                     int$flags       set	btemp
  6502   00004C                     wtemp8          set	btemp+1
  6503   00004C                     ttemp5          set	btemp+1
  6504   00004F                     ttemp6          set	btemp+4
  6505   000053                     ttemp7          set	btemp+8
  6506                           
  6507                           	psect	config
  6508                           
  6509                           ;Config register CONFIG1L @ 0x300000
  6510                           ;	PLL Prescaler Selection bits
  6511                           ;	PLLDIV = 4, Divide by 4 (16 MHz oscillator input)
  6512                           ;	System Clock Postscaler Selection bits
  6513                           ;	CPUDIV = OSC1_PLL2, [Primary Oscillator Src: /1][96 MHz PLL Src: /2]
  6514                           ;	USB Clock Selection bit (used in Full-Speed USB mode only; UCFG:FSEN = 1)
  6515                           ;	USBDIV = 1, USB clock source comes directly from the primary oscillator block with no 
      +                          postscale
  6516   300000                     	org	3145728
  6517   300000  03                 	db	3
  6518                           
  6519                           ;Config register CONFIG1H @ 0x300001
  6520                           ;	Oscillator Selection bits
  6521                           ;	FOSC = HSPLL_HS, HS oscillator, PLL enabled (HSPLL)
  6522                           ;	Fail-Safe Clock Monitor Enable bit
  6523                           ;	FCMEN = OFF, Fail-Safe Clock Monitor disabled
  6524                           ;	Internal/External Oscillator Switchover bit
  6525                           ;	IESO = OFF, Oscillator Switchover mode disabled
  6526   300001                     	org	3145729
  6527   300001  0E                 	db	14
  6528                           
  6529                           ;Config register CONFIG2L @ 0x300002
  6530                           ;	Power-up Timer Enable bit
  6531                           ;	PWRT = OFF, PWRT disabled
  6532                           ;	Brown-out Reset Enable bits
  6533                           ;	BOR = ON, Brown-out Reset enabled in hardware only (SBOREN is disabled)
  6534                           ;	Brown-out Reset Voltage bits
  6535                           ;	BORV = 3, Minimum setting 2.05V
  6536                           ;	USB Voltage Regulator Enable bit
  6537                           ;	VREGEN = OFF, USB voltage regulator disabled
  6538   300002                     	org	3145730
  6539   300002  1F                 	db	31
  6540                           
  6541                           ;Config register CONFIG2H @ 0x300003
  6542                           ;	Watchdog Timer Enable bit
  6543                           ;	WDT = OFF, WDT disabled (control is placed on the SWDTEN bit)
  6544                           ;	Watchdog Timer Postscale Select bits
  6545                           ;	WDTPS = 32768, 1:32768
  6546   300003                     	org	3145731
  6547   300003  1E                 	db	30
  6548                           
  6549                           ; Padding undefined space
  6550   300004                     	org	3145732
  6551   300004  FF                 	db	255
  6552                           
  6553                           ;Config register CONFIG3H @ 0x300005
  6554                           ;	CCP2 MUX bit
  6555                           ;	CCP2MX = ON, CCP2 input/output is multiplexed with RC1
  6556                           ;	PORTB A/D Enable bit
  6557                           ;	PBADEN = OFF, PORTB<4:0> pins are configured as digital I/O on Reset
  6558                           ;	Low-Power Timer 1 Oscillator Enable bit
  6559                           ;	LPT1OSC = OFF, Timer1 configured for higher power operation
  6560                           ;	MCLR Pin Enable bit
  6561                           ;	MCLRE = ON, MCLR pin enabled; RE3 input pin disabled
  6562   300005                     	org	3145733
  6563   300005  81                 	db	129
  6564                           
  6565                           ;Config register CONFIG4L @ 0x300006
  6566                           ;	Stack Full/Underflow Reset Enable bit
  6567                           ;	STVREN = ON, Stack full/underflow will cause Reset
  6568                           ;	Single-Supply ICSP Enable bit
  6569                           ;	LVP = OFF, Single-Supply ICSP disabled
  6570                           ;	Dedicated In-Circuit Debug/Programming Port (ICPORT) Enable bit
  6571                           ;	ICPRT = OFF, ICPORT disabled
  6572                           ;	Extended Instruction Set Enable bit
  6573                           ;	XINST = OFF, Instruction set extension and Indexed Addressing mode disabled (Legacy mo
      +                          de)
  6574                           ;	Background Debugger Enable bit
  6575                           ;	DEBUG = 0x1, unprogrammed default
  6576   300006                     	org	3145734
  6577   300006  81                 	db	129
  6578                           
  6579                           ; Padding undefined space
  6580   300007                     	org	3145735
  6581   300007  FF                 	db	255
  6582                           
  6583                           ;Config register CONFIG5L @ 0x300008
  6584                           ;	Code Protection bit
  6585                           ;	CP0 = OFF, Block 0 (000800-001FFFh) is not code-protected
  6586                           ;	Code Protection bit
  6587                           ;	CP1 = OFF, Block 1 (002000-003FFFh) is not code-protected
  6588                           ;	Code Protection bit
  6589                           ;	CP2 = OFF, Block 2 (004000-005FFFh) is not code-protected
  6590                           ;	Code Protection bit
  6591                           ;	CP3 = OFF, Block 3 (006000-007FFFh) is not code-protected
  6592   300008                     	org	3145736
  6593   300008  0F                 	db	15
  6594                           
  6595                           ;Config register CONFIG5H @ 0x300009
  6596                           ;	Boot Block Code Protection bit
  6597                           ;	CPB = OFF, Boot block (000000-0007FFh) is not code-protected
  6598                           ;	Data EEPROM Code Protection bit
  6599                           ;	CPD = OFF, Data EEPROM is not code-protected
  6600   300009                     	org	3145737
  6601   300009  C0                 	db	192
  6602                           
  6603                           ;Config register CONFIG6L @ 0x30000A
  6604                           ;	Write Protection bit
  6605                           ;	WRT0 = OFF, Block 0 (000800-001FFFh) is not write-protected
  6606                           ;	Write Protection bit
  6607                           ;	WRT1 = OFF, Block 1 (002000-003FFFh) is not write-protected
  6608                           ;	Write Protection bit
  6609                           ;	WRT2 = OFF, Block 2 (004000-005FFFh) is not write-protected
  6610                           ;	Write Protection bit
  6611                           ;	WRT3 = OFF, Block 3 (006000-007FFFh) is not write-protected
  6612   30000A                     	org	3145738
  6613   30000A  0F                 	db	15
  6614                           
  6615                           ;Config register CONFIG6H @ 0x30000B
  6616                           ;	Configuration Register Write Protection bit
  6617                           ;	WRTC = OFF, Configuration registers (300000-3000FFh) are not write-protected
  6618                           ;	Boot Block Write Protection bit
  6619                           ;	WRTB = OFF, Boot block (000000-0007FFh) is not write-protected
  6620                           ;	Data EEPROM Write Protection bit
  6621                           ;	WRTD = OFF, Data EEPROM is not write-protected
  6622   30000B                     	org	3145739
  6623   30000B  E0                 	db	224
  6624                           
  6625                           ;Config register CONFIG7L @ 0x30000C
  6626                           ;	Table Read Protection bit
  6627                           ;	EBTR0 = OFF, Block 0 (000800-001FFFh) is not protected from table reads executed in ot
      +                          her blocks
  6628                           ;	Table Read Protection bit
  6629                           ;	EBTR1 = OFF, Block 1 (002000-003FFFh) is not protected from table reads executed in ot
      +                          her blocks
  6630                           ;	Table Read Protection bit
  6631                           ;	EBTR2 = OFF, Block 2 (004000-005FFFh) is not protected from table reads executed in ot
      +                          her blocks
  6632                           ;	Table Read Protection bit
  6633                           ;	EBTR3 = OFF, Block 3 (006000-007FFFh) is not protected from table reads executed in ot
      +                          her blocks
  6634   30000C                     	org	3145740
  6635   30000C  0F                 	db	15
  6636                           
  6637                           ;Config register CONFIG7H @ 0x30000D
  6638                           ;	Boot Block Table Read Protection bit
  6639                           ;	EBTRB = OFF, Boot block (000000-0007FFh) is not protected from table reads executed in
      +                           other blocks
  6640   30000D                     	org	3145741
  6641   30000D  40                 	db	64
  6642                           tosu	equ	0xFFF
  6643                           tosh	equ	0xFFE
  6644                           tosl	equ	0xFFD
  6645                           stkptr	equ	0xFFC
  6646                           pclatu	equ	0xFFB
  6647                           pclath	equ	0xFFA
  6648                           pcl	equ	0xFF9
  6649                           tblptru	equ	0xFF8
  6650                           tblptrh	equ	0xFF7
  6651                           tblptrl	equ	0xFF6
  6652                           tablat	equ	0xFF5
  6653                           prodh	equ	0xFF4
  6654                           prodl	equ	0xFF3
  6655                           indf0	equ	0xFEF
  6656                           postinc0	equ	0xFEE
  6657                           postdec0	equ	0xFED
  6658                           preinc0	equ	0xFEC
  6659                           plusw0	equ	0xFEB
  6660                           fsr0h	equ	0xFEA
  6661                           fsr0l	equ	0xFE9
  6662                           wreg	equ	0xFE8
  6663                           indf1	equ	0xFE7
  6664                           postinc1	equ	0xFE6
  6665                           postdec1	equ	0xFE5
  6666                           preinc1	equ	0xFE4
  6667                           plusw1	equ	0xFE3
  6668                           fsr1h	equ	0xFE2
  6669                           fsr1l	equ	0xFE1
  6670                           bsr	equ	0xFE0
  6671                           indf2	equ	0xFDF
  6672                           postinc2	equ	0xFDE
  6673                           postdec2	equ	0xFDD
  6674                           preinc2	equ	0xFDC
  6675                           plusw2	equ	0xFDB
  6676                           fsr2h	equ	0xFDA
  6677                           fsr2l	equ	0xFD9
  6678                           status	equ	0xFD8

Data Sizes:
    Strings     0
    Constant    530
    Data        5
    BSS         1193
    Persistent  0
    Stack       0

Auto Spaces:
    Space          Size  Autos    Used
    COMRAM           94     40      74
    BANK0           160      0     140
    BANK1           256      0       0
    BANK2           256      0       0
    BANK3           256      0       0
    BANK4           256      0       0
    BANK5           256      0       0
    BANK6           256      0       0
    BANK7           256      0       0

Pointer List with Targets:

    addTile@cnt	PTR unsigned char  size(1) Largest target is 1
		 -> Col1cnt(COMRAM[1]), Col2cnt(COMRAM[1]), Col3cnt(COMRAM[1]), Col4cnt(COMRAM[1]), 

    addTile@col	PTR struct tile size(1) Largest target is 28
		 -> Col1(BANK0[28]), Col2(BANK0[28]), Col3(BANK0[28]), Col4(BANK0[28]), 

    brkp	PTR unsigned char  size(2) Largest target is 0
		 -> __heap_hi(UNKNOWN), NULL(NULL[0]), 

    checkHit@col	PTR struct tile size(1) Largest target is 28
		 -> Col1(BANK0[28]), Col2(BANK0[28]), Col3(BANK0[28]), Col4(BANK0[28]), 

    drawColl@activeCol	PTR struct tile size(1) Largest target is 28
		 -> Col1(BANK0[28]), Col2(BANK0[28]), Col3(BANK0[28]), Col4(BANK0[28]), 

    drawText@txt	PTR const unsigned char  size(1) Largest target is 5
		 -> DispCtrStr(COMRAM[5]), 

    __expand_heap@new_brkp	PTR unsigned char  size(2) Largest target is 0
		 -> __heap_hi(UNKNOWN), NULL(NULL[0]), 

    __expand_heap@pn	PTR unsigned int  size(1) Largest target is 2
		 -> malloc@m(COMRAM[2]), 

    free@c$.$next	PTR struct chunk size(2) Largest target is 0
		 -> NULL(NULL[0]), 

    free@c$.$next$.$next	PTR struct chunk size(2) Largest target is 0
		 -> NULL(NULL[0]), 

    __freelist	PTR struct chunk size(2) Largest target is 0
		 -> NULL(NULL[0]), 

    __freelist$.$next	PTR struct chunk size(2) Largest target is 0
		 -> NULL(NULL[0]), 

    malloc@cur	PTR unsigned char  size(2) Largest target is 0
		 -> __heap_hi(UNKNOWN), NULL(NULL[0]), 

    malloc@end	PTR unsigned char  size(2) Largest target is 0
		 -> __heap_hi(UNKNOWN), NULL(NULL[0]), 

    malloc@new	PTR unsigned char  size(2) Largest target is 0
		 -> __heap_hi(UNKNOWN), NULL(NULL[0]), 

    malloc@p	PTR void  size(2) Largest target is 0
		 -> __heap_hi(UNKNOWN), NULL(NULL[0]), 

    malloc@sz	PTR unsigned int  size(2) Largest target is 0
		 -> __heap_hi(UNKNOWN), NULL(NULL[0]), 

    S1099$next	PTR struct chunk size(2) Largest target is 0
		 -> NULL(NULL[0]), 

    ?___simple_search_fl$.$next	PTR struct chunk size(2) Largest target is 0
		 -> NULL(NULL[0]), 

    __simple_search_fl@best	PTR struct chunk size(2) Largest target is 0
		 -> NULL(NULL[0]), 

    __simple_search_fl@best$.$next	PTR struct chunk size(2) Largest target is 0
		 -> NULL(NULL[0]), 

    __simple_search_fl@best_last	PTR struct chunk size(2) Largest target is 0
		 -> NULL(NULL[0]), 

    __simple_search_fl@best_last$.$next	PTR struct chunk size(2) Largest target is 0
		 -> NULL(NULL[0]), 

    __simple_search_fl@best_last$.$next$.$next	PTR struct chunk size(2) Largest target is 0
		 -> NULL(NULL[0]), 

    __simple_search_fl@c	PTR struct chunk size(2) Largest target is 0
		 -> NULL(NULL[0]), 

    __simple_search_fl@c$.$next	PTR struct chunk size(2) Largest target is 0
		 -> NULL(NULL[0]), 

    __simple_search_fl@last	PTR struct chunk size(2) Largest target is 0
		 -> NULL(NULL[0]), 

    __simple_search_fl@last$.$next	PTR struct chunk size(2) Largest target is 0
		 -> NULL(NULL[0]), 

    __simple_search_fl@last$.$next$.$next	PTR struct chunk size(2) Largest target is 0
		 -> NULL(NULL[0]), 

    __simple_search_fl@next	PTR struct chunk size(2) Largest target is 0
		 -> NULL(NULL[0]), 

    __simple_search_fl@next$.$next	PTR struct chunk size(2) Largest target is 0
		 -> NULL(NULL[0]), 

    __simple_search_fl@split	PTR struct chunk size(2) Largest target is 0
		 -> NULL(NULL[0]), 

    __simple_search_fl@split$.$next	PTR struct chunk size(2) Largest target is 0
		 -> NULL(NULL[0]), 

    __simple_search_fl@split$.$next$.$next	PTR struct chunk size(2) Largest target is 0
		 -> NULL(NULL[0]), 

    sp____expand_heap	PTR void  size(2) Largest target is 0
		 -> __heap_hi(UNKNOWN), NULL(NULL[0]), 

    sp____simple_search_fl	PTR void  size(2) Largest target is 0
		 -> NULL(NULL[0]), 

    sp____simple_search_fl$.$next	PTR struct chunk size(2) Largest target is 0
		 -> NULL(NULL[0]), 

    sp__malloc	PTR void  size(2) Largest target is 0
		 -> __heap_hi(UNKNOWN), NULL(NULL[0]), 

    sp__tileInit	PTR struct tile size(2) Largest target is 0
		 -> __heap_hi(UNKNOWN), NULL(NULL[0]), 

    sp__utoa32	PTR unsigned char  size(1) Largest target is 5
		 -> DispCtrStr(COMRAM[5]), 

    tileInit@outputTile	PTR struct tile size(2) Largest target is 0
		 -> __heap_hi(UNKNOWN), NULL(NULL[0]), 

    updateColumn@cnt	PTR unsigned char  size(1) Largest target is 1
		 -> Col1cnt(COMRAM[1]), Col2cnt(COMRAM[1]), Col3cnt(COMRAM[1]), Col4cnt(COMRAM[1]), 

    updateColumn@col	PTR struct tile size(1) Largest target is 28
		 -> Col1(BANK0[28]), Col2(BANK0[28]), Col3(BANK0[28]), Col4(BANK0[28]), 

    utoa32@buffer	PTR unsigned char  size(1) Largest target is 5
		 -> DispCtrStr(COMRAM[5]), 


Critical Paths under _main in COMRAM

    _main->_tileInit
    _updateTiles->_updateColumn
    _tileInit->_malloc
    _malloc->___simple_search_fl
    _spawnTiles->_addTile
    _initDisplay->_clearAllDisplay
    _clearAllDisplay->_clearPageDisplay
    _clearPageDisplay->_setColumnAddress
    _handleSwitches->_checkHit
    _resetGame->_updateDisplay
    _updateDisplay->_setColumnAddress
    _setPageAddress->_sendCommandToDisplay
    _setColumnAddress->_sendCommandToDisplay
    _sendCommandToDisplay->_sendByteSpi
    _sendDataToDisplay->_sendByteSpi
    _drawUi->_drawColl
    _drawUi->_utoa32
    _utoa32->___lldiv
    _fillRect->_drawPixel
    _drawColl->_drawRect
    _drawRect->_drawPixel

Critical Paths under _isr in COMRAM

    None.

Critical Paths under _main in BANK0

    None.

Critical Paths under _isr in BANK0

    None.

Critical Paths under _main in BANK1

    None.

Critical Paths under _isr in BANK1

    None.

Critical Paths under _main in BANK2

    None.

Critical Paths under _isr in BANK2

    None.

Critical Paths under _main in BANK3

    None.

Critical Paths under _isr in BANK3

    None.

Critical Paths under _main in BANK4

    None.

Critical Paths under _isr in BANK4

    None.

Critical Paths under _main in BANK5

    None.

Critical Paths under _isr in BANK5

    None.

Critical Paths under _main in BANK6

    None.

Critical Paths under _isr in BANK6

    None.

Critical Paths under _main in BANK7

    None.

Critical Paths under _isr in BANK7

    None.

Call Graph Tables:

 ---------------------------------------------------------------------------------
 (Depth) Function   	        Calls       Base Space   Used Autos Params    Refs
 ---------------------------------------------------------------------------------
 (0) _main                                                 0     0      0    8579
                            ___llmod
                        _clearBuffer
                          _clearLeds
                             _drawUi
                     _handleSwitches
                        _initDisplay
                       _setInterrupt
                          _setPinout
                          _setTimer0
                          _setTimer2
                         _spawnTiles
                           _tileInit
                      _updateDisplay
                        _updateTiles
 ---------------------------------------------------------------------------------
 (1) _updateTiles                                          0     0      0     321
                       _updateColumn
 ---------------------------------------------------------------------------------
 (2) _updateColumn                                        18    16      2     321
                                              0 COMRAM    18    16      2
 ---------------------------------------------------------------------------------
 (1) _tileInit                                             8     2      6    1600
                                             32 COMRAM     8     2      6
                             _malloc
 ---------------------------------------------------------------------------------
 (2) _malloc                                              14    12      2    1461
                                             20 COMRAM    12    10      2
                      ___expand_heap
                 ___simple_search_fl
 ---------------------------------------------------------------------------------
 (3) ___simple_search_fl                                  20    18      2     827
                                              0 COMRAM    20    18      2
 ---------------------------------------------------------------------------------
 (3) ___expand_heap                                        8     6      2     136
                                              0 COMRAM     8     6      2
 ---------------------------------------------------------------------------------
 (1) _spawnTiles                                          13    13      0     235
                                             10 COMRAM    13    13      0
                            _addTile
 ---------------------------------------------------------------------------------
 (2) _addTile                                             10     1      9     122
                                              0 COMRAM    10     1      9
 ---------------------------------------------------------------------------------
 (1) _setTimer2                                            0     0      0       0
 ---------------------------------------------------------------------------------
 (1) _setTimer0                                            0     0      0       0
 ---------------------------------------------------------------------------------
 (1) _setPinout                                            0     0      0       0
 ---------------------------------------------------------------------------------
 (1) _setInterrupt                                         0     0      0       0
 ---------------------------------------------------------------------------------
 (1) _initDisplay                                          0     0      0     570
                    _clearAllDisplay
                            _initSpi
               _sendCommandToDisplay
 ---------------------------------------------------------------------------------
 (2) _initSpi                                              0     0      0       0
 ---------------------------------------------------------------------------------
 (2) _clearAllDisplay                                      1     1      0     512
                                              7 COMRAM     1     1      0
                   _clearPageDisplay
 ---------------------------------------------------------------------------------
 (3) _clearPageDisplay                                     3     3      0     444
                                              4 COMRAM     3     3      0
                  _sendDataToDisplay
                   _setColumnAddress
                     _setPageAddress
 ---------------------------------------------------------------------------------
 (1) _handleSwitches                                       0     0      0     984
                           _checkHit
                          _resetGame
 ---------------------------------------------------------------------------------
 (2) _resetGame                                            1     1      0     797
                                              8 COMRAM     1     1      0
                        _clearBuffer
                      _updateDisplay
 ---------------------------------------------------------------------------------
 (1) _updateDisplay                                        4     4      0     527
                                              4 COMRAM     4     4      0
                  _sendDataToDisplay
                   _setColumnAddress
                     _setPageAddress
 ---------------------------------------------------------------------------------
 (2) _setPageAddress                                       1     1      0     118
                                              2 COMRAM     1     1      0
               _sendCommandToDisplay
 ---------------------------------------------------------------------------------
 (2) _setColumnAddress                                     2     2      0     193
                                              2 COMRAM     2     2      0
               _sendCommandToDisplay
 ---------------------------------------------------------------------------------
 (3) _sendCommandToDisplay                                 1     1      0      58
                                              1 COMRAM     1     1      0
                        _sendByteSpi
 ---------------------------------------------------------------------------------
 (2) _sendDataToDisplay                                    1     1      0      58
                                              1 COMRAM     1     1      0
                        _sendByteSpi
 ---------------------------------------------------------------------------------
 (4) _sendByteSpi                                          1     1      0      29
                                              0 COMRAM     1     1      0
 ---------------------------------------------------------------------------------
 (3) _clearBuffer                                          4     4      0     136
                                              0 COMRAM     4     4      0
 ---------------------------------------------------------------------------------
 (2) _checkHit                                            11     9      2     187
                                              0 COMRAM    11     9      2
 ---------------------------------------------------------------------------------
 (1) _drawUi                                               0     0      0    4043
                           _drawColl
                           _drawRect
                           _drawText
                           _fillRect
                             _utoa32
 ---------------------------------------------------------------------------------
 (2) _utoa32                                              19    14      5     679
                                             13 COMRAM    19    14      5
                            ___lldiv
                            ___llmod
 ---------------------------------------------------------------------------------
 (3) ___llmod                                              9     1      8     163
                                              0 COMRAM     9     1      8
 ---------------------------------------------------------------------------------
 (3) ___lldiv                                             13     5      8     164
                                              0 COMRAM    13     5      8
 ---------------------------------------------------------------------------------
 (2) _fillRect                                             7     3      4     562
                                             10 COMRAM     7     3      4
                          _drawPixel
 ---------------------------------------------------------------------------------
 (2) _drawText                                            10     8      2     406
                                              0 COMRAM    10     8      2
 ---------------------------------------------------------------------------------
 (2) _drawColl                                            15    13      2    1584
                                             17 COMRAM    15    13      2
                            ___aldiv
                            ___lwdiv
                           _drawRect
 ---------------------------------------------------------------------------------
 (2) _drawRect                                             7     4      3     812
                                             10 COMRAM     7     4      3
                          _drawPixel
 ---------------------------------------------------------------------------------
 (3) _drawPixel                                           10     8      2     277
                                              0 COMRAM    10     8      2
 ---------------------------------------------------------------------------------
 (3) ___lwdiv                                              7     3      4     164
                                              0 COMRAM     7     3      4
 ---------------------------------------------------------------------------------
 (3) ___aldiv                                             14     6      8     302
                                              0 COMRAM    14     6      8
 ---------------------------------------------------------------------------------
 (1) _clearLeds                                            0     0      0       0
 ---------------------------------------------------------------------------------
 Estimated maximum stack depth 4
 ---------------------------------------------------------------------------------
 (Depth) Function   	        Calls       Base Space   Used Autos Params    Refs
 ---------------------------------------------------------------------------------
 (7) _isr                                                  0     0      0       0
 ---------------------------------------------------------------------------------
 Estimated maximum stack depth 7
 ---------------------------------------------------------------------------------

 Call Graph Graphs:

 _main (ROOT)
   ___llmod
   _clearBuffer
   _clearLeds
   _drawUi
     _drawColl
       ___aldiv
       ___lwdiv
       _drawRect
         _drawPixel
     _drawRect
     _drawText
     _fillRect
       _drawPixel
     _utoa32
       ___lldiv
       ___llmod
   _handleSwitches
     _checkHit
     _resetGame
       _clearBuffer
       _updateDisplay
         _sendDataToDisplay
           _sendByteSpi
         _setColumnAddress
           _sendCommandToDisplay
             _sendByteSpi
         _setPageAddress
           _sendCommandToDisplay
   _initDisplay
     _clearAllDisplay
       _clearPageDisplay
         _sendDataToDisplay
         _setColumnAddress
         _setPageAddress
     _initSpi
     _sendCommandToDisplay
   _setInterrupt
   _setPinout
   _setTimer0
   _setTimer2
   _spawnTiles
     _addTile
   _tileInit
     _malloc
       ___expand_heap
       ___simple_search_fl
   _updateDisplay
   _updateTiles
     _updateColumn

 _isr (ROOT)

Address spaces:
Name               Size   Autos  Total    Usage
BIGRAM            2047      0    1024     50.0%
BITBANK7           256      0       0      0.0%
BANK7              256      0       0      0.0%
BITBANK6           256      0       0      0.0%
BANK6              256      0       0      0.0%
BITBANK5           256      0       0      0.0%
BANK5              256      0       0      0.0%
BITBANK4           256      0       0      0.0%
BANK4              256      0       0      0.0%
BITBANK3           256      0       0      0.0%
BANK3              256      0       0      0.0%
BITBANK2           256      0       0      0.0%
BANK2              256      0       0      0.0%
BITBANK1           256      0       0      0.0%
BANK1              256      0       0      0.0%
BITBANK0           160      0       0      0.0%
BANK0              160      0     140     87.5%
BITBIGSFRh          98      0       0      0.0%
BITCOMRAM           94      0       0      0.0%
COMRAM              94     40      74     78.7%
BITBIGSFRll         33      0       0      0.0%
BITBIGSFRlh         27      0       0      0.0%
STACK                0      0       0      0.0%
DATA                 0      0    1238      0.0%


Microchip Technology PIC18 Macro Assembler V2.50 build 20240725155939 
Symbol Table                                                                                   Tue Mar 31 13:08:41 2026

                      drawColl@cnt 0013                                l101 101C  
                              l200 16DA                                l105 15A8  
                              l122 093E                                l203 16E8  
                              l300 164A                                l132 1618  
                              l310 0D50                                l207 0B68  
                              l231 168E                                l119 0724  
                              l160 0C66                                l304 166A  
                              l136 11D4                                l233 169C  
                              l137 11EC                                l153 13BA  
                              l129 0956                                l170 0410  
                              l234 16A0                                l307 0C92  
                              l171 046A                                l323 14CE  
                              l412 10C0                                l228 1704  
                              l405 10B0                                l149 115C  
                              l270 1686                                l351 0E84  
                              l191 1716                                l329 0E10  
                              l265 141C                                l194 16F6  
                              l363 1312                                l371 1520  
                              l275 15E6                                l197 1710  
                              l293 16B4                                l358 0EC4  
                              l375 1564                                l368 1352  
                              l296 16C8                                l457 0A60  
                              l805 1274                                l876 12E8  
                              l869 12E0                                l798 1264  
                              _PR2 0FCB                                _cnt 003D  
                              _isr 0008                                prod 0FF3  
                              wreg 0FE8               _sendCommandToDisplay 16A2  
                      drawText@col 000A                        drawText@txt 0002  
                             l2000 16A4                               l1112 0138  
                             l1104 0286                               l2002 16A8  
                             l2010 161C                               l1115 0242  
                             l2100 0E44                               l2004 16AA  
                             l2020 1644                               l2012 162C  
                             l2110 0EB0                               l2102 0E4A  
                             l2030 16BC                               l2006 16B0  
                             l2014 1630                               l2022 164E  
                             l2040 0D64                               l2112 0EB2  
                             l2104 0E70                               l2200 1218  
                             l2032 16BE                               l2008 16B2  
                             l2016 1636                               l2024 165E  
                             l2210 1276                               l2042 0D78  
                             l2106 0E72                               l2130 102E  
                             l2202 1226                               l2050 151E  
                             l2034 16C4                               l2018 163C  
                             l2026 1662                               l2122 15C0  
                             l2114 15AC                               l1075 05C8  
                             l2220 12AE                               l2212 127E  
                             l2044 0D86                               l2108 0E8A  
                             l2140 1070                               l2132 1044  
                             l2204 1244                               l2060 1522  
                             l2036 16C6                               l2028 16B8  
                             l2124 15C6                               l2116 15B8  
                             l2300 0F18                               l1093 0EEE  
                             l1077 057C                               l2150 0958  
                             l2230 12DA                               l2222 12B4  
                             l2214 1290                               l2046 0D96  
                             l2038 0D54                               l2142 108E  
                             l2134 104C                               l2206 1254  
                             l2062 1540                               l2070 1478  
                             l2126 15CA                               l2310 0F60  
                             l2302 0F36                               l1079 0570  
                             l2160 098A                               l2152 095A  
                             l2224 12CA                               l2216 1298  
                             l2048 0DD2                               l2144 109E  
                             l2136 1058                               l2128 101E  
                             l2208 125E                               l2320 0FD0  
                             l2064 1542                               l2304 0F4C  
                             l2240 0054                               l2232 0012  
                             l2400 0482                               l2170 09CC  
                             l2162 099A                               l2154 0968  
                             l2226 12D2                               l2218 12A0  
                             l2146 10A0                               l2138 1066  
                             l2322 0FF0                               l2314 0F72  
                             l2066 1552                               l2090 14BC  
                             l2330 1566                               l1098 0F70  
                             l2306 0F54                               l2242 0074  
                             l2234 003C                               l2402 0498  
                             l2180 0A1E                               l2172 09D8  
                             l2164 099E                               l2156 0978  
                             l2228 12D4                               l2148 10AA  
                             l2500 0B26                               l2324 0FF4  
                             l2316 0F78                               l2068 1554  
                             l2092 14BE                               l2084 1488  
                             l2076 147A                               l2260 0128  
                             l2244 0086                               l2252 00CE  
                             l2420 051E                               l2412 04D6  
                             l2404 04A4                               l2340 0846  
                             l2190 0A50                               l2182 0A20  
                             l2174 09E6                               l2166 09AE  
                             l2158 097C                               l2094 0E14  
                             l2510 0C6A                               l2502 0B40  
                             l2326 1008                               l2318 0FAC  
                             l2086 14AA                               l2078 1486  
                             l2334 1580                               l2270 01BA  
                             l2262 0140                               l2254 00EC  
                             l2246 00AA                               l2238 0048  
                             l2430 0550                               l2422 052A  
                             l2414 04D6                               l2406 04C2  
                             l2350 0932                               l2342 08C8  
                             l2184 0A2A                               l2176 09F0  
                             l2168 09C4                               l2096 0E24  
                             l2520 0CAC                               l2512 0C6E  
                             l2504 0B44                               l2328 100A  
                             l2088 14AC                               l2360 1178  
                             l2600 10E4                               l2336 15A0  
                             l2280 0266                               l2272 01DE  
                             l2256 00FE                               l2248 00BE  
                             l2264 0154                               l2440 05A4  
                             l2432 0568                               l2424 053A  
                             l2416 04EA                               l2408 04CA  
                             l2352 093A                               l2344 08D0  
                             l2178 0A0E                               l2186 0A30  
                             l2098 0E34                               l2450 0B72  
                             l2530 0CE2                               l2522 0CBA  
                             l2514 0C7E                               l2194 11EE  
                             l2506 0B5E                               l2362 117A  
                             l2610 1114                               l2602 10F2  
                             l2290 0EC6                               l2282 027A  
                             l2274 01EE                               l2266 0166  
                             l2442 05AC                               l2434 0584  
                             l2418 04FC                               l2346 08F6  
                             l2354 093C                               l2338 0840  
                             l2188 0A40                               l2460 0C52  
                             l2452 0BA6                               l2540 0D34  
                             l2532 0D02                               l2516 0C98  
                             l2196 1204                               l2380 11D6  
                             l2364 117C                               l2356 115E  
                             l2620 1138                               l2612 1116  
                             l2604 10F4                               l2700 13C4  
                             l2292 0ED4                               l2276 0226  
                             l2268 0178                               l2436 058C  
                             l2444 05C0                               l2348 08F8  
                             l2454 0BD6                               l2462 0C54  
                             l2542 0D36                               l2534 0D04  
                             l2470 1318                               l2198 120C  
                             l2390 11EA                               l2382 11DE  
                             l2374 1182                               l2366 117E  
                             l2358 1160                               l2622 1148  
                             l2614 1126                               l2606 1104  
                             l2550 16FE                               l2710 13E2  
                             l2702 13CA                               l2294 0EE6  
                             l2278 025A                               l2438 059C  
                             l2630 1368                               l2456 0C1A  
                             l2448 0B6C                               l2536 0D06  
                             l2528 0CBC                               l2544 0D38  
                             l2472 132A                               l2464 12EC  
                             l2480 0A62                               l2384 11E2  
                             l2376 11C2                               l2368 1180  
                             l2624 114A                               l2616 1128  
                             l2608 1106                               l2552 1700  
                             l2720 1400                               l2712 13E8  
                             l2704 13D0                               l2296 0F04  
                             l2392 046C                               l2632 137A  
                             l2458 0C40                               l2538 0D16  
                             l2474 132C                               l2466 12FC  
                             l2490 0A9A                               l2482 0A6A  
                             l2650 02F8                               l2642 0288  
                             l2386 11E6                               l2378 11C4  
                             l2626 1158                               l2618 1136  
                             l2562 166E                               l2554 1702  
                             l2546 16F8                               l2722 1406  
                             l2714 13EE                               l2706 13D6  
                             l2730 1712                               l2570 05CE  
                             l2298 0F0C                               l2394 046C  
                             l2476 133E                               l2468 130C  
                             l2492 0ACC                               l2484 0A80  
                             l2660 03AE                               l2652 0324  
                             l2644 0296                               l2388 11E8  
                             l2564 1674                               l2556 166C  
                             l2548 16FA                               l2724 140C  
                             l2716 13F4                               l2708 13DC  
                             l2572 0600                               l2396 046C  
                             l2636 1386                               l2628 1354  
                             l2740 0736                               l2732 0726  
                             l2478 1340                               l2494 0AD0  
                             l2486 0A8A                               l2662 03BC  
                             l2654 034C                               l2646 02C2  
                             l2566 1676                               l2726 1412  
                             l2718 13FA                               l2670 16EA  
                             l2574 0622                               l2582 0688  
                             l2398 047E                               l2638 139A  
                             l2590 15E8                               l2750 07A6  
                             l2742 073A                               l2734 072A  
                             l2680 1706                               l2496 0B04  
                             l2664 03E8                               l2656 035A  
                             l2648 02EA                               l2592 10C2  
                             l2728 1418                               l2672 16EC  
                             l2576 0644                               l2584 06AE  
                             l2568 05CA                               l2760 0828  
                             l2752 07D8                               l2744 073E  
                             l2736 072E                               l2498 0B1A  
                             l2666 0448                               l2658 0386  
                             l2594 10D0                               l2674 16F0  
                             l2682 16CA                               l2690 16E4  
                             l2578 0666                               l2586 06B2  
                             l2762 082C                               l2754 07E6  
                             l2746 0742                               l2738 0732  
                             l2668 045C                               l2596 10D2  
                             l2676 16F2                               l2684 16D6  
                             l2692 16E6                               l2588 06C8  
                             l2764 0830                               l2756 07EA  
                             l2748 0774                               l2598 10E2  
                             l2694 13BC                               l2678 16F4  
                             l2686 16D8                               l2766 0834  
                             l2758 0824                               l2696 13C0  
                             l2688 16DC                               l2698 13C2  
                             l1998 168A                               ?_isr 0001  
                             u1200 165E                               u1201 165A  
                             u2001 0634                               u1210 0D64  
                             u1211 0D60                               u2011 0656  
                             u1220 0D74                               u1300 0E24  
                             u2100 137A                               u1221 0D70  
                             u1301 0E20                               u2021 0678  
                             u2101 1376                               u1230 0D96  
                             u1310 0E34                               u2110 0296  
                             u2030 06C8                               u1231 0D92  
                             u1311 0E30                               u2111 0292  
                             u2031 06C4                               u1400 098A  
                             u1320 0E44                               u2120 02F8  
                             u2040 0724                               u1401 0986  
                             u1321 0E40                               u2121 02F4  
                             u2041 0720                               u1410 09C4  
                             u1330 0E84                               u2130 035A  
                             u2050 10D0                               u1411 09C0  
                             u1331 0E80                               u2131 0356  
                             u2051 10CC                               u1420 09E6  
                             u1500 12CA                               u1244 0DA8  
                             u1340 0EC4                               u2140 03BC  
                             u1260 1552                               u1180 169C  
                             u2060 10F2                               u1421 09E2  
                             u1501 12C6                               u1245 0DA4  
                             u1341 0EC0                               u2141 03B8  
                             u1261 154E                               u1181 1698  
                             u2061 10EE                               _LATA 0F89  
                             u1430 0A0E                               u1254 0DE4  
                             u1270 1564                               u1190 162C  
                             u2070 1114                               u1350 15E6  
                             u1510 003C                               u1431 0A0A  
                             u1255 0DE0                               u1271 1560  
                             u1191 1628                               u2071 1110  
                             u1351 15E2                               u1511 0038  
                             u2151 076C                               _LATC 0F8B  
                             u1440 0A40                               u1360 1044  
                             u1280 14BC                               u2080 1136  
                             u1600 025A                               u1520 0074  
                             _LATD 0F8C                               u1441 0A3C  
                             u1361 1040                               u1281 14B8  
                             u2081 1132                               u1601 0256  
                             u1521 0070                               u2161 079E  
                             u1370 1066                               u1450 1204  
                             u1290 14CE                               u2090 1158  
                             u1610 0EE6                               u1530 0086  
                             u1371 1062                               u1451 1200  
                             u1291 14CA                               u2091 1154  
                             u1611 0EE2                               u1531 0082  
                             u2171 07D0                               u1380 108E  
                             u1460 1226                               u1620 0F04  
                             u1540 00EC                               u1700 08C8  
                             u2180 07E6                               u1381 108A  
                             u1461 1222                               u1621 0F00  
                             u1541 00E8                               u1701 08C4  
                             u2181 07E2                               u1390 0968  
                             u1470 1244                               u1630 0F36  
                             u1550 00FE                               u2190 0824  
                             u1391 0964                               u1471 1240  
                             u1631 0F32                               u1551 00FA  
                             u1711 08EE                               u2191 0820  
                             u1480 1290                               u1640 0F4C  
                             u1560 0124                               u1800 054C  
                             u1720 0932                               u1481 128C  
                             u1641 0F48                               u1561 0120  
                             u1801 0548                               u1721 092E  
                             u1490 12AE                               u1650 0FD0  
                             u1570 0166                               u1810 0568  
                             u1730 0956                               u1491 12AA  
                             u1651 0FCC                               u1571 0162  
                             u1811 0564                               u1731 0952  
                             u1820 0C1A                               u1900 0B1A  
                             u1660 0FF0                               u1740 11D4  
                             u1580 0178                               u1821 0C16  
                             u1901 0B16                               u1661 0FEC  
                             u1741 11D0                               u1581 0174  
                             u1830 0C40                               u1910 0B5E  
                             u1670 101C                               u1590 01BA  
                             u1750 047E                               u1831 0C3C  
                             u1911 0B5A                               u1671 1018  
                             u1591 01B6                               u1751 047A  
                             u1840 0C66                               u1920 0C7E  
                             u1680 157C                               u1760 0498  
                             u1841 0C62                               u1921 0C7A  
                             u1681 1578                               u1761 0494  
                             u1930 0C8E                               u1850 12FC  
                             u1770 04C2                               u1931 0C8A  
                             u1851 12F8                               u1691 1598  
                             u1771 04BE                               u1940 0CA8  
                             u1860 130C                               u1780 04FC  
                             u1941 0CA4                               u1861 1308  
                             u1781 04F8                               u1950 0D16  
                             u1870 133E                               u1790 051E  
                             u1951 0D12                               u1871 133A  
                             u1791 051A                               u1960 0D50  
                             u1880 1352                               u1961 0D4C  
                             u1881 134E                               u1890 0A80  
                             u1970 1686                               u1891 0A7C  
                             u1971 1682                               u1980 05F2  
                             u1991 0612                               _TMR0 0FD6  
                   ?_updateDisplay 0001                               _Col1 00D0  
                             _Col2 00B4                               _Col3 0098  
                             _Col4 007C                       utoa32@buffer 0012  
                             _brkp 0033                               _main 0726  
                             fsr1h 0FE2                               fsr2h 0FDA  
                             indf1 0FE7                               indf2 0FDF  
                             fsr1l 0FE1                               fsr2l 0FD9  
                             btemp 004B                     drawColl@height 001D  
                             prodh 0FF4                               prodl 0FF3  
                             start 000E                       ?_initDisplay 0001  
                     ___param_bank 0000                     _setPageAddress 164C  
                     drawPixel@bit 0009                              ??_isr 0001  
                     drawText@page 0008                         _DispCtrStr 0046  
                  __end_of___aldiv 0A62                              ?_main 0001  
                  __end_of_addTile 15AA                    __end_of___lldiv 10C2  
                            _T0CON 0FD5                    __end_of___llmod 1276  
                            _T2CON 0FCA                    __end_of___lwdiv 12EA  
                            i2l186 14F0                              i2l188 151A  
                            _TRISA 0F92                              _TRISB 0F93  
                            _TRISC 0F94                              _TRISD 0F95  
                            _TRISE 0F96                      drawRect@i_618 0010  
                            _Coll1 0060              ?_sendCommandToDisplay 0001  
                  __end_of_font5x7 7FB9                              _chart 7FB9  
                  __end_of_initSpi 1706                              _errno 0039  
                            _score 003F                              tablat 0FF5  
                 ___expand_heap@pn 0001                              plusw0 0FEB  
                            plusw1 0FE3                              plusw2 0FDB  
                            ttemp5 004C                              ttemp6 004F  
                            ttemp7 0053                              status 0FD8  
                            wtemp8 004C                  ??_clearAllDisplay 0008  
           __end_of_setPageAddress 166C                    __initialization 141E  
                     __end_of_main 0840                      ___expand_heap 0EC6  
                    drawPixel@page 0008           __end_of_clearPageDisplay 15E8  
                     ?_sendByteSpi 0001                             ??_main 0029  
                    __activetblptr 0002                    ??_updateDisplay 0005  
                 ___llmod@dividend 0001                             i2l1900 14EE  
                           i2l1902 14FE                             i2l1904 150C  
                           i2l1906 1518                             i2l1896 14D2  
                           i2l1898 14E0                             _TMR0IE 7F95  
                           _TMR0IF 7F92                             _TMR2IE 7CE9  
                           _TMR2IF 7CF1                             _SSPBUF 0FC9  
                 __end_of_checkHit 101E                      checkHit@error 0007  
         sendCommandToDisplay@comm 0002                    ?_setPageAddress 0001  
                 __end_of_fillRect 1354                   __end_of_drawColl 0C68  
                 __end_of_drawRect 0EC6                   __end_of_drawText 0D52  
                   ?___expand_heap 0001            ___simple_search_fl@best 0013  
          ___simple_search_fl@last 000D                          ??___aldiv 0009  
          ___simple_search_fl@next 000F                          ??_addTile 000A  
                        ??___lldiv 0009                          ??___llmod 0009  
                        ??___lwdiv 0005                             _drawUi 0288  
                           _malloc 046C                             _millis 002D  
                           clear_0 1446                             clear_1 1458  
                           clear_2 1464                             isa$std 0001  
                           _utoa32 0A62             ??_sendCommandToDisplay 0002  
                        ??_initSpi 0001                       __pdataCOMRAM 0046  
                 __end_of_tileInit 13BC                       __mediumconst 7DEC  
                           tblptrh 0FF7                             tblptrl 0FF6  
                           tblptru 0FF8                      updateColumn@i 0012  
                    updateColumn@j 0011                         __accesstop 0060  
          __end_of__initialization 146A                      ___rparam_used 0001  
                       ___freelist 0031                   _setColumnAddress 161A  
                     ?_updateTiles 0001                     __pcstackCOMRAM 0001  
                    __end_of_chart 7FFF                     drawPixel@color 0002  
             sendDataToDisplay@dat 0002                         addTile@col 0001  
                       addTile@cnt 0002                  clearAllDisplay@pg 0008  
       __end_of___simple_search_fl 0288                         __pbssBANK0 0060  
                       _chartIndex 003B                      ?_setInterrupt 0001  
                   drawText@column 0001                    ??___expand_heap 0003  
                          ?_drawUi 0001                            ?_malloc 0015  
                          ?_utoa32 000E                          ?_checkHit 0001  
                        ?_fillRect 000B                            _SSPCON1 0FC6  
                  _clearAllDisplay 166C                          ?_drawColl 0012  
                        ?_drawRect 000B                          ?_drawText 0001  
                          _SSPSTAT 0FC7                            _Col1cnt 0045  
                          _Col2cnt 0044                            _Col3cnt 0043  
                          _Col4cnt 0042                  __end_of_clearLeds 1712  
                   ??_setInterrupt 0001                            __Hparam 0000  
                          __Lparam 0000                          ?_tileInit 0021  
             ___simple_search_fl@c 0011               ___simple_search_fl@n 0001  
                __end_of_drawPixel 0E12                            ___aldiv 0958  
                          _addTile 1566                            ___lldiv 101E  
                          ___llmod 11EE                            ___lwdiv 1276  
         ___simple_search_fl@split 000B                            __pcinit 141E  
                          __ramtop 0800                  ?_clearPageDisplay 0001  
                          __ptext0 0726                            __ptext1 15E8  
                          __ptext2 0840                            __ptext3 1354  
                          __ptext4 046C                            __ptext5 0012  
                          __ptext6 0EC6                            __ptext7 05CA  
                          __ptext8 1566                            __ptext9 16DC  
                drawColl@activeCol 0012                            _font5x7 7DED  
               ??_clearPageDisplay 0005                        tileInit@len 0025  
                          _initSpi 16F8                         ??_checkHit 0003  
                 ___aldiv@dividend 0001                         ??_fillRect 000F  
                       ??_drawColl 0014                         ??_drawRect 000E  
                       ??_drawText 0003                     __pintcode_body 14D0  
             end_of_initialization 146A                            malloc@m 0019  
                          malloc@n 0015                            malloc@p 001D  
                __end_of_setPinout 16F8                  __end_of_setTimer0 16DC  
                __end_of_setTimer2 16EA                   ??_setPageAddress 0003  
                __end_of_resetGame 11EE             ___expand_heap@new_brkp 0007  
                    ??_clearBuffer 0001                      __Lmediumconst 7DEC  
                          int_func 14D0                setColumnAddress@col 0003  
                  ___lldiv@divisor 0005                    ___lldiv@counter 000D  
                       ??_tileInit 0027                            utoa32@i 001F  
                          utoa32@j 001D                   ___aldiv@quotient 000B  
                          postdec1 0FE5                            postdec2 0FDD  
                          postinc0 0FEE                            postinc1 0FE6  
                          postinc2 0FDE                          _PORTBbits 0F81  
                    clearBuffer@pg 0003            __end_of_clearAllDisplay 1688  
                       _spawnTiles 05CA           __end_of_setColumnAddress 164C  
                       drawColl@dt 0018              __end_of_updateDisplay 14D0  
                       drawPixel@x 000A                         drawPixel@y 0001  
                    ?_updateColumn 0001                        utoa32@value 000E  
              __end_of_clearBuffer 1566                        spawnTiles@t 0011  
                    __pidataCOMRAM 1718                     __end_of_drawUi 046C  
                   __end_of_malloc 05CA                     _handleSwitches 10C2  
                  ___expand_heap@n 0005                     __end_of_utoa32 0B6A  
             __end_of_setInterrupt 1718                start_initialization 141E  
                       malloc@lock 0029                        __end_of_isr 151E  
                   ??_updateColumn 0003                    ___llmod@divisor 0005  
                  ___llmod@counter 0009                      ??_initDisplay 0009  
               ___simple_search_fl 0012                 tileInit@outputTile 0027  
     ___simple_search_fl@best_last 0009                           ??_drawUi 0021  
                         ??_malloc 0017             __end_of_handleSwitches 115E  
              ?___simple_search_fl 0001                           ??_utoa32 0013  
                        ___heap_hi 0800                          ___heap_lo 04EC  
                 ?_clearAllDisplay 0001                        __pbssBIGRAM 00EC  
                      ?_spawnTiles 0001                        __pbssCOMRAM 0029  
             ??___simple_search_fl 0003                        _clearBuffer 151E  
                        _clearLeds 1706                   ___lwdiv@dividend 0001  
            __end_of___expand_heap 0F72                          __pintcode 0008  
                    __pmediumconst 7DEC                           ?___aldiv 0001  
           setColumnAddress@column 0004                           ?_addTile 0001  
                         ?___lldiv 0001                           ?___llmod 0001  
                         ?___lwdiv 0001                    ?_handleSwitches 0001  
                    ??_sendByteSpi 0001                __end_of_initDisplay 141E  
                        _drawPixel 0D52                           ?_initSpi 0001  
                       resetGame@i 0009                          checkHit@i 000B  
                   sendByteSpi@dat 0001                   ___lwdiv@quotient 0005  
                    tileInit@start 0021                    ___aldiv@divisor 0005  
                  ___aldiv@counter 0009                           _PIE1bits 0F9D  
                        _setPinout 16EA                          _setTimer0 16CA  
                        _setTimer2 16DC                          _resetGame 115E  
                         i2u103_40 14E0                           i2u103_41 14DC  
                         i2u104_40 14EE                           i2u104_41 14EA  
                       ?_clearLeds 0001                           i2u105_40 14FE  
                         i2u105_41 14FA                           i2u106_40 150C  
                         i2u106_41 1508                           _PIR1bits 0F9E  
                        fillRect@h 000D                          fillRect@i 0010  
                        fillRect@j 0011                          fillRect@w 000C  
                        fillRect@x 000F                          fillRect@y 000B  
                       ?_drawPixel 0001                          drawColl@i 0020  
                        drawColl@x 001C                          drawColl@y 001E  
                        drawRect@h 000D                          drawRect@i 000F  
                        drawRect@w 000C                          drawRect@x 0011  
                        drawRect@y 000B               __end_of_updateColumn 0958  
                        drawText@c 0007                          drawText@d 0005  
                        drawText@i 0009                          drawText@x 0006  
                       utoa32@temp 0013                  ?_setColumnAddress 0001  
              __end_of_sendByteSpi 16A2                 ??_setColumnAddress 0003  
                        copy_data0 1432                          malloc@end 0035  
                        malloc@cur 0037                          malloc@new 001F  
                       ?_setPinout 0001                         ?_setTimer0 0001  
                       ?_setTimer2 0001               clearPageDisplay@page 0005  
                       ?_resetGame 0001                       _setInterrupt 1712  
                         __Hrparam 0000                      ??_updateTiles 0013  
                      checkHit@col 0001                        checkHit@cnt 0002  
                         __Lrparam 0000                        _initDisplay 13BC  
                         addTile@t 0003                           _checkHit 0F72  
                  ___lwdiv@divisor 0003                    ___lwdiv@counter 0007  
                         __ptext10 16CA                           __ptext11 16EA  
                         __ptext20 164C                           __ptext12 1712  
                         __ptext21 161A                           __ptext13 13BC  
                         __ptext30 101E                           __ptext22 16A2  
                         __ptext14 16F8                           __ptext31 12EA  
                         __ptext23 16B6                           __ptext15 166C  
                         __ptext32 0C68                           __ptext24 1688  
                         __ptext16 15AA                           __ptext33 0B6A  
                         __ptext25 151E                           __ptext17 10C2  
                         __ptext34 0E12                           __ptext26 0F72  
                         __ptext18 115E                           __ptext35 0D52  
                         __ptext27 0288                           __ptext19 1478  
                         __ptext36 1276                           __ptext28 0A62  
                         __ptext37 0958                           __ptext29 11EE  
                         __ptext38 1706                           _fillRect 12EA  
                         _drawColl 0B6A                           _drawRect 0E12  
                         _drawText 0C68       __end_of_sendCommandToDisplay 16B6  
                      ??_clearLeds 0001                           _tileInit 1354  
                         isa$xinst 0000                           int$flags 004B  
              __end_of_updateTiles 161A                        ??_drawPixel 0003  
                         _switches 0041                        _sendByteSpi 1688  
                         malloc@sz 001B                       ??_spawnTiles 000B  
                       _INTCONbits 0FF2                   updateDisplay@col 0007  
___simple_search_fl@remaining_size 0007                           intlevel2 0000  
                 _clearPageDisplay 15AA                 setPageAddress@page 0003  
                     ?_clearBuffer 0001                   ___lldiv@dividend 0001  
                _sendDataToDisplay 16B6                        ??_setPinout 0001  
                      ??_setTimer0 0001                        ??_setTimer2 0001  
                      ??_resetGame 0009                 ?_sendDataToDisplay 0001  
                 ??_handleSwitches 000C                 __end_of_spawnTiles 0726  
              ??_sendDataToDisplay 0002                 clearPageDisplay@cl 0006  
                  updateDisplay@pg 0008                      fillRect@color 000E  
                  updateColumn@col 0001                    updateColumn@cnt 0002  
                 ___lldiv@quotient 0009                       ___aldiv@sign 000A  
                    _displayBuffer 00EC                        _SSPCON1bits 0FC6  
                   clearBuffer@col 0004          __end_of_sendDataToDisplay 16CA  
                    _updateDisplay 1478                       _updateColumn 0840  
                      _updateTiles 15E8  
